Archive member included because of file (symbol)

/home/fx/Upwork/weather-node/output/core/core.a(HardwareSerial.cpp.o)
                              /home/fx/Upwork/weather-node/output/sketch/weatherSIM808.ino.cpp.o (HardwareSerial::read())
/home/fx/Upwork/weather-node/output/core/core.a(Print.cpp.o)
                              /home/fx/Upwork/weather-node/output/core/core.a(HardwareSerial.cpp.o) (Print::write(void const*, unsigned long))
/home/fx/Upwork/weather-node/output/core/core.a(cxxabi-compat.cpp.o)
                              /home/fx/Upwork/weather-node/output/libraries/DHT_sensor_library/DHT_U.cpp.o (__cxa_pure_virtual)
/home/fx/Upwork/weather-node/output/core/core.a(adc.c.o)
                              /home/fx/Upwork/weather-node/output/core/wirish/boards.cpp.o (adc_set_sample_rate)
/home/fx/Upwork/weather-node/output/core/core.a(adc_f1.c.o)
                              (__irq_adc)
/home/fx/Upwork/weather-node/output/core/core.a(dma_f1.c.o)
                              (__irq_dma1_channel1)
/home/fx/Upwork/weather-node/output/core/core.a(exc.S.o)
                              (__exc_nmi)
/home/fx/Upwork/weather-node/output/core/core.a(exti.c.o)
                              (__irq_exti0)
/home/fx/Upwork/weather-node/output/core/core.a(exti_f1.c.o)
                              /home/fx/Upwork/weather-node/output/core/core.a(exti.c.o) (exti_select)
/home/fx/Upwork/weather-node/output/core/core.a(flash.c.o)
                              /home/fx/Upwork/weather-node/output/core/wirish/boards.cpp.o (flash_set_latency)
/home/fx/Upwork/weather-node/output/core/core.a(gpio_f1.c.o)
                              /home/fx/Upwork/weather-node/output/core/wirish/boards_setup.cpp.o (gpio_init_all)
/home/fx/Upwork/weather-node/output/core/core.a(i2c_f1.c.o)
                              (__irq_i2c1_ev)
/home/fx/Upwork/weather-node/output/core/core.a(nvic.c.o)
                              /home/fx/Upwork/weather-node/output/core/core.a(i2c_f1.c.o) (nvic_irq_set_priority)
/home/fx/Upwork/weather-node/output/core/core.a(rcc.c.o)
                              /home/fx/Upwork/weather-node/output/core/wirish/boards.cpp.o (rcc_switch_sysclk)
/home/fx/Upwork/weather-node/output/core/core.a(rcc_f1.c.o)
                              /home/fx/Upwork/weather-node/output/core/wirish/boards.cpp.o (rcc_configure_pll)
/home/fx/Upwork/weather-node/output/core/core.a(isrs.S.o)
                              (__stm32reservedexception7)
/home/fx/Upwork/weather-node/output/core/core.a(vector_table.S.o)
                              (__stm32_vector_table)
/home/fx/Upwork/weather-node/output/core/core.a(systick.c.o)
                              /home/fx/Upwork/weather-node/output/core/wirish/boards.cpp.o (systick_init)
/home/fx/Upwork/weather-node/output/core/core.a(timer.c.o)
                              /home/fx/Upwork/weather-node/output/core/wirish/boards.cpp.o (timer_foreach)
/home/fx/Upwork/weather-node/output/core/core.a(usart.c.o)
                              /home/fx/Upwork/weather-node/output/core/core.a(HardwareSerial.cpp.o) (usart_init)
/home/fx/Upwork/weather-node/output/core/core.a(usart_f1.c.o)
                              /home/fx/Upwork/weather-node/output/core/core.a(HardwareSerial.cpp.o) (usart_config_gpios_async)
/home/fx/Upwork/weather-node/output/core/core.a(usart_private.c.o)
                              /home/fx/Upwork/weather-node/output/core/core.a(usart_f1.c.o) (_usart_clock_freq)
/home/fx/Upwork/weather-node/output/core/core.a(usb.c.o)
                              (__irq_usb_lp_can_rx0)
/home/fx/Upwork/weather-node/output/core/core.a(usb_cdcacm.c.o)
                              /home/fx/Upwork/weather-node/output/core/core.a(usb.c.o) (User_Standard_Requests)
/home/fx/Upwork/weather-node/output/core/core.a(usb_reg_map.c.o)
                              /home/fx/Upwork/weather-node/output/core/core.a(usb_cdcacm.c.o) (usb_set_ep_rx_count)
/home/fx/Upwork/weather-node/output/core/core.a(usb_core.c.o)
                              /home/fx/Upwork/weather-node/output/core/core.a(usb_cdcacm.c.o) (Standard_GetDescriptorData)
/home/fx/Upwork/weather-node/output/core/core.a(usb_init.c.o)
                              /home/fx/Upwork/weather-node/output/core/core.a(usb.c.o) (pInformation)
/home/fx/Upwork/weather-node/output/core/core.a(usb_mem.c.o)
                              /home/fx/Upwork/weather-node/output/core/core.a(usb_core.c.o) (UserToPMABufferCopy)
/home/fx/Upwork/weather-node/output/core/core.a(usb_regs.c.o)
                              /home/fx/Upwork/weather-node/output/core/core.a(usb_core.c.o) (SetEPTxStatus)
/home/fx/Upwork/weather-node/output/core/core.a(util.c.o)
                              /home/fx/Upwork/weather-node/output/core/core.a(exc.S.o) (__error)
/home/fx/Upwork/weather-node/output/core/core.a(main.cpp.o)
                              (main)
/home/fx/Upwork/weather-node/output/core/core.a(new.cpp.o)
                              /home/fx/Upwork/weather-node/output/libraries/DHT_sensor_library/DHT_U.cpp.o (operator delete(void*))
/home/fx/Upwork/weather-node/output/core/core.a(wirish_digital_f1.cpp.o)
                              /home/fx/Upwork/weather-node/output/sketch/weatherSIM808.ino.cpp.o (pinMode(unsigned char, WiringPinMode))
/home/fx/Upwork/weather-node/output/core/core.a(usb_serial.cpp.o)
                              /home/fx/Upwork/weather-node/output/core/wirish/boards_setup.cpp.o (USBSerial::begin())
/home/fx/Upwork/weather-node/output/core/core.a(wirish_digital.cpp.o)
                              /home/fx/Upwork/weather-node/output/libraries/DHT_sensor_library/DHT.cpp.o (digitalRead(unsigned char))
/home/fx/Upwork/weather-node/output/core/core.a(wirish_time.cpp.o)
                              /home/fx/Upwork/weather-node/output/libraries/DHT_sensor_library/DHT.cpp.o (delay(unsigned long))
/home/fx/Upwork/weather-node/output/core/core.a(hooks.c.o)
                              /home/fx/Upwork/weather-node/output/core/core.a(wirish_time.cpp.o) (yield)
/home/fx/Upwork/weather-node/output/core/core.a(bkp_f1.c.o)
                              /home/fx/Upwork/weather-node/output/core/core.a(usb_serial.cpp.o) (bkp_init)
/home/fx/Upwork/weather-node/output/core/core.a(dma.c.o)
                              /home/fx/Upwork/weather-node/output/core/core.a(dma_f1.c.o) (_dma_addr_type)
/home/fx/Upwork/weather-node/output/core/core.a(gpio.c.o)
                              /home/fx/Upwork/weather-node/output/core/core.a(gpio_f1.c.o) (gpio_init)
/home/fx/Upwork/weather-node/output/core/core.a(i2c.c.o)
                              /home/fx/Upwork/weather-node/output/core/core.a(i2c_f1.c.o) (_i2c_irq_handler)
/home/fx/.arduino15/packages/arduino/tools/arm-none-eabi-gcc/4.8.3-2014q1/bin/../lib/gcc/arm-none-eabi/4.8.3/../../../../arm-none-eabi/lib/armv7-m/libm.a(lib_a-w_sqrt.o)
                              /home/fx/Upwork/weather-node/output/libraries/DHT_sensor_library/DHT.cpp.o (sqrt)
/home/fx/.arduino15/packages/arduino/tools/arm-none-eabi-gcc/4.8.3-2014q1/bin/../lib/gcc/arm-none-eabi/4.8.3/../../../../arm-none-eabi/lib/armv7-m/libm.a(lib_a-e_sqrt.o)
                              /home/fx/.arduino15/packages/arduino/tools/arm-none-eabi-gcc/4.8.3-2014q1/bin/../lib/gcc/arm-none-eabi/4.8.3/../../../../arm-none-eabi/lib/armv7-m/libm.a(lib_a-w_sqrt.o) (__ieee754_sqrt)
/home/fx/.arduino15/packages/arduino/tools/arm-none-eabi-gcc/4.8.3-2014q1/bin/../lib/gcc/arm-none-eabi/4.8.3/../../../../arm-none-eabi/lib/armv7-m/libm.a(lib_a-s_fpclassify.o)
                              /home/fx/.arduino15/packages/arduino/tools/arm-none-eabi-gcc/4.8.3-2014q1/bin/../lib/gcc/arm-none-eabi/4.8.3/../../../../arm-none-eabi/lib/armv7-m/libm.a(lib_a-w_sqrt.o) (__fpclassifyd)
/home/fx/.arduino15/packages/arduino/tools/arm-none-eabi-gcc/4.8.3-2014q1/bin/../lib/gcc/arm-none-eabi/4.8.3/../../../../arm-none-eabi/lib/armv7-m/libm.a(lib_a-s_lib_ver.o)
                              /home/fx/.arduino15/packages/arduino/tools/arm-none-eabi-gcc/4.8.3-2014q1/bin/../lib/gcc/arm-none-eabi/4.8.3/../../../../arm-none-eabi/lib/armv7-m/libm.a(lib_a-w_sqrt.o) (__fdlib_version)
/home/fx/.arduino15/packages/arduino/tools/arm-none-eabi-gcc/4.8.3-2014q1/bin/../lib/gcc/arm-none-eabi/4.8.3/../../../../arm-none-eabi/lib/armv7-m/libm.a(lib_a-s_matherr.o)
                              /home/fx/.arduino15/packages/arduino/tools/arm-none-eabi-gcc/4.8.3-2014q1/bin/../lib/gcc/arm-none-eabi/4.8.3/../../../../arm-none-eabi/lib/armv7-m/libm.a(lib_a-w_sqrt.o) (matherr)
/home/fx/.arduino15/packages/arduino/tools/arm-none-eabi-gcc/4.8.3-2014q1/bin/../lib/gcc/arm-none-eabi/4.8.3/armv7-m/libgcc.a(_arm_addsubdf3.o)
                              /home/fx/Upwork/weather-node/output/libraries/DHT_sensor_library/DHT.cpp.o (__aeabi_dsub)
/home/fx/.arduino15/packages/arduino/tools/arm-none-eabi-gcc/4.8.3-2014q1/bin/../lib/gcc/arm-none-eabi/4.8.3/armv7-m/libgcc.a(_arm_muldivdf3.o)
                              /home/fx/Upwork/weather-node/output/libraries/DHT_sensor_library/DHT.cpp.o (__aeabi_dmul)
/home/fx/.arduino15/packages/arduino/tools/arm-none-eabi-gcc/4.8.3-2014q1/bin/../lib/gcc/arm-none-eabi/4.8.3/armv7-m/libgcc.a(_arm_cmpdf2.o)
                              /home/fx/Upwork/weather-node/output/core/core.a(Print.cpp.o) (__aeabi_dcmplt)
/home/fx/.arduino15/packages/arduino/tools/arm-none-eabi-gcc/4.8.3-2014q1/bin/../lib/gcc/arm-none-eabi/4.8.3/armv7-m/libgcc.a(_arm_fixdfsi.o)
                              /home/fx/Upwork/weather-node/output/core/core.a(Print.cpp.o) (__aeabi_d2iz)
/home/fx/.arduino15/packages/arduino/tools/arm-none-eabi-gcc/4.8.3-2014q1/bin/../lib/gcc/arm-none-eabi/4.8.3/armv7-m/libgcc.a(_arm_truncdfsf2.o)
                              /home/fx/Upwork/weather-node/output/libraries/DHT_sensor_library/DHT.cpp.o (__aeabi_d2f)
/home/fx/.arduino15/packages/arduino/tools/arm-none-eabi-gcc/4.8.3-2014q1/bin/../lib/gcc/arm-none-eabi/4.8.3/armv7-m/libgcc.a(_arm_addsubsf3.o)
                              /home/fx/Upwork/weather-node/output/libraries/DHT_sensor_library/DHT.cpp.o (__aeabi_fsub)
/home/fx/.arduino15/packages/arduino/tools/arm-none-eabi-gcc/4.8.3-2014q1/bin/../lib/gcc/arm-none-eabi/4.8.3/armv7-m/libgcc.a(_arm_cmpsf2.o)
                              /home/fx/Upwork/weather-node/output/libraries/DHT_sensor_library/DHT.cpp.o (__aeabi_fcmplt)
/home/fx/.arduino15/packages/arduino/tools/arm-none-eabi-gcc/4.8.3-2014q1/bin/../lib/gcc/arm-none-eabi/4.8.3/armv7-m/libgcc.a(_aeabi_uldivmod.o)
                              /home/fx/Upwork/weather-node/output/core/core.a(Print.cpp.o) (__aeabi_uldivmod)
/home/fx/.arduino15/packages/arduino/tools/arm-none-eabi-gcc/4.8.3-2014q1/bin/../lib/gcc/arm-none-eabi/4.8.3/armv7-m/libgcc.a(_fixdfdi.o)
                              /home/fx/Upwork/weather-node/output/core/core.a(Print.cpp.o) (__aeabi_d2lz)
/home/fx/.arduino15/packages/arduino/tools/arm-none-eabi-gcc/4.8.3-2014q1/bin/../lib/gcc/arm-none-eabi/4.8.3/armv7-m/libgcc.a(_fixunsdfdi.o)
                              /home/fx/.arduino15/packages/arduino/tools/arm-none-eabi-gcc/4.8.3-2014q1/bin/../lib/gcc/arm-none-eabi/4.8.3/armv7-m/libgcc.a(_fixdfdi.o) (__aeabi_d2ulz)
/home/fx/.arduino15/packages/arduino/tools/arm-none-eabi-gcc/4.8.3-2014q1/bin/../lib/gcc/arm-none-eabi/4.8.3/armv7-m/libgcc.a(bpabi.o)
                              /home/fx/.arduino15/packages/arduino/tools/arm-none-eabi-gcc/4.8.3-2014q1/bin/../lib/gcc/arm-none-eabi/4.8.3/armv7-m/libgcc.a(_aeabi_uldivmod.o) (__gnu_uldivmod_helper)
/home/fx/.arduino15/packages/arduino/tools/arm-none-eabi-gcc/4.8.3-2014q1/bin/../lib/gcc/arm-none-eabi/4.8.3/armv7-m/libgcc.a(_dvmd_tls.o)
                              /home/fx/.arduino15/packages/arduino/tools/arm-none-eabi-gcc/4.8.3-2014q1/bin/../lib/gcc/arm-none-eabi/4.8.3/armv7-m/libgcc.a(_aeabi_uldivmod.o) (__aeabi_ldiv0)
/home/fx/.arduino15/packages/arduino/tools/arm-none-eabi-gcc/4.8.3-2014q1/bin/../lib/gcc/arm-none-eabi/4.8.3/armv7-m/libgcc.a(_arm_fixunsdfsi.o)
                              /home/fx/.arduino15/packages/arduino/tools/arm-none-eabi-gcc/4.8.3-2014q1/bin/../lib/gcc/arm-none-eabi/4.8.3/armv7-m/libgcc.a(_fixunsdfdi.o) (__aeabi_d2uiz)
/home/fx/.arduino15/packages/arduino/tools/arm-none-eabi-gcc/4.8.3-2014q1/bin/../lib/gcc/arm-none-eabi/4.8.3/armv7-m/libgcc.a(_divdi3.o)
                              /home/fx/.arduino15/packages/arduino/tools/arm-none-eabi-gcc/4.8.3-2014q1/bin/../lib/gcc/arm-none-eabi/4.8.3/armv7-m/libgcc.a(bpabi.o) (__divdi3)
/home/fx/.arduino15/packages/arduino/tools/arm-none-eabi-gcc/4.8.3-2014q1/bin/../lib/gcc/arm-none-eabi/4.8.3/armv7-m/libgcc.a(_udivdi3.o)
                              /home/fx/.arduino15/packages/arduino/tools/arm-none-eabi-gcc/4.8.3-2014q1/bin/../lib/gcc/arm-none-eabi/4.8.3/armv7-m/libgcc.a(bpabi.o) (__udivdi3)
/home/fx/.arduino15/packages/arduino/tools/arm-none-eabi-gcc/4.8.3-2014q1/bin/../lib/gcc/arm-none-eabi/4.8.3/../../../../arm-none-eabi/lib/armv7-m/libc.a(lib_a-errno.o)
                              /home/fx/Upwork/weather-node/output/core/wirish/syscalls.c.o (__errno)
/home/fx/.arduino15/packages/arduino/tools/arm-none-eabi-gcc/4.8.3-2014q1/bin/../lib/gcc/arm-none-eabi/4.8.3/../../../../arm-none-eabi/lib/armv7-m/libc.a(lib_a-exit.o)
                              /home/fx/.arduino15/packages/arduino/tools/arm-none-eabi-gcc/4.8.3-2014q1/bin/../lib/gcc/arm-none-eabi/4.8.3/../../../../arm-none-eabi/lib/armv7-m/crt0.o (exit)
/home/fx/.arduino15/packages/arduino/tools/arm-none-eabi-gcc/4.8.3-2014q1/bin/../lib/gcc/arm-none-eabi/4.8.3/../../../../arm-none-eabi/lib/armv7-m/libc.a(lib_a-impure.o)
                              /home/fx/.arduino15/packages/arduino/tools/arm-none-eabi-gcc/4.8.3-2014q1/bin/../lib/gcc/arm-none-eabi/4.8.3/../../../../arm-none-eabi/lib/armv7-m/libc.a(lib_a-exit.o) (_global_impure_ptr)
/home/fx/.arduino15/packages/arduino/tools/arm-none-eabi-gcc/4.8.3-2014q1/bin/../lib/gcc/arm-none-eabi/4.8.3/../../../../arm-none-eabi/lib/armv7-m/libc.a(lib_a-init.o)
                              /home/fx/.arduino15/packages/arduino/tools/arm-none-eabi-gcc/4.8.3-2014q1/bin/../lib/gcc/arm-none-eabi/4.8.3/../../../../arm-none-eabi/lib/armv7-m/crt0.o (__libc_init_array)
/home/fx/.arduino15/packages/arduino/tools/arm-none-eabi-gcc/4.8.3-2014q1/bin/../lib/gcc/arm-none-eabi/4.8.3/../../../../arm-none-eabi/lib/armv7-m/libc.a(lib_a-malloc.o)
                              /home/fx/Upwork/weather-node/output/core/core.a(new.cpp.o) (malloc)
/home/fx/.arduino15/packages/arduino/tools/arm-none-eabi-gcc/4.8.3-2014q1/bin/../lib/gcc/arm-none-eabi/4.8.3/../../../../arm-none-eabi/lib/armv7-m/libc.a(lib_a-mallocr.o)
                              /home/fx/.arduino15/packages/arduino/tools/arm-none-eabi-gcc/4.8.3-2014q1/bin/../lib/gcc/arm-none-eabi/4.8.3/../../../../arm-none-eabi/lib/armv7-m/libc.a(lib_a-malloc.o) (_malloc_r)
/home/fx/.arduino15/packages/arduino/tools/arm-none-eabi-gcc/4.8.3-2014q1/bin/../lib/gcc/arm-none-eabi/4.8.3/../../../../arm-none-eabi/lib/armv7-m/libc.a(lib_a-memchr-stub.o)
                              /home/fx/Upwork/weather-node/output/sketch/weatherSIM808.ino.cpp.o (memchr)
/home/fx/.arduino15/packages/arduino/tools/arm-none-eabi-gcc/4.8.3-2014q1/bin/../lib/gcc/arm-none-eabi/4.8.3/../../../../arm-none-eabi/lib/armv7-m/libc.a(lib_a-memcmp.o)
                              /home/fx/Upwork/weather-node/output/sketch/weatherSIM808.ino.cpp.o (memcmp)
/home/fx/.arduino15/packages/arduino/tools/arm-none-eabi-gcc/4.8.3-2014q1/bin/../lib/gcc/arm-none-eabi/4.8.3/../../../../arm-none-eabi/lib/armv7-m/libc.a(lib_a-memcpy.o)
                              /home/fx/Upwork/weather-node/output/libraries/FreeRTOS821/utility/queue.c.o (memcpy)
/home/fx/.arduino15/packages/arduino/tools/arm-none-eabi-gcc/4.8.3-2014q1/bin/../lib/gcc/arm-none-eabi/4.8.3/../../../../arm-none-eabi/lib/armv7-m/libc.a(lib_a-memset.o)
                              /home/fx/.arduino15/packages/arduino/tools/arm-none-eabi-gcc/4.8.3-2014q1/bin/../lib/gcc/arm-none-eabi/4.8.3/../../../../arm-none-eabi/lib/armv7-m/crt0.o (memset)
/home/fx/.arduino15/packages/arduino/tools/arm-none-eabi-gcc/4.8.3-2014q1/bin/../lib/gcc/arm-none-eabi/4.8.3/../../../../arm-none-eabi/lib/armv7-m/libc.a(lib_a-mlock.o)
                              /home/fx/.arduino15/packages/arduino/tools/arm-none-eabi-gcc/4.8.3-2014q1/bin/../lib/gcc/arm-none-eabi/4.8.3/../../../../arm-none-eabi/lib/armv7-m/libc.a(lib_a-mallocr.o) (__malloc_lock)
/home/fx/.arduino15/packages/arduino/tools/arm-none-eabi-gcc/4.8.3-2014q1/bin/../lib/gcc/arm-none-eabi/4.8.3/../../../../arm-none-eabi/lib/armv7-m/libc.a(lib_a-sbrkr.o)
                              /home/fx/.arduino15/packages/arduino/tools/arm-none-eabi-gcc/4.8.3-2014q1/bin/../lib/gcc/arm-none-eabi/4.8.3/../../../../arm-none-eabi/lib/armv7-m/libc.a(lib_a-mallocr.o) (_sbrk_r)
/home/fx/.arduino15/packages/arduino/tools/arm-none-eabi-gcc/4.8.3-2014q1/bin/../lib/gcc/arm-none-eabi/4.8.3/../../../../arm-none-eabi/lib/armv7-m/libc.a(lib_a-sprintf.o)
                              /home/fx/Upwork/weather-node/output/sketch/weatherSIM808.ino.cpp.o (sprintf)
/home/fx/.arduino15/packages/arduino/tools/arm-none-eabi-gcc/4.8.3-2014q1/bin/../lib/gcc/arm-none-eabi/4.8.3/../../../../arm-none-eabi/lib/armv7-m/libc.a(lib_a-strcpy.o)
                              /home/fx/Upwork/weather-node/output/core/core.a(cxxabi-compat.cpp.o) (strcpy)
/home/fx/.arduino15/packages/arduino/tools/arm-none-eabi-gcc/4.8.3-2014q1/bin/../lib/gcc/arm-none-eabi/4.8.3/../../../../arm-none-eabi/lib/armv7-m/libc.a(lib_a-strlen.o)
                              /home/fx/Upwork/weather-node/output/sketch/weatherSIM808.ino.cpp.o (strlen)
/home/fx/.arduino15/packages/arduino/tools/arm-none-eabi-gcc/4.8.3-2014q1/bin/../lib/gcc/arm-none-eabi/4.8.3/../../../../arm-none-eabi/lib/armv7-m/libc.a(lib_a-strncpy.o)
                              /home/fx/Upwork/weather-node/output/libraries/DHT_sensor_library/DHT_U.cpp.o (strncpy)
/home/fx/.arduino15/packages/arduino/tools/arm-none-eabi-gcc/4.8.3-2014q1/bin/../lib/gcc/arm-none-eabi/4.8.3/../../../../arm-none-eabi/lib/armv7-m/libc.a(lib_a-svfprintf.o)
                              /home/fx/.arduino15/packages/arduino/tools/arm-none-eabi-gcc/4.8.3-2014q1/bin/../lib/gcc/arm-none-eabi/4.8.3/../../../../arm-none-eabi/lib/armv7-m/libc.a(lib_a-sprintf.o) (_svfprintf_r)
/home/fx/.arduino15/packages/arduino/tools/arm-none-eabi-gcc/4.8.3-2014q1/bin/../lib/gcc/arm-none-eabi/4.8.3/../../../../arm-none-eabi/lib/armv7-m/libc.a(lib_a-__call_atexit.o)
                              /home/fx/.arduino15/packages/arduino/tools/arm-none-eabi-gcc/4.8.3-2014q1/bin/../lib/gcc/arm-none-eabi/4.8.3/../../../../arm-none-eabi/lib/armv7-m/libc.a(lib_a-exit.o) (__call_exitprocs)
/home/fx/.arduino15/packages/arduino/tools/arm-none-eabi-gcc/4.8.3-2014q1/bin/../lib/gcc/arm-none-eabi/4.8.3/../../../../arm-none-eabi/lib/armv7-m/libc.a(lib_a-atexit.o)
                              /home/fx/.arduino15/packages/arduino/tools/arm-none-eabi-gcc/4.8.3-2014q1/bin/../lib/gcc/arm-none-eabi/4.8.3/../../../../arm-none-eabi/lib/armv7-m/libc.a(lib_a-__call_atexit.o) (atexit)
/home/fx/.arduino15/packages/arduino/tools/arm-none-eabi-gcc/4.8.3-2014q1/bin/../lib/gcc/arm-none-eabi/4.8.3/../../../../arm-none-eabi/lib/armv7-m/libc.a(lib_a-dtoa.o)
                              /home/fx/.arduino15/packages/arduino/tools/arm-none-eabi-gcc/4.8.3-2014q1/bin/../lib/gcc/arm-none-eabi/4.8.3/../../../../arm-none-eabi/lib/armv7-m/libc.a(lib_a-svfprintf.o) (_dtoa_r)
/home/fx/.arduino15/packages/arduino/tools/arm-none-eabi-gcc/4.8.3-2014q1/bin/../lib/gcc/arm-none-eabi/4.8.3/../../../../arm-none-eabi/lib/armv7-m/libc.a(lib_a-fini.o)
                              /home/fx/.arduino15/packages/arduino/tools/arm-none-eabi-gcc/4.8.3-2014q1/bin/../lib/gcc/arm-none-eabi/4.8.3/../../../../arm-none-eabi/lib/armv7-m/libc.a(lib_a-__call_atexit.o) (__libc_fini_array)
/home/fx/.arduino15/packages/arduino/tools/arm-none-eabi-gcc/4.8.3-2014q1/bin/../lib/gcc/arm-none-eabi/4.8.3/../../../../arm-none-eabi/lib/armv7-m/libc.a(lib_a-freer.o)
                              /home/fx/.arduino15/packages/arduino/tools/arm-none-eabi-gcc/4.8.3-2014q1/bin/../lib/gcc/arm-none-eabi/4.8.3/../../../../arm-none-eabi/lib/armv7-m/libc.a(lib_a-malloc.o) (_free_r)
/home/fx/.arduino15/packages/arduino/tools/arm-none-eabi-gcc/4.8.3-2014q1/bin/../lib/gcc/arm-none-eabi/4.8.3/../../../../arm-none-eabi/lib/armv7-m/libc.a(lib_a-locale.o)
                              /home/fx/.arduino15/packages/arduino/tools/arm-none-eabi-gcc/4.8.3-2014q1/bin/../lib/gcc/arm-none-eabi/4.8.3/../../../../arm-none-eabi/lib/armv7-m/libc.a(lib_a-svfprintf.o) (_localeconv_r)
/home/fx/.arduino15/packages/arduino/tools/arm-none-eabi-gcc/4.8.3-2014q1/bin/../lib/gcc/arm-none-eabi/4.8.3/../../../../arm-none-eabi/lib/armv7-m/libc.a(lib_a-mprec.o)
                              /home/fx/.arduino15/packages/arduino/tools/arm-none-eabi-gcc/4.8.3-2014q1/bin/../lib/gcc/arm-none-eabi/4.8.3/../../../../arm-none-eabi/lib/armv7-m/libc.a(lib_a-dtoa.o) (_Balloc)
/home/fx/.arduino15/packages/arduino/tools/arm-none-eabi-gcc/4.8.3-2014q1/bin/../lib/gcc/arm-none-eabi/4.8.3/../../../../arm-none-eabi/lib/armv7-m/libc.a(lib_a-reent.o)
                              /home/fx/.arduino15/packages/arduino/tools/arm-none-eabi-gcc/4.8.3-2014q1/bin/../lib/gcc/arm-none-eabi/4.8.3/../../../../arm-none-eabi/lib/armv7-m/libc.a(lib_a-sbrkr.o) (errno)
/home/fx/.arduino15/packages/arduino/tools/arm-none-eabi-gcc/4.8.3-2014q1/bin/../lib/gcc/arm-none-eabi/4.8.3/../../../../arm-none-eabi/lib/armv7-m/libc.a(lib_a-strcmp.o)
                              /home/fx/.arduino15/packages/arduino/tools/arm-none-eabi-gcc/4.8.3-2014q1/bin/../lib/gcc/arm-none-eabi/4.8.3/../../../../arm-none-eabi/lib/armv7-m/libc.a(lib_a-locale.o) (strcmp)
/home/fx/.arduino15/packages/arduino/tools/arm-none-eabi-gcc/4.8.3-2014q1/bin/../lib/gcc/arm-none-eabi/4.8.3/../../../../arm-none-eabi/lib/armv7-m/libc.a(lib_a-svfiprintf.o)
                              /home/fx/.arduino15/packages/arduino/tools/arm-none-eabi-gcc/4.8.3-2014q1/bin/../lib/gcc/arm-none-eabi/4.8.3/../../../../arm-none-eabi/lib/armv7-m/libc.a(lib_a-svfprintf.o) (__ssprint_r)
/home/fx/.arduino15/packages/arduino/tools/arm-none-eabi-gcc/4.8.3-2014q1/bin/../lib/gcc/arm-none-eabi/4.8.3/../../../../arm-none-eabi/lib/armv7-m/libc.a(lib_a-__atexit.o)
                              /home/fx/.arduino15/packages/arduino/tools/arm-none-eabi-gcc/4.8.3-2014q1/bin/../lib/gcc/arm-none-eabi/4.8.3/../../../../arm-none-eabi/lib/armv7-m/libc.a(lib_a-atexit.o) (__register_exitproc)
/home/fx/.arduino15/packages/arduino/tools/arm-none-eabi-gcc/4.8.3-2014q1/bin/../lib/gcc/arm-none-eabi/4.8.3/../../../../arm-none-eabi/lib/armv7-m/libc.a(lib_a-callocr.o)
                              /home/fx/.arduino15/packages/arduino/tools/arm-none-eabi-gcc/4.8.3-2014q1/bin/../lib/gcc/arm-none-eabi/4.8.3/../../../../arm-none-eabi/lib/armv7-m/libc.a(lib_a-mprec.o) (_calloc_r)
/home/fx/.arduino15/packages/arduino/tools/arm-none-eabi-gcc/4.8.3-2014q1/bin/../lib/gcc/arm-none-eabi/4.8.3/../../../../arm-none-eabi/lib/armv7-m/libc.a(lib_a-memmove.o)
                              /home/fx/.arduino15/packages/arduino/tools/arm-none-eabi-gcc/4.8.3-2014q1/bin/../lib/gcc/arm-none-eabi/4.8.3/../../../../arm-none-eabi/lib/armv7-m/libc.a(lib_a-svfiprintf.o) (memmove)
/home/fx/.arduino15/packages/arduino/tools/arm-none-eabi-gcc/4.8.3-2014q1/bin/../lib/gcc/arm-none-eabi/4.8.3/../../../../arm-none-eabi/lib/armv7-m/libc.a(lib_a-reallocr.o)
                              /home/fx/.arduino15/packages/arduino/tools/arm-none-eabi-gcc/4.8.3-2014q1/bin/../lib/gcc/arm-none-eabi/4.8.3/../../../../arm-none-eabi/lib/armv7-m/libc.a(lib_a-svfiprintf.o) (_realloc_r)

Allocating common symbols
Common symbol       size              file

SaveRState          0x2               /home/fx/Upwork/weather-node/output/core/core.a(usb.c.o)
SaveState           0x2               /home/fx/Upwork/weather-node/output/core/core.a(usb_init.c.o)
errno               0x4               /home/fx/.arduino15/packages/arduino/tools/arm-none-eabi-gcc/4.8.3-2014q1/bin/../lib/gcc/arm-none-eabi/4.8.3/../../../../arm-none-eabi/lib/armv7-m/libc.a(lib_a-reent.o)
pProperty           0x4               /home/fx/Upwork/weather-node/output/core/core.a(usb_init.c.o)
EPindex             0x1               /home/fx/Upwork/weather-node/output/core/core.a(usb_init.c.o)
SaveTState          0x2               /home/fx/Upwork/weather-node/output/core/core.a(usb.c.o)
systick_uptime_millis
                    0x4               /home/fx/Upwork/weather-node/output/core/core.a(systick.c.o)
Device_Info         0x1c              /home/fx/Upwork/weather-node/output/core/core.a(usb_init.c.o)
pUser_Standard_Requests
                    0x4               /home/fx/Upwork/weather-node/output/core/core.a(usb_init.c.o)
StatusInfo          0x2               /home/fx/Upwork/weather-node/output/core/core.a(usb_core.c.o)
pInformation        0x4               /home/fx/Upwork/weather-node/output/core/core.a(usb_init.c.o)
ResumeS             0x2               /home/fx/Upwork/weather-node/output/core/core.a(usb.c.o)
wInterrupt_Mask     0x2               /home/fx/Upwork/weather-node/output/core/core.a(usb_init.c.o)

Discarded input sections

 .text          0x0000000000000000        0x0 /home/fx/.arduino15/packages/arduino/tools/arm-none-eabi-gcc/4.8.3-2014q1/bin/../lib/gcc/arm-none-eabi/4.8.3/armv7-m/crti.o
 .data          0x0000000000000000        0x0 /home/fx/.arduino15/packages/arduino/tools/arm-none-eabi-gcc/4.8.3-2014q1/bin/../lib/gcc/arm-none-eabi/4.8.3/armv7-m/crti.o
 .bss           0x0000000000000000        0x0 /home/fx/.arduino15/packages/arduino/tools/arm-none-eabi-gcc/4.8.3-2014q1/bin/../lib/gcc/arm-none-eabi/4.8.3/armv7-m/crti.o
 .data          0x0000000000000000        0x4 /home/fx/.arduino15/packages/arduino/tools/arm-none-eabi-gcc/4.8.3-2014q1/bin/../lib/gcc/arm-none-eabi/4.8.3/armv7-m/crtbegin.o
 .text          0x0000000000000000       0x74 /home/fx/.arduino15/packages/arduino/tools/arm-none-eabi-gcc/4.8.3-2014q1/bin/../lib/gcc/arm-none-eabi/4.8.3/../../../../arm-none-eabi/lib/armv7-m/crt0.o
 .data          0x0000000000000000        0x0 /home/fx/.arduino15/packages/arduino/tools/arm-none-eabi-gcc/4.8.3-2014q1/bin/../lib/gcc/arm-none-eabi/4.8.3/../../../../arm-none-eabi/lib/armv7-m/crt0.o
 .bss           0x0000000000000000        0x0 /home/fx/.arduino15/packages/arduino/tools/arm-none-eabi-gcc/4.8.3-2014q1/bin/../lib/gcc/arm-none-eabi/4.8.3/../../../../arm-none-eabi/lib/armv7-m/crt0.o
 .ARM.extab     0x0000000000000000        0x0 /home/fx/.arduino15/packages/arduino/tools/arm-none-eabi-gcc/4.8.3-2014q1/bin/../lib/gcc/arm-none-eabi/4.8.3/../../../../arm-none-eabi/lib/armv7-m/crt0.o
 .ARM.exidx     0x0000000000000000        0x8 /home/fx/.arduino15/packages/arduino/tools/arm-none-eabi-gcc/4.8.3-2014q1/bin/../lib/gcc/arm-none-eabi/4.8.3/../../../../arm-none-eabi/lib/armv7-m/crt0.o
 .text          0x0000000000000000        0x0 /home/fx/Upwork/weather-node/output/sketch/weatherSIM808.ino.cpp.o
 .data          0x0000000000000000        0x0 /home/fx/Upwork/weather-node/output/sketch/weatherSIM808.ino.cpp.o
 .bss           0x0000000000000000        0x0 /home/fx/Upwork/weather-node/output/sketch/weatherSIM808.ino.cpp.o
 .text._Z13displayValuesv
                0x0000000000000000       0x80 /home/fx/Upwork/weather-node/output/sketch/weatherSIM808.ino.cpp.o
 .text._Z11showBuffersv
                0x0000000000000000       0xc8 /home/fx/Upwork/weather-node/output/sketch/weatherSIM808.ino.cpp.o
 .text          0x0000000000000000        0x0 /home/fx/Upwork/weather-node/output/libraries/FreeRTOS821/MapleFreeRTOS821.cpp.o
 .data          0x0000000000000000        0x0 /home/fx/Upwork/weather-node/output/libraries/FreeRTOS821/MapleFreeRTOS821.cpp.o
 .bss           0x0000000000000000        0x0 /home/fx/Upwork/weather-node/output/libraries/FreeRTOS821/MapleFreeRTOS821.cpp.o
 .text          0x0000000000000000        0x0 /home/fx/Upwork/weather-node/output/libraries/FreeRTOS821/utility/croutine.c.o
 .data          0x0000000000000000        0x0 /home/fx/Upwork/weather-node/output/libraries/FreeRTOS821/utility/croutine.c.o
 .bss           0x0000000000000000        0x0 /home/fx/Upwork/weather-node/output/libraries/FreeRTOS821/utility/croutine.c.o
 .text          0x0000000000000000        0x0 /home/fx/Upwork/weather-node/output/libraries/FreeRTOS821/utility/event_groups.c.o
 .data          0x0000000000000000        0x0 /home/fx/Upwork/weather-node/output/libraries/FreeRTOS821/utility/event_groups.c.o
 .bss           0x0000000000000000        0x0 /home/fx/Upwork/weather-node/output/libraries/FreeRTOS821/utility/event_groups.c.o
 .text.xEventGroupCreate
                0x0000000000000000       0x1a /home/fx/Upwork/weather-node/output/libraries/FreeRTOS821/utility/event_groups.c.o
 .text.xEventGroupWaitBits
                0x0000000000000000       0xa8 /home/fx/Upwork/weather-node/output/libraries/FreeRTOS821/utility/event_groups.c.o
 .text.xEventGroupClearBits
                0x0000000000000000       0x1a /home/fx/Upwork/weather-node/output/libraries/FreeRTOS821/utility/event_groups.c.o
 .text.xEventGroupGetBitsFromISR
                0x0000000000000000       0x12 /home/fx/Upwork/weather-node/output/libraries/FreeRTOS821/utility/event_groups.c.o
 .text.xEventGroupSetBits
                0x0000000000000000       0x5a /home/fx/Upwork/weather-node/output/libraries/FreeRTOS821/utility/event_groups.c.o
 .text.xEventGroupSync
                0x0000000000000000       0x80 /home/fx/Upwork/weather-node/output/libraries/FreeRTOS821/utility/event_groups.c.o
 .text.vEventGroupDelete
                0x0000000000000000       0x26 /home/fx/Upwork/weather-node/output/libraries/FreeRTOS821/utility/event_groups.c.o
 .text.vEventGroupSetBitsCallback
                0x0000000000000000        0x4 /home/fx/Upwork/weather-node/output/libraries/FreeRTOS821/utility/event_groups.c.o
 .text.vEventGroupClearBitsCallback
                0x0000000000000000        0x4 /home/fx/Upwork/weather-node/output/libraries/FreeRTOS821/utility/event_groups.c.o
 .text.uxEventGroupGetNumber
                0x0000000000000000        0x6 /home/fx/Upwork/weather-node/output/libraries/FreeRTOS821/utility/event_groups.c.o
 .text          0x0000000000000000        0x0 /home/fx/Upwork/weather-node/output/libraries/FreeRTOS821/utility/heap_1.c.o
 .data          0x0000000000000000        0x0 /home/fx/Upwork/weather-node/output/libraries/FreeRTOS821/utility/heap_1.c.o
 .bss           0x0000000000000000        0x0 /home/fx/Upwork/weather-node/output/libraries/FreeRTOS821/utility/heap_1.c.o
 .text.vPortInitialiseBlocks
                0x0000000000000000        0xc /home/fx/Upwork/weather-node/output/libraries/FreeRTOS821/utility/heap_1.c.o
 .text.xPortGetFreeHeapSize
                0x0000000000000000       0x10 /home/fx/Upwork/weather-node/output/libraries/FreeRTOS821/utility/heap_1.c.o
 .text          0x0000000000000000        0x0 /home/fx/Upwork/weather-node/output/libraries/FreeRTOS821/utility/list.c.o
 .data          0x0000000000000000        0x0 /home/fx/Upwork/weather-node/output/libraries/FreeRTOS821/utility/list.c.o
 .bss           0x0000000000000000        0x0 /home/fx/Upwork/weather-node/output/libraries/FreeRTOS821/utility/list.c.o
 .text          0x0000000000000000        0x0 /home/fx/Upwork/weather-node/output/libraries/FreeRTOS821/utility/port.c.o
 .data          0x0000000000000000        0x0 /home/fx/Upwork/weather-node/output/libraries/FreeRTOS821/utility/port.c.o
 .bss           0x0000000000000000        0x0 /home/fx/Upwork/weather-node/output/libraries/FreeRTOS821/utility/port.c.o
 .text.vPortEndScheduler
                0x0000000000000000        0x2 /home/fx/Upwork/weather-node/output/libraries/FreeRTOS821/utility/port.c.o
 .text.vPortSetupTimerInterrupt
                0x0000000000000000       0x14 /home/fx/Upwork/weather-node/output/libraries/FreeRTOS821/utility/port.c.o
 .text          0x0000000000000000        0x0 /home/fx/Upwork/weather-node/output/libraries/FreeRTOS821/utility/queue.c.o
 .data          0x0000000000000000        0x0 /home/fx/Upwork/weather-node/output/libraries/FreeRTOS821/utility/queue.c.o
 .bss           0x0000000000000000        0x0 /home/fx/Upwork/weather-node/output/libraries/FreeRTOS821/utility/queue.c.o
 .text.prvCopyDataToQueue
                0x0000000000000000       0x6a /home/fx/Upwork/weather-node/output/libraries/FreeRTOS821/utility/queue.c.o
 .text.prvCopyDataFromQueue
                0x0000000000000000       0x26 /home/fx/Upwork/weather-node/output/libraries/FreeRTOS821/utility/queue.c.o
 .text.prvUnlockQueue
                0x0000000000000000       0x64 /home/fx/Upwork/weather-node/output/libraries/FreeRTOS821/utility/queue.c.o
 .text.xQueueGenericReset
                0x0000000000000000       0x5a /home/fx/Upwork/weather-node/output/libraries/FreeRTOS821/utility/queue.c.o
 .text.xQueueGenericCreate
                0x0000000000000000       0x3c /home/fx/Upwork/weather-node/output/libraries/FreeRTOS821/utility/queue.c.o
 .text.xQueueCreateCountingSemaphore
                0x0000000000000000       0x12 /home/fx/Upwork/weather-node/output/libraries/FreeRTOS821/utility/queue.c.o
 .text.xQueueGenericSend
                0x0000000000000000       0xd8 /home/fx/Upwork/weather-node/output/libraries/FreeRTOS821/utility/queue.c.o
 .text.xQueueCreateMutex
                0x0000000000000000       0x4a /home/fx/Upwork/weather-node/output/libraries/FreeRTOS821/utility/queue.c.o
 .text.xQueueGiveMutexRecursive
                0x0000000000000000       0x2a /home/fx/Upwork/weather-node/output/libraries/FreeRTOS821/utility/queue.c.o
 .text.xQueueGenericSendFromISR
                0x0000000000000000       0x5c /home/fx/Upwork/weather-node/output/libraries/FreeRTOS821/utility/queue.c.o
 .text.xQueueGiveFromISR
                0x0000000000000000       0x4c /home/fx/Upwork/weather-node/output/libraries/FreeRTOS821/utility/queue.c.o
 .text.xQueueGenericReceive
                0x0000000000000000      0x102 /home/fx/Upwork/weather-node/output/libraries/FreeRTOS821/utility/queue.c.o
 .text.xQueueTakeMutexRecursive
                0x0000000000000000       0x32 /home/fx/Upwork/weather-node/output/libraries/FreeRTOS821/utility/queue.c.o
 .text.xQueueReceiveFromISR
                0x0000000000000000       0x52 /home/fx/Upwork/weather-node/output/libraries/FreeRTOS821/utility/queue.c.o
 .text.xQueuePeekFromISR
                0x0000000000000000       0x2c /home/fx/Upwork/weather-node/output/libraries/FreeRTOS821/utility/queue.c.o
 .text.uxQueueMessagesWaiting
                0x0000000000000000       0x12 /home/fx/Upwork/weather-node/output/libraries/FreeRTOS821/utility/queue.c.o
 .text.uxQueueSpacesAvailable
                0x0000000000000000       0x16 /home/fx/Upwork/weather-node/output/libraries/FreeRTOS821/utility/queue.c.o
 .text.uxQueueMessagesWaitingFromISR
                0x0000000000000000        0x4 /home/fx/Upwork/weather-node/output/libraries/FreeRTOS821/utility/queue.c.o
 .text.vQueueDelete
                0x0000000000000000        0x4 /home/fx/Upwork/weather-node/output/libraries/FreeRTOS821/utility/queue.c.o
 .text.uxQueueGetQueueNumber
                0x0000000000000000        0x4 /home/fx/Upwork/weather-node/output/libraries/FreeRTOS821/utility/queue.c.o
 .text.vQueueSetQueueNumber
                0x0000000000000000        0x4 /home/fx/Upwork/weather-node/output/libraries/FreeRTOS821/utility/queue.c.o
 .text.ucQueueGetQueueType
                0x0000000000000000        0x6 /home/fx/Upwork/weather-node/output/libraries/FreeRTOS821/utility/queue.c.o
 .text.xQueueIsQueueEmptyFromISR
                0x0000000000000000        0xc /home/fx/Upwork/weather-node/output/libraries/FreeRTOS821/utility/queue.c.o
 .text.xQueueIsQueueFullFromISR
                0x0000000000000000        0xc /home/fx/Upwork/weather-node/output/libraries/FreeRTOS821/utility/queue.c.o
 .text          0x0000000000000000        0x0 /home/fx/Upwork/weather-node/output/libraries/FreeRTOS821/utility/tasks.c.o
 .data          0x0000000000000000        0x0 /home/fx/Upwork/weather-node/output/libraries/FreeRTOS821/utility/tasks.c.o
 .bss           0x0000000000000000        0x0 /home/fx/Upwork/weather-node/output/libraries/FreeRTOS821/utility/tasks.c.o
 .text.prvTaskIsTaskSuspended
                0x0000000000000000       0x28 /home/fx/Upwork/weather-node/output/libraries/FreeRTOS821/utility/tasks.c.o
 .text.prvListTaskWithinSingleList
                0x0000000000000000       0x8c /home/fx/Upwork/weather-node/output/libraries/FreeRTOS821/utility/tasks.c.o
 .text.vTaskDelete
                0x0000000000000000       0xa0 /home/fx/Upwork/weather-node/output/libraries/FreeRTOS821/utility/tasks.c.o
 .text.uxTaskPriorityGet
                0x0000000000000000       0x1c /home/fx/Upwork/weather-node/output/libraries/FreeRTOS821/utility/tasks.c.o
 .text.uxTaskPriorityGetFromISR
                0x0000000000000000       0x1c /home/fx/Upwork/weather-node/output/libraries/FreeRTOS821/utility/tasks.c.o
 .text.vTaskPrioritySet
                0x0000000000000000       0xb8 /home/fx/Upwork/weather-node/output/libraries/FreeRTOS821/utility/tasks.c.o
 .text.vTaskResume
                0x0000000000000000       0x64 /home/fx/Upwork/weather-node/output/libraries/FreeRTOS821/utility/tasks.c.o
 .text.xTaskResumeFromISR
                0x0000000000000000       0x80 /home/fx/Upwork/weather-node/output/libraries/FreeRTOS821/utility/tasks.c.o
 .text.vTaskEndScheduler
                0x0000000000000000       0x18 /home/fx/Upwork/weather-node/output/libraries/FreeRTOS821/utility/tasks.c.o
 .text.xTaskGetTickCount
                0x0000000000000000        0xc /home/fx/Upwork/weather-node/output/libraries/FreeRTOS821/utility/tasks.c.o
 .text.xTaskGetTickCountFromISR
                0x0000000000000000        0xc /home/fx/Upwork/weather-node/output/libraries/FreeRTOS821/utility/tasks.c.o
 .text.uxTaskGetNumberOfTasks
                0x0000000000000000        0xc /home/fx/Upwork/weather-node/output/libraries/FreeRTOS821/utility/tasks.c.o
 .text.vTaskDelayUntil
                0x0000000000000000       0x78 /home/fx/Upwork/weather-node/output/libraries/FreeRTOS821/utility/tasks.c.o
 .text.uxTaskGetSystemState
                0x0000000000000000       0x9c /home/fx/Upwork/weather-node/output/libraries/FreeRTOS821/utility/tasks.c.o
 .text.vTaskSuspend
                0x0000000000000000       0xa8 /home/fx/Upwork/weather-node/output/libraries/FreeRTOS821/utility/tasks.c.o
 .text.vTaskPlaceOnEventList
                0x0000000000000000       0x5c /home/fx/Upwork/weather-node/output/libraries/FreeRTOS821/utility/tasks.c.o
 .text.vTaskPlaceOnUnorderedEventList
                0x0000000000000000       0x64 /home/fx/Upwork/weather-node/output/libraries/FreeRTOS821/utility/tasks.c.o
 .text.xTaskRemoveFromEventList
                0x0000000000000000       0x6c /home/fx/Upwork/weather-node/output/libraries/FreeRTOS821/utility/tasks.c.o
 .text.xTaskRemoveFromUnorderedEventList
                0x0000000000000000       0x5c /home/fx/Upwork/weather-node/output/libraries/FreeRTOS821/utility/tasks.c.o
 .text.vTaskSetTimeOutState
                0x0000000000000000       0x18 /home/fx/Upwork/weather-node/output/libraries/FreeRTOS821/utility/tasks.c.o
 .text.xTaskCheckForTimeOut
                0x0000000000000000       0x4c /home/fx/Upwork/weather-node/output/libraries/FreeRTOS821/utility/tasks.c.o
 .text.vTaskMissedYield
                0x0000000000000000        0xc /home/fx/Upwork/weather-node/output/libraries/FreeRTOS821/utility/tasks.c.o
 .text.uxTaskGetTaskNumber
                0x0000000000000000        0x6 /home/fx/Upwork/weather-node/output/libraries/FreeRTOS821/utility/tasks.c.o
 .text.vTaskSetTaskNumber
                0x0000000000000000        0x6 /home/fx/Upwork/weather-node/output/libraries/FreeRTOS821/utility/tasks.c.o
 .text.xTaskGetCurrentTaskHandle
                0x0000000000000000        0xc /home/fx/Upwork/weather-node/output/libraries/FreeRTOS821/utility/tasks.c.o
 .text.vTaskPriorityInherit
                0x0000000000000000       0x94 /home/fx/Upwork/weather-node/output/libraries/FreeRTOS821/utility/tasks.c.o
 .text.xTaskPriorityDisinherit
                0x0000000000000000       0x70 /home/fx/Upwork/weather-node/output/libraries/FreeRTOS821/utility/tasks.c.o
 .text.uxTaskResetEventItemValue
                0x0000000000000000       0x18 /home/fx/Upwork/weather-node/output/libraries/FreeRTOS821/utility/tasks.c.o
 .text.pvTaskIncrementMutexHeldCount
                0x0000000000000000       0x18 /home/fx/Upwork/weather-node/output/libraries/FreeRTOS821/utility/tasks.c.o
 .text.ulTaskNotifyTake
                0x0000000000000000       0x94 /home/fx/Upwork/weather-node/output/libraries/FreeRTOS821/utility/tasks.c.o
 .text.xTaskNotifyWait
                0x0000000000000000       0xb8 /home/fx/Upwork/weather-node/output/libraries/FreeRTOS821/utility/tasks.c.o
 .text.xTaskGenericNotify
                0x0000000000000000       0x98 /home/fx/Upwork/weather-node/output/libraries/FreeRTOS821/utility/tasks.c.o
 .text.xTaskNotifyFromISR
                0x0000000000000000       0xb4 /home/fx/Upwork/weather-node/output/libraries/FreeRTOS821/utility/tasks.c.o
 .text.vTaskNotifyGiveFromISR
                0x0000000000000000       0x84 /home/fx/Upwork/weather-node/output/libraries/FreeRTOS821/utility/tasks.c.o
 .text          0x0000000000000000        0x0 /home/fx/Upwork/weather-node/output/libraries/FreeRTOS821/utility/timers.c.o
 .data          0x0000000000000000        0x0 /home/fx/Upwork/weather-node/output/libraries/FreeRTOS821/utility/timers.c.o
 .bss           0x0000000000000000        0x0 /home/fx/Upwork/weather-node/output/libraries/FreeRTOS821/utility/timers.c.o
 .text          0x0000000000000000        0x0 /home/fx/Upwork/weather-node/output/libraries/DHT_sensor_library/DHT.cpp.o
 .data          0x0000000000000000        0x0 /home/fx/Upwork/weather-node/output/libraries/DHT_sensor_library/DHT.cpp.o
 .bss           0x0000000000000000        0x0 /home/fx/Upwork/weather-node/output/libraries/DHT_sensor_library/DHT.cpp.o
 .text._ZN3DHT11convertCtoFEf
                0x0000000000000000       0x30 /home/fx/Upwork/weather-node/output/libraries/DHT_sensor_library/DHT.cpp.o
 .text._ZN3DHT11convertFtoCEf
                0x0000000000000000       0x28 /home/fx/Upwork/weather-node/output/libraries/DHT_sensor_library/DHT.cpp.o
 .text._ZN3DHT16computeHeatIndexEffb
                0x0000000000000000      0x410 /home/fx/Upwork/weather-node/output/libraries/DHT_sensor_library/DHT.cpp.o
 .text._ZN3DHT16computeHeatIndexEb
                0x0000000000000000       0x26 /home/fx/Upwork/weather-node/output/libraries/DHT_sensor_library/DHT.cpp.o
 .group         0x0000000000000000        0x8 /home/fx/Upwork/weather-node/output/libraries/DHT_sensor_library/DHT_U.cpp.o
 .group         0x0000000000000000        0x8 /home/fx/Upwork/weather-node/output/libraries/DHT_sensor_library/DHT_U.cpp.o
 .group         0x0000000000000000        0x8 /home/fx/Upwork/weather-node/output/libraries/DHT_sensor_library/DHT_U.cpp.o
 .group         0x0000000000000000        0x8 /home/fx/Upwork/weather-node/output/libraries/DHT_sensor_library/DHT_U.cpp.o
 .group         0x0000000000000000        0x8 /home/fx/Upwork/weather-node/output/libraries/DHT_sensor_library/DHT_U.cpp.o
 .group         0x0000000000000000        0x8 /home/fx/Upwork/weather-node/output/libraries/DHT_sensor_library/DHT_U.cpp.o
 .group         0x0000000000000000        0x8 /home/fx/Upwork/weather-node/output/libraries/DHT_sensor_library/DHT_U.cpp.o
 .group         0x0000000000000000        0x8 /home/fx/Upwork/weather-node/output/libraries/DHT_sensor_library/DHT_U.cpp.o
 .text          0x0000000000000000        0x0 /home/fx/Upwork/weather-node/output/libraries/DHT_sensor_library/DHT_U.cpp.o
 .data          0x0000000000000000        0x0 /home/fx/Upwork/weather-node/output/libraries/DHT_sensor_library/DHT_U.cpp.o
 .bss           0x0000000000000000        0x0 /home/fx/Upwork/weather-node/output/libraries/DHT_sensor_library/DHT_U.cpp.o
 .text._ZN15Adafruit_SensorD2Ev
                0x0000000000000000        0xc /home/fx/Upwork/weather-node/output/libraries/DHT_sensor_library/DHT_U.cpp.o
 .text._ZN15Adafruit_Sensor15enableAutoRangeEb
                0x0000000000000000        0x2 /home/fx/Upwork/weather-node/output/libraries/DHT_sensor_library/DHT_U.cpp.o
 .text._ZN11DHT_Unified8HumidityD2Ev
                0x0000000000000000        0xc /home/fx/Upwork/weather-node/output/libraries/DHT_sensor_library/DHT_U.cpp.o
 .text._ZN11DHT_Unified11TemperatureD2Ev
                0x0000000000000000        0xc /home/fx/Upwork/weather-node/output/libraries/DHT_sensor_library/DHT_U.cpp.o
 .text._ZN15Adafruit_SensorD0Ev
                0x0000000000000000       0x14 /home/fx/Upwork/weather-node/output/libraries/DHT_sensor_library/DHT_U.cpp.o
 .text._ZN11DHT_Unified8HumidityD0Ev
                0x0000000000000000       0x14 /home/fx/Upwork/weather-node/output/libraries/DHT_sensor_library/DHT_U.cpp.o
 .text._ZN11DHT_Unified11TemperatureD0Ev
                0x0000000000000000       0x14 /home/fx/Upwork/weather-node/output/libraries/DHT_sensor_library/DHT_U.cpp.o
 .text._ZN11DHT_Unified11Temperature8getEventEP15sensors_event_t
                0x0000000000000000       0x38 /home/fx/Upwork/weather-node/output/libraries/DHT_sensor_library/DHT_U.cpp.o
 .text._ZN11DHT_Unified8Humidity8getEventEP15sensors_event_t
                0x0000000000000000       0x34 /home/fx/Upwork/weather-node/output/libraries/DHT_sensor_library/DHT_U.cpp.o
 .text._ZN11DHT_UnifiedC2Ehhhll
                0x0000000000000000       0x2c /home/fx/Upwork/weather-node/output/libraries/DHT_sensor_library/DHT_U.cpp.o
 .text._ZN11DHT_Unified5beginEv
                0x0000000000000000        0x6 /home/fx/Upwork/weather-node/output/libraries/DHT_sensor_library/DHT_U.cpp.o
 .text._ZN11DHT_Unified7setNameEP8sensor_t
                0x0000000000000000       0x50 /home/fx/Upwork/weather-node/output/libraries/DHT_sensor_library/DHT_U.cpp.o
 .text._ZN11DHT_Unified11setMinDelayEP8sensor_t
                0x0000000000000000       0x2c /home/fx/Upwork/weather-node/output/libraries/DHT_sensor_library/DHT_U.cpp.o
 .text._ZN11DHT_Unified11Temperature9getSensorEP8sensor_t
                0x0000000000000000       0x98 /home/fx/Upwork/weather-node/output/libraries/DHT_sensor_library/DHT_U.cpp.o
 .text._ZN11DHT_Unified8Humidity9getSensorEP8sensor_t
                0x0000000000000000       0x84 /home/fx/Upwork/weather-node/output/libraries/DHT_sensor_library/DHT_U.cpp.o
 .text._ZN11DHT_Unified11TemperatureC2EPS_l
                0x0000000000000000       0x10 /home/fx/Upwork/weather-node/output/libraries/DHT_sensor_library/DHT_U.cpp.o
 .text._ZN11DHT_Unified8HumidityC2EPS_l
                0x0000000000000000       0x10 /home/fx/Upwork/weather-node/output/libraries/DHT_sensor_library/DHT_U.cpp.o
 .rodata._ZTV15Adafruit_Sensor
                0x0000000000000000       0x20 /home/fx/Upwork/weather-node/output/libraries/DHT_sensor_library/DHT_U.cpp.o
 .rodata._ZTVN11DHT_Unified11TemperatureE
                0x0000000000000000       0x20 /home/fx/Upwork/weather-node/output/libraries/DHT_sensor_library/DHT_U.cpp.o
 .rodata.str1.1
                0x0000000000000000       0x1d /home/fx/Upwork/weather-node/output/libraries/DHT_sensor_library/DHT_U.cpp.o
 .rodata._ZTVN11DHT_Unified8HumidityE
                0x0000000000000000       0x20 /home/fx/Upwork/weather-node/output/libraries/DHT_sensor_library/DHT_U.cpp.o
 .text          0x0000000000000000        0x0 /home/fx/Upwork/weather-node/output/libraries/Adafruit_Unified_Sensor/Adafruit_Sensor.cpp.o
 .data          0x0000000000000000        0x0 /home/fx/Upwork/weather-node/output/libraries/Adafruit_Unified_Sensor/Adafruit_Sensor.cpp.o
 .bss           0x0000000000000000        0x0 /home/fx/Upwork/weather-node/output/libraries/Adafruit_Unified_Sensor/Adafruit_Sensor.cpp.o
 .text._ZN15Adafruit_Sensor18printSensorDetailsEv
                0x0000000000000000      0x19c /home/fx/Upwork/weather-node/output/libraries/Adafruit_Unified_Sensor/Adafruit_Sensor.cpp.o
 .rodata.str1.1
                0x0000000000000000      0x1bf /home/fx/Upwork/weather-node/output/libraries/Adafruit_Unified_Sensor/Adafruit_Sensor.cpp.o
 .text          0x0000000000000000        0x0 /home/fx/Upwork/weather-node/output/core/board.cpp.o
 .data          0x0000000000000000        0x0 /home/fx/Upwork/weather-node/output/core/board.cpp.o
 .bss           0x0000000000000000        0x0 /home/fx/Upwork/weather-node/output/core/board.cpp.o
 .USER_FLASH    0x0000000000000000       0x19 /home/fx/Upwork/weather-node/output/core/board.cpp.o
 .text          0x0000000000000000        0x0 /home/fx/Upwork/weather-node/output/core/wirish/boards.cpp.o
 .data          0x0000000000000000        0x0 /home/fx/Upwork/weather-node/output/core/wirish/boards.cpp.o
 .bss           0x0000000000000000        0x0 /home/fx/Upwork/weather-node/output/core/wirish/boards.cpp.o
 .text._Z9boardInitv
                0x0000000000000000        0x2 /home/fx/Upwork/weather-node/output/core/wirish/boards.cpp.o
 .text._Z12boardUsesPinh
                0x0000000000000000       0x1c /home/fx/Upwork/weather-node/output/core/wirish/boards.cpp.o
 .text          0x0000000000000000        0x0 /home/fx/Upwork/weather-node/output/core/wirish/boards_setup.cpp.o
 .data          0x0000000000000000        0x0 /home/fx/Upwork/weather-node/output/core/wirish/boards_setup.cpp.o
 .bss           0x0000000000000000        0x0 /home/fx/Upwork/weather-node/output/core/wirish/boards_setup.cpp.o
 .data          0x0000000000000000        0x0 /home/fx/Upwork/weather-node/output/core/wirish/start.S.o
 .bss           0x0000000000000000        0x0 /home/fx/Upwork/weather-node/output/core/wirish/start.S.o
 .ARM.extab     0x0000000000000000        0x0 /home/fx/Upwork/weather-node/output/core/wirish/start.S.o
 .text          0x0000000000000000        0x0 /home/fx/Upwork/weather-node/output/core/wirish/start_c.c.o
 .data          0x0000000000000000        0x0 /home/fx/Upwork/weather-node/output/core/wirish/start_c.c.o
 .bss           0x0000000000000000        0x0 /home/fx/Upwork/weather-node/output/core/wirish/start_c.c.o
 .text          0x0000000000000000        0x0 /home/fx/Upwork/weather-node/output/core/wirish/syscalls.c.o
 .data          0x0000000000000000        0x0 /home/fx/Upwork/weather-node/output/core/wirish/syscalls.c.o
 .bss           0x0000000000000000        0x0 /home/fx/Upwork/weather-node/output/core/wirish/syscalls.c.o
 .text._open    0x0000000000000000        0x8 /home/fx/Upwork/weather-node/output/core/wirish/syscalls.c.o
 .text._close   0x0000000000000000        0x4 /home/fx/Upwork/weather-node/output/core/wirish/syscalls.c.o
 .text._fstat   0x0000000000000000        0xa /home/fx/Upwork/weather-node/output/core/wirish/syscalls.c.o
 .text._isatty  0x0000000000000000        0x4 /home/fx/Upwork/weather-node/output/core/wirish/syscalls.c.o
 .text.isatty   0x0000000000000000        0x4 /home/fx/Upwork/weather-node/output/core/wirish/syscalls.c.o
 .text._lseek   0x0000000000000000        0x6 /home/fx/Upwork/weather-node/output/core/wirish/syscalls.c.o
 .text.getch    0x0000000000000000        0x4 /home/fx/Upwork/weather-node/output/core/wirish/syscalls.c.o
 .text._read    0x0000000000000000        0xe /home/fx/Upwork/weather-node/output/core/wirish/syscalls.c.o
 .text.putch    0x0000000000000000        0x2 /home/fx/Upwork/weather-node/output/core/wirish/syscalls.c.o
 .text.cgets    0x0000000000000000       0x78 /home/fx/Upwork/weather-node/output/core/wirish/syscalls.c.o
 .text._write   0x0000000000000000       0x1a /home/fx/Upwork/weather-node/output/core/wirish/syscalls.c.o
 .text.fgets    0x0000000000000000        0xc /home/fx/Upwork/weather-node/output/core/wirish/syscalls.c.o
 .text._exit    0x0000000000000000        0x2 /home/fx/Upwork/weather-node/output/core/wirish/syscalls.c.o
 .group         0x0000000000000000        0x8 /home/fx/Upwork/weather-node/output/core/core.a(HardwareSerial.cpp.o)
 .text          0x0000000000000000        0x0 /home/fx/Upwork/weather-node/output/core/core.a(HardwareSerial.cpp.o)
 .data          0x0000000000000000        0x0 /home/fx/Upwork/weather-node/output/core/core.a(HardwareSerial.cpp.o)
 .bss           0x0000000000000000        0x0 /home/fx/Upwork/weather-node/output/core/core.a(HardwareSerial.cpp.o)
 .text._ZN14HardwareSerial3endEv
                0x0000000000000000        0x6 /home/fx/Upwork/weather-node/output/core/core.a(HardwareSerial.cpp.o)
 .text._ZN14HardwareSerial17availableForWriteEv
                0x0000000000000000       0x12 /home/fx/Upwork/weather-node/output/core/core.a(HardwareSerial.cpp.o)
 .rodata._ZTV6Stream
                0x0000000000000000       0x28 /home/fx/Upwork/weather-node/output/core/core.a(HardwareSerial.cpp.o)
 .text          0x0000000000000000        0x0 /home/fx/Upwork/weather-node/output/core/core.a(Print.cpp.o)
 .data          0x0000000000000000        0x0 /home/fx/Upwork/weather-node/output/core/core.a(Print.cpp.o)
 .bss           0x0000000000000000        0x0 /home/fx/Upwork/weather-node/output/core/core.a(Print.cpp.o)
 .text._ZN5Print5printERK6String
                0x0000000000000000       0x10 /home/fx/Upwork/weather-node/output/core/core.a(Print.cpp.o)
 .text._ZN5Print5printEPK19__FlashStringHelper
                0x0000000000000000        0x4 /home/fx/Upwork/weather-node/output/core/core.a(Print.cpp.o)
 .text._ZN5Print5printERK9Printable
                0x0000000000000000       0x10 /home/fx/Upwork/weather-node/output/core/core.a(Print.cpp.o)
 .text._ZN5Print7printlnERK6String
                0x0000000000000000       0x14 /home/fx/Upwork/weather-node/output/core/core.a(Print.cpp.o)
 .text._ZN5Print7printlnEc
                0x0000000000000000       0x14 /home/fx/Upwork/weather-node/output/core/core.a(Print.cpp.o)
 .text._ZN5Print7printlnEPK19__FlashStringHelper
                0x0000000000000000       0x14 /home/fx/Upwork/weather-node/output/core/core.a(Print.cpp.o)
 .text._ZN5Print7printlnERK9Printable
                0x0000000000000000       0x14 /home/fx/Upwork/weather-node/output/core/core.a(Print.cpp.o)
 .text._ZN5Print11printNumberEyh
                0x0000000000000000       0x84 /home/fx/Upwork/weather-node/output/core/core.a(Print.cpp.o)
 .text._ZN5Print5printExi
                0x0000000000000000       0x32 /home/fx/Upwork/weather-node/output/core/core.a(Print.cpp.o)
 .text._ZN5Print5printEii
                0x0000000000000000       0x12 /home/fx/Upwork/weather-node/output/core/core.a(Print.cpp.o)
 .text._ZN5Print7printlnEii
                0x0000000000000000       0x14 /home/fx/Upwork/weather-node/output/core/core.a(Print.cpp.o)
 .text._ZN5Print5printEli
                0x0000000000000000       0x12 /home/fx/Upwork/weather-node/output/core/core.a(Print.cpp.o)
 .text._ZN5Print7printlnEli
                0x0000000000000000       0x1c /home/fx/Upwork/weather-node/output/core/core.a(Print.cpp.o)
 .text._ZN5Print7printlnExi
                0x0000000000000000       0x1a /home/fx/Upwork/weather-node/output/core/core.a(Print.cpp.o)
 .text._ZN5Print5printEyi
                0x0000000000000000        0xa /home/fx/Upwork/weather-node/output/core/core.a(Print.cpp.o)
 .text._ZN5Print5printEhi
                0x0000000000000000       0x14 /home/fx/Upwork/weather-node/output/core/core.a(Print.cpp.o)
 .text._ZN5Print7printlnEhi
                0x0000000000000000       0x14 /home/fx/Upwork/weather-node/output/core/core.a(Print.cpp.o)
 .text._ZN5Print5printEji
                0x0000000000000000       0x14 /home/fx/Upwork/weather-node/output/core/core.a(Print.cpp.o)
 .text._ZN5Print7printlnEji
                0x0000000000000000       0x14 /home/fx/Upwork/weather-node/output/core/core.a(Print.cpp.o)
 .text._ZN5Print5printEmi
                0x0000000000000000       0x14 /home/fx/Upwork/weather-node/output/core/core.a(Print.cpp.o)
 .text._ZN5Print7printlnEmi
                0x0000000000000000       0x1e /home/fx/Upwork/weather-node/output/core/core.a(Print.cpp.o)
 .text._ZN5Print7printlnEyi
                0x0000000000000000       0x1c /home/fx/Upwork/weather-node/output/core/core.a(Print.cpp.o)
 .text._ZN5Print10printFloatEdh
                0x0000000000000000      0x158 /home/fx/Upwork/weather-node/output/core/core.a(Print.cpp.o)
 .text._ZN5Print5printEdi
                0x0000000000000000        0xa /home/fx/Upwork/weather-node/output/core/core.a(Print.cpp.o)
 .text._ZN5Print7printlnEdi
                0x0000000000000000       0x1c /home/fx/Upwork/weather-node/output/core/core.a(Print.cpp.o)
 .rodata._ZTV5Print
                0x0000000000000000       0x18 /home/fx/Upwork/weather-node/output/core/core.a(Print.cpp.o)
 .rodata.str1.1
                0x0000000000000000       0x11 /home/fx/Upwork/weather-node/output/core/core.a(Print.cpp.o)
 .text          0x0000000000000000        0x0 /home/fx/Upwork/weather-node/output/core/core.a(cxxabi-compat.cpp.o)
 .data          0x0000000000000000        0x0 /home/fx/Upwork/weather-node/output/core/core.a(cxxabi-compat.cpp.o)
 .bss           0x0000000000000000        0x0 /home/fx/Upwork/weather-node/output/core/core.a(cxxabi-compat.cpp.o)
 .text.__cxa_pure_virtual
                0x0000000000000000        0x2 /home/fx/Upwork/weather-node/output/core/core.a(cxxabi-compat.cpp.o)
 .text.__cxa_demangle
                0x0000000000000000        0xc /home/fx/Upwork/weather-node/output/core/core.a(cxxabi-compat.cpp.o)
 .text          0x0000000000000000        0x0 /home/fx/Upwork/weather-node/output/core/core.a(adc.c.o)
 .data          0x0000000000000000        0x0 /home/fx/Upwork/weather-node/output/core/core.a(adc.c.o)
 .bss           0x0000000000000000        0x0 /home/fx/Upwork/weather-node/output/core/core.a(adc.c.o)
 .text.adc_read
                0x0000000000000000       0x20 /home/fx/Upwork/weather-node/output/core/core.a(adc.c.o)
 .text          0x0000000000000000        0x0 /home/fx/Upwork/weather-node/output/core/core.a(adc_f1.c.o)
 .data          0x0000000000000000        0x0 /home/fx/Upwork/weather-node/output/core/core.a(adc_f1.c.o)
 .bss           0x0000000000000000        0x0 /home/fx/Upwork/weather-node/output/core/core.a(adc_f1.c.o)
 .text.adc_enable_irq
                0x0000000000000000       0x30 /home/fx/Upwork/weather-node/output/core/core.a(adc_f1.c.o)
 .text.adc_attach_interrupt
                0x0000000000000000        0xa /home/fx/Upwork/weather-node/output/core/core.a(adc_f1.c.o)
 .text.adc_config_gpio
                0x0000000000000000        0xa /home/fx/Upwork/weather-node/output/core/core.a(adc_f1.c.o)
 .text          0x0000000000000000        0x0 /home/fx/Upwork/weather-node/output/core/core.a(dma_f1.c.o)
 .data          0x0000000000000000        0x0 /home/fx/Upwork/weather-node/output/core/core.a(dma_f1.c.o)
 .bss           0x0000000000000000        0x0 /home/fx/Upwork/weather-node/output/core/core.a(dma_f1.c.o)
 .text.dma_set_priority
                0x0000000000000000       0x3c /home/fx/Upwork/weather-node/output/core/core.a(dma_f1.c.o)
 .text.dma_set_num_transfers
                0x0000000000000000       0x34 /home/fx/Upwork/weather-node/output/core/core.a(dma_f1.c.o)
 .text.dma_attach_interrupt
                0x0000000000000000       0x40 /home/fx/Upwork/weather-node/output/core/core.a(dma_f1.c.o)
 .text.dma_detach_interrupt
                0x0000000000000000       0x60 /home/fx/Upwork/weather-node/output/core/core.a(dma_f1.c.o)
 .text.dma_enable
                0x0000000000000000       0x18 /home/fx/Upwork/weather-node/output/core/core.a(dma_f1.c.o)
 .text.dma_disable
                0x0000000000000000       0x18 /home/fx/Upwork/weather-node/output/core/core.a(dma_f1.c.o)
 .text.dma_tube_cfg
                0x0000000000000000      0x184 /home/fx/Upwork/weather-node/output/core/core.a(dma_f1.c.o)
 .text.dma_get_irq_cause
                0x0000000000000000       0x70 /home/fx/Upwork/weather-node/output/core/core.a(dma_f1.c.o)
 .text.dma_set_mem_addr
                0x0000000000000000       0x34 /home/fx/Upwork/weather-node/output/core/core.a(dma_f1.c.o)
 .text.dma_set_per_addr
                0x0000000000000000       0x34 /home/fx/Upwork/weather-node/output/core/core.a(dma_f1.c.o)
 .text.dma_setup_transfer
                0x0000000000000000       0x36 /home/fx/Upwork/weather-node/output/core/core.a(dma_f1.c.o)
 .rodata.str1.1
                0x0000000000000000       0xdc /home/fx/Upwork/weather-node/output/core/core.a(dma_f1.c.o)
 .bss.dma2Ch4_5
                0x0000000000000000        0x4 /home/fx/Upwork/weather-node/output/core/core.a(dma_f1.c.o)
 .data          0x0000000000000000        0x0 /home/fx/Upwork/weather-node/output/core/core.a(exc.S.o)
 .bss           0x0000000000000000        0x0 /home/fx/Upwork/weather-node/output/core/core.a(exc.S.o)
 .text          0x0000000000000000        0x0 /home/fx/Upwork/weather-node/output/core/core.a(exti.c.o)
 .data          0x0000000000000000        0x0 /home/fx/Upwork/weather-node/output/core/core.a(exti.c.o)
 .bss           0x0000000000000000        0x0 /home/fx/Upwork/weather-node/output/core/core.a(exti.c.o)
 .text.exti_attach_callback
                0x0000000000000000       0xd0 /home/fx/Upwork/weather-node/output/core/core.a(exti.c.o)
 .text.exti_attach_interrupt
                0x0000000000000000       0x10 /home/fx/Upwork/weather-node/output/core/core.a(exti.c.o)
 .text.exti_detach_interrupt
                0x0000000000000000       0x28 /home/fx/Upwork/weather-node/output/core/core.a(exti.c.o)
 .text.exti_do_select
                0x0000000000000000       0x1a /home/fx/Upwork/weather-node/output/core/core.a(exti.c.o)
 .rodata.str1.1
                0x0000000000000000       0x66 /home/fx/Upwork/weather-node/output/core/core.a(exti.c.o)
 .text          0x0000000000000000        0x0 /home/fx/Upwork/weather-node/output/core/core.a(exti_f1.c.o)
 .data          0x0000000000000000        0x0 /home/fx/Upwork/weather-node/output/core/core.a(exti_f1.c.o)
 .bss           0x0000000000000000        0x0 /home/fx/Upwork/weather-node/output/core/core.a(exti_f1.c.o)
 .text.exti_select
                0x0000000000000000       0x18 /home/fx/Upwork/weather-node/output/core/core.a(exti_f1.c.o)
 .text          0x0000000000000000        0x0 /home/fx/Upwork/weather-node/output/core/core.a(flash.c.o)
 .data          0x0000000000000000        0x0 /home/fx/Upwork/weather-node/output/core/core.a(flash.c.o)
 .bss           0x0000000000000000        0x0 /home/fx/Upwork/weather-node/output/core/core.a(flash.c.o)
 .text          0x0000000000000000        0x0 /home/fx/Upwork/weather-node/output/core/core.a(gpio_f1.c.o)
 .data          0x0000000000000000        0x0 /home/fx/Upwork/weather-node/output/core/core.a(gpio_f1.c.o)
 .bss           0x0000000000000000        0x0 /home/fx/Upwork/weather-node/output/core/core.a(gpio_f1.c.o)
 .text.gpio_get_mode
                0x0000000000000000       0x2a /home/fx/Upwork/weather-node/output/core/core.a(gpio_f1.c.o)
 .text.afio_remap
                0x0000000000000000       0x20 /home/fx/Upwork/weather-node/output/core/core.a(gpio_f1.c.o)
 .text.afio_is_remapped
                0x0000000000000000       0x20 /home/fx/Upwork/weather-node/output/core/core.a(gpio_f1.c.o)
 .rodata.GPIOA  0x0000000000000000        0x4 /home/fx/Upwork/weather-node/output/core/core.a(gpio_f1.c.o)
 .rodata.GPIOB  0x0000000000000000        0x4 /home/fx/Upwork/weather-node/output/core/core.a(gpio_f1.c.o)
 .rodata.GPIOD  0x0000000000000000        0x4 /home/fx/Upwork/weather-node/output/core/core.a(gpio_f1.c.o)
 .text          0x0000000000000000        0x0 /home/fx/Upwork/weather-node/output/core/core.a(i2c_f1.c.o)
 .data          0x0000000000000000        0x0 /home/fx/Upwork/weather-node/output/core/core.a(i2c_f1.c.o)
 .bss           0x0000000000000000        0x0 /home/fx/Upwork/weather-node/output/core/core.a(i2c_f1.c.o)
 .text.i2c_config_gpios
                0x0000000000000000       0x58 /home/fx/Upwork/weather-node/output/core/core.a(i2c_f1.c.o)
 .text.i2c_master_release_bus
                0x0000000000000000       0x4c /home/fx/Upwork/weather-node/output/core/core.a(i2c_f1.c.o)
 .text._i2c_irq_priority_fixup
                0x0000000000000000        0xa /home/fx/Upwork/weather-node/output/core/core.a(i2c_f1.c.o)
 .rodata.I2C1   0x0000000000000000        0x4 /home/fx/Upwork/weather-node/output/core/core.a(i2c_f1.c.o)
 .rodata.I2C2   0x0000000000000000        0x4 /home/fx/Upwork/weather-node/output/core/core.a(i2c_f1.c.o)
 .text          0x0000000000000000        0x0 /home/fx/Upwork/weather-node/output/core/core.a(nvic.c.o)
 .data          0x0000000000000000        0x0 /home/fx/Upwork/weather-node/output/core/core.a(nvic.c.o)
 .bss           0x0000000000000000        0x0 /home/fx/Upwork/weather-node/output/core/core.a(nvic.c.o)
 .text.nvic_set_vector_table
                0x0000000000000000       0x14 /home/fx/Upwork/weather-node/output/core/core.a(nvic.c.o)
 .text          0x0000000000000000        0x0 /home/fx/Upwork/weather-node/output/core/core.a(rcc.c.o)
 .data          0x0000000000000000        0x0 /home/fx/Upwork/weather-node/output/core/core.a(rcc.c.o)
 .bss           0x0000000000000000        0x0 /home/fx/Upwork/weather-node/output/core/core.a(rcc.c.o)
 .text          0x0000000000000000        0x0 /home/fx/Upwork/weather-node/output/core/core.a(rcc_f1.c.o)
 .data          0x0000000000000000        0x0 /home/fx/Upwork/weather-node/output/core/core.a(rcc_f1.c.o)
 .bss           0x0000000000000000        0x0 /home/fx/Upwork/weather-node/output/core/core.a(rcc_f1.c.o)
 .text.rcc_clk_init
                0x0000000000000000       0x5c /home/fx/Upwork/weather-node/output/core/core.a(rcc_f1.c.o)
 .data          0x0000000000000000        0x0 /home/fx/Upwork/weather-node/output/core/core.a(isrs.S.o)
 .bss           0x0000000000000000        0x0 /home/fx/Upwork/weather-node/output/core/core.a(isrs.S.o)
 .text          0x0000000000000000        0x0 /home/fx/Upwork/weather-node/output/core/core.a(vector_table.S.o)
 .data          0x0000000000000000        0x0 /home/fx/Upwork/weather-node/output/core/core.a(vector_table.S.o)
 .bss           0x0000000000000000        0x0 /home/fx/Upwork/weather-node/output/core/core.a(vector_table.S.o)
 .text          0x0000000000000000        0x0 /home/fx/Upwork/weather-node/output/core/core.a(systick.c.o)
 .data          0x0000000000000000        0x0 /home/fx/Upwork/weather-node/output/core/core.a(systick.c.o)
 .bss           0x0000000000000000        0x0 /home/fx/Upwork/weather-node/output/core/core.a(systick.c.o)
 .text.systick_disable
                0x0000000000000000        0xc /home/fx/Upwork/weather-node/output/core/core.a(systick.c.o)
 .text.systick_enable
                0x0000000000000000        0xc /home/fx/Upwork/weather-node/output/core/core.a(systick.c.o)
 .text          0x0000000000000000        0x0 /home/fx/Upwork/weather-node/output/core/core.a(timer.c.o)
 .data          0x0000000000000000        0x0 /home/fx/Upwork/weather-node/output/core/core.a(timer.c.o)
 .bss           0x0000000000000000        0x0 /home/fx/Upwork/weather-node/output/core/core.a(timer.c.o)
 .text.timer_disable
                0x0000000000000000       0x12 /home/fx/Upwork/weather-node/output/core/core.a(timer.c.o)
 .text.timer_attach_interrupt
                0x0000000000000000      0x100 /home/fx/Upwork/weather-node/output/core/core.a(timer.c.o)
 .text.get_direction
                0x0000000000000000        0xe /home/fx/Upwork/weather-node/output/core/core.a(timer.c.o)
 .rodata.TIMER1
                0x0000000000000000        0x4 /home/fx/Upwork/weather-node/output/core/core.a(timer.c.o)
 .rodata.TIMER2
                0x0000000000000000        0x4 /home/fx/Upwork/weather-node/output/core/core.a(timer.c.o)
 .rodata.TIMER3
                0x0000000000000000        0x4 /home/fx/Upwork/weather-node/output/core/core.a(timer.c.o)
 .rodata.TIMER4
                0x0000000000000000        0x4 /home/fx/Upwork/weather-node/output/core/core.a(timer.c.o)
 .text          0x0000000000000000        0x0 /home/fx/Upwork/weather-node/output/core/core.a(usart.c.o)
 .data          0x0000000000000000        0x0 /home/fx/Upwork/weather-node/output/core/core.a(usart.c.o)
 .bss           0x0000000000000000        0x0 /home/fx/Upwork/weather-node/output/core/core.a(usart.c.o)
 .text.usart_disable
                0x0000000000000000       0x38 /home/fx/Upwork/weather-node/output/core/core.a(usart.c.o)
 .text.usart_rx
                0x0000000000000000       0x58 /home/fx/Upwork/weather-node/output/core/core.a(usart.c.o)
 .text          0x0000000000000000        0x0 /home/fx/Upwork/weather-node/output/core/core.a(usart_f1.c.o)
 .data          0x0000000000000000        0x0 /home/fx/Upwork/weather-node/output/core/core.a(usart_f1.c.o)
 .bss           0x0000000000000000        0x0 /home/fx/Upwork/weather-node/output/core/core.a(usart_f1.c.o)
 .text.usart_foreach
                0x0000000000000000       0x24 /home/fx/Upwork/weather-node/output/core/core.a(usart_f1.c.o)
 .text          0x0000000000000000        0x0 /home/fx/Upwork/weather-node/output/core/core.a(usart_private.c.o)
 .data          0x0000000000000000        0x0 /home/fx/Upwork/weather-node/output/core/core.a(usart_private.c.o)
 .bss           0x0000000000000000        0x0 /home/fx/Upwork/weather-node/output/core/core.a(usart_private.c.o)
 .text          0x0000000000000000        0x0 /home/fx/Upwork/weather-node/output/core/core.a(usb.c.o)
 .data          0x0000000000000000        0x0 /home/fx/Upwork/weather-node/output/core/core.a(usb.c.o)
 .bss           0x0000000000000000        0x0 /home/fx/Upwork/weather-node/output/core/core.a(usb.c.o)
 .text.usb_power_off
                0x0000000000000000       0x14 /home/fx/Upwork/weather-node/output/core/core.a(usb.c.o)
 .text          0x0000000000000000        0x0 /home/fx/Upwork/weather-node/output/core/core.a(usb_cdcacm.c.o)
 .data          0x0000000000000000        0x0 /home/fx/Upwork/weather-node/output/core/core.a(usb_cdcacm.c.o)
 .bss           0x0000000000000000        0x0 /home/fx/Upwork/weather-node/output/core/core.a(usb_cdcacm.c.o)
 .text.usb_cdcacm_disable
                0x0000000000000000       0x20 /home/fx/Upwork/weather-node/output/core/core.a(usb_cdcacm.c.o)
 .text.usb_cdcacm_putc
                0x0000000000000000       0x1a /home/fx/Upwork/weather-node/output/core/core.a(usb_cdcacm.c.o)
 .text.usb_cdcacm_is_transmitting
                0x0000000000000000       0x14 /home/fx/Upwork/weather-node/output/core/core.a(usb_cdcacm.c.o)
 .text.usb_cdcacm_get_pending
                0x0000000000000000       0x18 /home/fx/Upwork/weather-node/output/core/core.a(usb_cdcacm.c.o)
 .text.usb_cdcacm_tx_available
                0x0000000000000000        0xc /home/fx/Upwork/weather-node/output/core/core.a(usb_cdcacm.c.o)
 .text.usb_cdcacm_peek_char
                0x0000000000000000       0x24 /home/fx/Upwork/weather-node/output/core/core.a(usb_cdcacm.c.o)
 .text.usb_cdcacm_get_rts
                0x0000000000000000       0x10 /home/fx/Upwork/weather-node/output/core/core.a(usb_cdcacm.c.o)
 .text.usb_cdcacm_get_line_coding
                0x0000000000000000       0x18 /home/fx/Upwork/weather-node/output/core/core.a(usb_cdcacm.c.o)
 .text.usb_cdcacm_get_baud
                0x0000000000000000        0xc /home/fx/Upwork/weather-node/output/core/core.a(usb_cdcacm.c.o)
 .text.usb_cdcacm_get_stop_bits
                0x0000000000000000        0xc /home/fx/Upwork/weather-node/output/core/core.a(usb_cdcacm.c.o)
 .text.usb_cdcacm_get_parity
                0x0000000000000000        0xc /home/fx/Upwork/weather-node/output/core/core.a(usb_cdcacm.c.o)
 .text.usb_cdcacm_get_n_data_bits
                0x0000000000000000        0xc /home/fx/Upwork/weather-node/output/core/core.a(usb_cdcacm.c.o)
 .text          0x0000000000000000        0x0 /home/fx/Upwork/weather-node/output/core/core.a(usb_reg_map.c.o)
 .data          0x0000000000000000        0x0 /home/fx/Upwork/weather-node/output/core/core.a(usb_reg_map.c.o)
 .bss           0x0000000000000000        0x0 /home/fx/Upwork/weather-node/output/core/core.a(usb_reg_map.c.o)
 .text          0x0000000000000000        0x0 /home/fx/Upwork/weather-node/output/core/core.a(usb_core.c.o)
 .data          0x0000000000000000        0x0 /home/fx/Upwork/weather-node/output/core/core.a(usb_core.c.o)
 .bss           0x0000000000000000        0x0 /home/fx/Upwork/weather-node/output/core/core.a(usb_core.c.o)
 .text          0x0000000000000000        0x0 /home/fx/Upwork/weather-node/output/core/core.a(usb_init.c.o)
 .data          0x0000000000000000        0x0 /home/fx/Upwork/weather-node/output/core/core.a(usb_init.c.o)
 .bss           0x0000000000000000        0x0 /home/fx/Upwork/weather-node/output/core/core.a(usb_init.c.o)
 .text.USB_Init
                0x0000000000000000       0x38 /home/fx/Upwork/weather-node/output/core/core.a(usb_init.c.o)
 .text          0x0000000000000000        0x0 /home/fx/Upwork/weather-node/output/core/core.a(usb_mem.c.o)
 .data          0x0000000000000000        0x0 /home/fx/Upwork/weather-node/output/core/core.a(usb_mem.c.o)
 .bss           0x0000000000000000        0x0 /home/fx/Upwork/weather-node/output/core/core.a(usb_mem.c.o)
 .text          0x0000000000000000        0x0 /home/fx/Upwork/weather-node/output/core/core.a(usb_regs.c.o)
 .data          0x0000000000000000        0x0 /home/fx/Upwork/weather-node/output/core/core.a(usb_regs.c.o)
 .bss           0x0000000000000000        0x0 /home/fx/Upwork/weather-node/output/core/core.a(usb_regs.c.o)
 .text.SetCNTR  0x0000000000000000        0xc /home/fx/Upwork/weather-node/output/core/core.a(usb_regs.c.o)
 .text.GetCNTR  0x0000000000000000        0xc /home/fx/Upwork/weather-node/output/core/core.a(usb_regs.c.o)
 .text.SetISTR  0x0000000000000000        0xc /home/fx/Upwork/weather-node/output/core/core.a(usb_regs.c.o)
 .text.GetISTR  0x0000000000000000        0xc /home/fx/Upwork/weather-node/output/core/core.a(usb_regs.c.o)
 .text.GetFNR   0x0000000000000000        0xc /home/fx/Upwork/weather-node/output/core/core.a(usb_regs.c.o)
 .text.SetDADDR
                0x0000000000000000        0xc /home/fx/Upwork/weather-node/output/core/core.a(usb_regs.c.o)
 .text.GetDADDR
                0x0000000000000000        0xc /home/fx/Upwork/weather-node/output/core/core.a(usb_regs.c.o)
 .text.SetBTABLE
                0x0000000000000000       0x10 /home/fx/Upwork/weather-node/output/core/core.a(usb_regs.c.o)
 .text.GetBTABLE
                0x0000000000000000        0xc /home/fx/Upwork/weather-node/output/core/core.a(usb_regs.c.o)
 .text.SetENDPOINT
                0x0000000000000000        0xe /home/fx/Upwork/weather-node/output/core/core.a(usb_regs.c.o)
 .text.GetENDPOINT
                0x0000000000000000       0x10 /home/fx/Upwork/weather-node/output/core/core.a(usb_regs.c.o)
 .text.SetEPType
                0x0000000000000000       0x1c /home/fx/Upwork/weather-node/output/core/core.a(usb_regs.c.o)
 .text.GetEPType
                0x0000000000000000       0x12 /home/fx/Upwork/weather-node/output/core/core.a(usb_regs.c.o)
 .text.SetEPRxStatus
                0x0000000000000000       0x2a /home/fx/Upwork/weather-node/output/core/core.a(usb_regs.c.o)
 .text.SetDouBleBuffEPStall
                0x0000000000000000       0x24 /home/fx/Upwork/weather-node/output/core/core.a(usb_regs.c.o)
 .text.GetEPTxStatus
                0x0000000000000000       0x12 /home/fx/Upwork/weather-node/output/core/core.a(usb_regs.c.o)
 .text.GetEPRxStatus
                0x0000000000000000       0x12 /home/fx/Upwork/weather-node/output/core/core.a(usb_regs.c.o)
 .text.SetEPTxValid
                0x0000000000000000       0x1e /home/fx/Upwork/weather-node/output/core/core.a(usb_regs.c.o)
 .text.SetEPRxValid
                0x0000000000000000       0x1e /home/fx/Upwork/weather-node/output/core/core.a(usb_regs.c.o)
 .text.SetEP_KIND
                0x0000000000000000       0x1e /home/fx/Upwork/weather-node/output/core/core.a(usb_regs.c.o)
 .text.ClearEP_KIND
                0x0000000000000000       0x1c /home/fx/Upwork/weather-node/output/core/core.a(usb_regs.c.o)
 .text.Clear_Status_Out
                0x0000000000000000       0x1c /home/fx/Upwork/weather-node/output/core/core.a(usb_regs.c.o)
 .text.Set_Status_Out
                0x0000000000000000       0x1e /home/fx/Upwork/weather-node/output/core/core.a(usb_regs.c.o)
 .text.SetEPDoubleBuff
                0x0000000000000000       0x1e /home/fx/Upwork/weather-node/output/core/core.a(usb_regs.c.o)
 .text.ClearEPDoubleBuff
                0x0000000000000000       0x1c /home/fx/Upwork/weather-node/output/core/core.a(usb_regs.c.o)
 .text.GetTxStallStatus
                0x0000000000000000       0x1a /home/fx/Upwork/weather-node/output/core/core.a(usb_regs.c.o)
 .text.GetRxStallStatus
                0x0000000000000000       0x1a /home/fx/Upwork/weather-node/output/core/core.a(usb_regs.c.o)
 .text.ClearEP_CTR_RX
                0x0000000000000000       0x18 /home/fx/Upwork/weather-node/output/core/core.a(usb_regs.c.o)
 .text.ClearEP_CTR_TX
                0x0000000000000000       0x1c /home/fx/Upwork/weather-node/output/core/core.a(usb_regs.c.o)
 .text.ToggleDTOG_RX
                0x0000000000000000       0x20 /home/fx/Upwork/weather-node/output/core/core.a(usb_regs.c.o)
 .text.ToggleDTOG_TX
                0x0000000000000000       0x20 /home/fx/Upwork/weather-node/output/core/core.a(usb_regs.c.o)
 .text.SetEPAddress
                0x0000000000000000       0x1e /home/fx/Upwork/weather-node/output/core/core.a(usb_regs.c.o)
 .text.GetEPAddress
                0x0000000000000000       0x12 /home/fx/Upwork/weather-node/output/core/core.a(usb_regs.c.o)
 .text.SetEPTxAddr
                0x0000000000000000       0x20 /home/fx/Upwork/weather-node/output/core/core.a(usb_regs.c.o)
 .text.SetEPRxAddr
                0x0000000000000000       0x20 /home/fx/Upwork/weather-node/output/core/core.a(usb_regs.c.o)
 .text.SetEPCountRxReg
                0x0000000000000000       0x26 /home/fx/Upwork/weather-node/output/core/core.a(usb_regs.c.o)
 .text.GetEPTxCount
                0x0000000000000000       0x20 /home/fx/Upwork/weather-node/output/core/core.a(usb_regs.c.o)
 .text.GetEPRxCount
                0x0000000000000000       0x20 /home/fx/Upwork/weather-node/output/core/core.a(usb_regs.c.o)
 .text.SetEPDblBuffAddr
                0x0000000000000000       0x38 /home/fx/Upwork/weather-node/output/core/core.a(usb_regs.c.o)
 .text.SetEPDblBuf0Addr
                0x0000000000000000       0x20 /home/fx/Upwork/weather-node/output/core/core.a(usb_regs.c.o)
 .text.SetEPDblBuf1Addr
                0x0000000000000000       0x20 /home/fx/Upwork/weather-node/output/core/core.a(usb_regs.c.o)
 .text.GetEPDblBuf0Addr
                0x0000000000000000       0x1c /home/fx/Upwork/weather-node/output/core/core.a(usb_regs.c.o)
 .text.GetEPDblBuf1Addr
                0x0000000000000000       0x1c /home/fx/Upwork/weather-node/output/core/core.a(usb_regs.c.o)
 .text.SetEPDblBuffCount
                0x0000000000000000       0xa8 /home/fx/Upwork/weather-node/output/core/core.a(usb_regs.c.o)
 .text.SetEPDblBuf0Count
                0x0000000000000000       0x5c /home/fx/Upwork/weather-node/output/core/core.a(usb_regs.c.o)
 .text.SetEPDblBuf1Count
                0x0000000000000000       0x5c /home/fx/Upwork/weather-node/output/core/core.a(usb_regs.c.o)
 .text.GetEPDblBuf0Count
                0x0000000000000000       0x20 /home/fx/Upwork/weather-node/output/core/core.a(usb_regs.c.o)
 .text.GetEPDblBuf1Count
                0x0000000000000000       0x20 /home/fx/Upwork/weather-node/output/core/core.a(usb_regs.c.o)
 .text.GetEPDblBufDir
                0x0000000000000000       0x44 /home/fx/Upwork/weather-node/output/core/core.a(usb_regs.c.o)
 .text.FreeUserBuffer
                0x0000000000000000       0x3a /home/fx/Upwork/weather-node/output/core/core.a(usb_regs.c.o)
 .text.ToWord   0x0000000000000000        0x6 /home/fx/Upwork/weather-node/output/core/core.a(usb_regs.c.o)
 .text.ByteSwap
                0x0000000000000000        0xa /home/fx/Upwork/weather-node/output/core/core.a(usb_regs.c.o)
 .text          0x0000000000000000        0x0 /home/fx/Upwork/weather-node/output/core/core.a(util.c.o)
 .data          0x0000000000000000        0x0 /home/fx/Upwork/weather-node/output/core/core.a(util.c.o)
 .bss           0x0000000000000000        0x0 /home/fx/Upwork/weather-node/output/core/core.a(util.c.o)
 .text.__assert_func
                0x0000000000000000        0x8 /home/fx/Upwork/weather-node/output/core/core.a(util.c.o)
 .text.abort    0x0000000000000000       0x1c /home/fx/Upwork/weather-node/output/core/core.a(util.c.o)
 .text          0x0000000000000000        0x0 /home/fx/Upwork/weather-node/output/core/core.a(main.cpp.o)
 .data          0x0000000000000000        0x0 /home/fx/Upwork/weather-node/output/core/core.a(main.cpp.o)
 .bss           0x0000000000000000        0x0 /home/fx/Upwork/weather-node/output/core/core.a(main.cpp.o)
 .text          0x0000000000000000        0x0 /home/fx/Upwork/weather-node/output/core/core.a(new.cpp.o)
 .data          0x0000000000000000        0x0 /home/fx/Upwork/weather-node/output/core/core.a(new.cpp.o)
 .bss           0x0000000000000000        0x0 /home/fx/Upwork/weather-node/output/core/core.a(new.cpp.o)
 .text._Znwj    0x0000000000000000        0x4 /home/fx/Upwork/weather-node/output/core/core.a(new.cpp.o)
 .text._Znaj    0x0000000000000000        0x4 /home/fx/Upwork/weather-node/output/core/core.a(new.cpp.o)
 .text._ZdlPv   0x0000000000000000        0x4 /home/fx/Upwork/weather-node/output/core/core.a(new.cpp.o)
 .text._ZdaPv   0x0000000000000000        0x4 /home/fx/Upwork/weather-node/output/core/core.a(new.cpp.o)
 .text          0x0000000000000000        0x0 /home/fx/Upwork/weather-node/output/core/core.a(wirish_digital_f1.cpp.o)
 .data          0x0000000000000000        0x0 /home/fx/Upwork/weather-node/output/core/core.a(wirish_digital_f1.cpp.o)
 .bss           0x0000000000000000        0x0 /home/fx/Upwork/weather-node/output/core/core.a(wirish_digital_f1.cpp.o)
 .group         0x0000000000000000        0x8 /home/fx/Upwork/weather-node/output/core/core.a(usb_serial.cpp.o)
 .text          0x0000000000000000        0x0 /home/fx/Upwork/weather-node/output/core/core.a(usb_serial.cpp.o)
 .data          0x0000000000000000        0x0 /home/fx/Upwork/weather-node/output/core/core.a(usb_serial.cpp.o)
 .bss           0x0000000000000000        0x0 /home/fx/Upwork/weather-node/output/core/core.a(usb_serial.cpp.o)
 .text._ZN9USBSerial5beginEmh
                0x0000000000000000       0x18 /home/fx/Upwork/weather-node/output/core/core.a(usb_serial.cpp.o)
 .text._ZN9USBSerial3endEv
                0x0000000000000000       0x20 /home/fx/Upwork/weather-node/output/core/core.a(usb_serial.cpp.o)
 .text._ZN9USBSerial17availableForWriteEv
                0x0000000000000000        0x4 /home/fx/Upwork/weather-node/output/core/core.a(usb_serial.cpp.o)
 .text._ZN9USBSerial9readBytesEPcRKj
                0x0000000000000000       0x40 /home/fx/Upwork/weather-node/output/core/core.a(usb_serial.cpp.o)
 .text._ZN9USBSerial7pendingEv
                0x0000000000000000        0xa /home/fx/Upwork/weather-node/output/core/core.a(usb_serial.cpp.o)
 .text._ZN9USBSerial6getDTREv
                0x0000000000000000        0x4 /home/fx/Upwork/weather-node/output/core/core.a(usb_serial.cpp.o)
 .text._ZN9USBSerial6getRTSEv
                0x0000000000000000        0x4 /home/fx/Upwork/weather-node/output/core/core.a(usb_serial.cpp.o)
 .text._ZN9USBSerialcvbEv
                0x0000000000000000       0x20 /home/fx/Upwork/weather-node/output/core/core.a(usb_serial.cpp.o)
 .text._ZN9USBSerial16enableBlockingTxEv
                0x0000000000000000        0xc /home/fx/Upwork/weather-node/output/core/core.a(usb_serial.cpp.o)
 .text._ZN9USBSerial17disableBlockingTxEv
                0x0000000000000000        0xc /home/fx/Upwork/weather-node/output/core/core.a(usb_serial.cpp.o)
 .rodata._ZTV6Stream
                0x0000000000000000       0x28 /home/fx/Upwork/weather-node/output/core/core.a(usb_serial.cpp.o)
 .text          0x0000000000000000        0x0 /home/fx/Upwork/weather-node/output/core/core.a(wirish_digital.cpp.o)
 .data          0x0000000000000000        0x0 /home/fx/Upwork/weather-node/output/core/core.a(wirish_digital.cpp.o)
 .bss           0x0000000000000000        0x0 /home/fx/Upwork/weather-node/output/core/core.a(wirish_digital.cpp.o)
 .text          0x0000000000000000        0x0 /home/fx/Upwork/weather-node/output/core/core.a(wirish_time.cpp.o)
 .data          0x0000000000000000        0x0 /home/fx/Upwork/weather-node/output/core/core.a(wirish_time.cpp.o)
 .bss           0x0000000000000000        0x0 /home/fx/Upwork/weather-node/output/core/core.a(wirish_time.cpp.o)
 .text          0x0000000000000000        0x0 /home/fx/Upwork/weather-node/output/core/core.a(hooks.c.o)
 .data          0x0000000000000000        0x0 /home/fx/Upwork/weather-node/output/core/core.a(hooks.c.o)
 .bss           0x0000000000000000        0x0 /home/fx/Upwork/weather-node/output/core/core.a(hooks.c.o)
 .text          0x0000000000000000        0x0 /home/fx/Upwork/weather-node/output/core/core.a(bkp_f1.c.o)
 .data          0x0000000000000000        0x0 /home/fx/Upwork/weather-node/output/core/core.a(bkp_f1.c.o)
 .bss           0x0000000000000000        0x0 /home/fx/Upwork/weather-node/output/core/core.a(bkp_f1.c.o)
 .text.bkp_read
                0x0000000000000000       0x30 /home/fx/Upwork/weather-node/output/core/core.a(bkp_f1.c.o)
 .data.bkp      0x0000000000000000        0x4 /home/fx/Upwork/weather-node/output/core/core.a(bkp_f1.c.o)
 .data.BKP      0x0000000000000000        0x4 /home/fx/Upwork/weather-node/output/core/core.a(bkp_f1.c.o)
 .text          0x0000000000000000        0x0 /home/fx/Upwork/weather-node/output/core/core.a(dma.c.o)
 .data          0x0000000000000000        0x0 /home/fx/Upwork/weather-node/output/core/core.a(dma.c.o)
 .bss           0x0000000000000000        0x0 /home/fx/Upwork/weather-node/output/core/core.a(dma.c.o)
 .text.dma_init
                0x0000000000000000        0x6 /home/fx/Upwork/weather-node/output/core/core.a(dma.c.o)
 .text._dma_addr_type
                0x0000000000000000       0x38 /home/fx/Upwork/weather-node/output/core/core.a(dma.c.o)
 .rodata.str1.1
                0x0000000000000000       0x5f /home/fx/Upwork/weather-node/output/core/core.a(dma.c.o)
 .text          0x0000000000000000        0x0 /home/fx/Upwork/weather-node/output/core/core.a(gpio.c.o)
 .data          0x0000000000000000        0x0 /home/fx/Upwork/weather-node/output/core/core.a(gpio.c.o)
 .bss           0x0000000000000000        0x0 /home/fx/Upwork/weather-node/output/core/core.a(gpio.c.o)
 .text          0x0000000000000000        0x0 /home/fx/Upwork/weather-node/output/core/core.a(i2c.c.o)
 .data          0x0000000000000000        0x0 /home/fx/Upwork/weather-node/output/core/core.a(i2c.c.o)
 .bss           0x0000000000000000        0x0 /home/fx/Upwork/weather-node/output/core/core.a(i2c.c.o)
 .text.nvic_irq_enable
                0x0000000000000000       0x1c /home/fx/Upwork/weather-node/output/core/core.a(i2c.c.o)
 .text.delay_us.part.0.constprop.6
                0x0000000000000000        0xa /home/fx/Upwork/weather-node/output/core/core.a(i2c.c.o)
 .text.i2c_bus_reset
                0x0000000000000000       0xc2 /home/fx/Upwork/weather-node/output/core/core.a(i2c.c.o)
 .text.i2c_init
                0x0000000000000000       0x1e /home/fx/Upwork/weather-node/output/core/core.a(i2c.c.o)
 .text.wait_for_state_change
                0x0000000000000000       0x98 /home/fx/Upwork/weather-node/output/core/core.a(i2c.c.o)
 .text.i2c_master_xfer
                0x0000000000000000       0xf0 /home/fx/Upwork/weather-node/output/core/core.a(i2c.c.o)
 .text.i2c_set_ccr_trise
                0x0000000000000000       0x54 /home/fx/Upwork/weather-node/output/core/core.a(i2c.c.o)
 .text.i2c_master_enable
                0x0000000000000000      0x1b4 /home/fx/Upwork/weather-node/output/core/core.a(i2c.c.o)
 .text.i2c_slave_enable
                0x0000000000000000        0x8 /home/fx/Upwork/weather-node/output/core/core.a(i2c.c.o)
 .text.i2c_slave_attach_recv_handler
                0x0000000000000000        0xa /home/fx/Upwork/weather-node/output/core/core.a(i2c.c.o)
 .text.i2c_slave_attach_transmit_handler
                0x0000000000000000        0xa /home/fx/Upwork/weather-node/output/core/core.a(i2c.c.o)
 .rodata.str1.1
                0x0000000000000000       0x7a /home/fx/Upwork/weather-node/output/core/core.a(i2c.c.o)
 .text          0x0000000000000000        0x0 /home/fx/.arduino15/packages/arduino/tools/arm-none-eabi-gcc/4.8.3-2014q1/bin/../lib/gcc/arm-none-eabi/4.8.3/../../../../arm-none-eabi/lib/armv7-m/libm.a(lib_a-w_sqrt.o)
 .data          0x0000000000000000        0x0 /home/fx/.arduino15/packages/arduino/tools/arm-none-eabi-gcc/4.8.3-2014q1/bin/../lib/gcc/arm-none-eabi/4.8.3/../../../../arm-none-eabi/lib/armv7-m/libm.a(lib_a-w_sqrt.o)
 .bss           0x0000000000000000        0x0 /home/fx/.arduino15/packages/arduino/tools/arm-none-eabi-gcc/4.8.3-2014q1/bin/../lib/gcc/arm-none-eabi/4.8.3/../../../../arm-none-eabi/lib/armv7-m/libm.a(lib_a-w_sqrt.o)
 .text.sqrt     0x0000000000000000       0xac /home/fx/.arduino15/packages/arduino/tools/arm-none-eabi-gcc/4.8.3-2014q1/bin/../lib/gcc/arm-none-eabi/4.8.3/../../../../arm-none-eabi/lib/armv7-m/libm.a(lib_a-w_sqrt.o)
 .rodata.str1.4
                0x0000000000000000        0x8 /home/fx/.arduino15/packages/arduino/tools/arm-none-eabi-gcc/4.8.3-2014q1/bin/../lib/gcc/arm-none-eabi/4.8.3/../../../../arm-none-eabi/lib/armv7-m/libm.a(lib_a-w_sqrt.o)
 .text          0x0000000000000000        0x0 /home/fx/.arduino15/packages/arduino/tools/arm-none-eabi-gcc/4.8.3-2014q1/bin/../lib/gcc/arm-none-eabi/4.8.3/../../../../arm-none-eabi/lib/armv7-m/libm.a(lib_a-e_sqrt.o)
 .data          0x0000000000000000        0x0 /home/fx/.arduino15/packages/arduino/tools/arm-none-eabi-gcc/4.8.3-2014q1/bin/../lib/gcc/arm-none-eabi/4.8.3/../../../../arm-none-eabi/lib/armv7-m/libm.a(lib_a-e_sqrt.o)
 .bss           0x0000000000000000        0x0 /home/fx/.arduino15/packages/arduino/tools/arm-none-eabi-gcc/4.8.3-2014q1/bin/../lib/gcc/arm-none-eabi/4.8.3/../../../../arm-none-eabi/lib/armv7-m/libm.a(lib_a-e_sqrt.o)
 .text.__ieee754_sqrt
                0x0000000000000000      0x180 /home/fx/.arduino15/packages/arduino/tools/arm-none-eabi-gcc/4.8.3-2014q1/bin/../lib/gcc/arm-none-eabi/4.8.3/../../../../arm-none-eabi/lib/armv7-m/libm.a(lib_a-e_sqrt.o)
 .text          0x0000000000000000        0x0 /home/fx/.arduino15/packages/arduino/tools/arm-none-eabi-gcc/4.8.3-2014q1/bin/../lib/gcc/arm-none-eabi/4.8.3/../../../../arm-none-eabi/lib/armv7-m/libm.a(lib_a-s_fpclassify.o)
 .data          0x0000000000000000        0x0 /home/fx/.arduino15/packages/arduino/tools/arm-none-eabi-gcc/4.8.3-2014q1/bin/../lib/gcc/arm-none-eabi/4.8.3/../../../../arm-none-eabi/lib/armv7-m/libm.a(lib_a-s_fpclassify.o)
 .bss           0x0000000000000000        0x0 /home/fx/.arduino15/packages/arduino/tools/arm-none-eabi-gcc/4.8.3-2014q1/bin/../lib/gcc/arm-none-eabi/4.8.3/../../../../arm-none-eabi/lib/armv7-m/libm.a(lib_a-s_fpclassify.o)
 .text          0x0000000000000000        0x0 /home/fx/.arduino15/packages/arduino/tools/arm-none-eabi-gcc/4.8.3-2014q1/bin/../lib/gcc/arm-none-eabi/4.8.3/../../../../arm-none-eabi/lib/armv7-m/libm.a(lib_a-s_lib_ver.o)
 .data          0x0000000000000000        0x0 /home/fx/.arduino15/packages/arduino/tools/arm-none-eabi-gcc/4.8.3-2014q1/bin/../lib/gcc/arm-none-eabi/4.8.3/../../../../arm-none-eabi/lib/armv7-m/libm.a(lib_a-s_lib_ver.o)
 .bss           0x0000000000000000        0x0 /home/fx/.arduino15/packages/arduino/tools/arm-none-eabi-gcc/4.8.3-2014q1/bin/../lib/gcc/arm-none-eabi/4.8.3/../../../../arm-none-eabi/lib/armv7-m/libm.a(lib_a-s_lib_ver.o)
 .data.__fdlib_version
                0x0000000000000000        0x1 /home/fx/.arduino15/packages/arduino/tools/arm-none-eabi-gcc/4.8.3-2014q1/bin/../lib/gcc/arm-none-eabi/4.8.3/../../../../arm-none-eabi/lib/armv7-m/libm.a(lib_a-s_lib_ver.o)
 .text          0x0000000000000000        0x0 /home/fx/.arduino15/packages/arduino/tools/arm-none-eabi-gcc/4.8.3-2014q1/bin/../lib/gcc/arm-none-eabi/4.8.3/../../../../arm-none-eabi/lib/armv7-m/libm.a(lib_a-s_matherr.o)
 .data          0x0000000000000000        0x0 /home/fx/.arduino15/packages/arduino/tools/arm-none-eabi-gcc/4.8.3-2014q1/bin/../lib/gcc/arm-none-eabi/4.8.3/../../../../arm-none-eabi/lib/armv7-m/libm.a(lib_a-s_matherr.o)
 .bss           0x0000000000000000        0x0 /home/fx/.arduino15/packages/arduino/tools/arm-none-eabi-gcc/4.8.3-2014q1/bin/../lib/gcc/arm-none-eabi/4.8.3/../../../../arm-none-eabi/lib/armv7-m/libm.a(lib_a-s_matherr.o)
 .text.matherr  0x0000000000000000        0x4 /home/fx/.arduino15/packages/arduino/tools/arm-none-eabi-gcc/4.8.3-2014q1/bin/../lib/gcc/arm-none-eabi/4.8.3/../../../../arm-none-eabi/lib/armv7-m/libm.a(lib_a-s_matherr.o)
 .data          0x0000000000000000        0x0 /home/fx/.arduino15/packages/arduino/tools/arm-none-eabi-gcc/4.8.3-2014q1/bin/../lib/gcc/arm-none-eabi/4.8.3/armv7-m/libgcc.a(_arm_addsubdf3.o)
 .bss           0x0000000000000000        0x0 /home/fx/.arduino15/packages/arduino/tools/arm-none-eabi-gcc/4.8.3-2014q1/bin/../lib/gcc/arm-none-eabi/4.8.3/armv7-m/libgcc.a(_arm_addsubdf3.o)
 .data          0x0000000000000000        0x0 /home/fx/.arduino15/packages/arduino/tools/arm-none-eabi-gcc/4.8.3-2014q1/bin/../lib/gcc/arm-none-eabi/4.8.3/armv7-m/libgcc.a(_arm_muldivdf3.o)
 .bss           0x0000000000000000        0x0 /home/fx/.arduino15/packages/arduino/tools/arm-none-eabi-gcc/4.8.3-2014q1/bin/../lib/gcc/arm-none-eabi/4.8.3/armv7-m/libgcc.a(_arm_muldivdf3.o)
 .data          0x0000000000000000        0x0 /home/fx/.arduino15/packages/arduino/tools/arm-none-eabi-gcc/4.8.3-2014q1/bin/../lib/gcc/arm-none-eabi/4.8.3/armv7-m/libgcc.a(_arm_cmpdf2.o)
 .bss           0x0000000000000000        0x0 /home/fx/.arduino15/packages/arduino/tools/arm-none-eabi-gcc/4.8.3-2014q1/bin/../lib/gcc/arm-none-eabi/4.8.3/armv7-m/libgcc.a(_arm_cmpdf2.o)
 .data          0x0000000000000000        0x0 /home/fx/.arduino15/packages/arduino/tools/arm-none-eabi-gcc/4.8.3-2014q1/bin/../lib/gcc/arm-none-eabi/4.8.3/armv7-m/libgcc.a(_arm_fixdfsi.o)
 .bss           0x0000000000000000        0x0 /home/fx/.arduino15/packages/arduino/tools/arm-none-eabi-gcc/4.8.3-2014q1/bin/../lib/gcc/arm-none-eabi/4.8.3/armv7-m/libgcc.a(_arm_fixdfsi.o)
 .data          0x0000000000000000        0x0 /home/fx/.arduino15/packages/arduino/tools/arm-none-eabi-gcc/4.8.3-2014q1/bin/../lib/gcc/arm-none-eabi/4.8.3/armv7-m/libgcc.a(_arm_truncdfsf2.o)
 .bss           0x0000000000000000        0x0 /home/fx/.arduino15/packages/arduino/tools/arm-none-eabi-gcc/4.8.3-2014q1/bin/../lib/gcc/arm-none-eabi/4.8.3/armv7-m/libgcc.a(_arm_truncdfsf2.o)
 .data          0x0000000000000000        0x0 /home/fx/.arduino15/packages/arduino/tools/arm-none-eabi-gcc/4.8.3-2014q1/bin/../lib/gcc/arm-none-eabi/4.8.3/armv7-m/libgcc.a(_arm_addsubsf3.o)
 .bss           0x0000000000000000        0x0 /home/fx/.arduino15/packages/arduino/tools/arm-none-eabi-gcc/4.8.3-2014q1/bin/../lib/gcc/arm-none-eabi/4.8.3/armv7-m/libgcc.a(_arm_addsubsf3.o)
 .text          0x0000000000000000       0xec /home/fx/.arduino15/packages/arduino/tools/arm-none-eabi-gcc/4.8.3-2014q1/bin/../lib/gcc/arm-none-eabi/4.8.3/armv7-m/libgcc.a(_arm_cmpsf2.o)
 .data          0x0000000000000000        0x0 /home/fx/.arduino15/packages/arduino/tools/arm-none-eabi-gcc/4.8.3-2014q1/bin/../lib/gcc/arm-none-eabi/4.8.3/armv7-m/libgcc.a(_arm_cmpsf2.o)
 .bss           0x0000000000000000        0x0 /home/fx/.arduino15/packages/arduino/tools/arm-none-eabi-gcc/4.8.3-2014q1/bin/../lib/gcc/arm-none-eabi/4.8.3/armv7-m/libgcc.a(_arm_cmpsf2.o)
 .data          0x0000000000000000        0x0 /home/fx/.arduino15/packages/arduino/tools/arm-none-eabi-gcc/4.8.3-2014q1/bin/../lib/gcc/arm-none-eabi/4.8.3/armv7-m/libgcc.a(_aeabi_uldivmod.o)
 .bss           0x0000000000000000        0x0 /home/fx/.arduino15/packages/arduino/tools/arm-none-eabi-gcc/4.8.3-2014q1/bin/../lib/gcc/arm-none-eabi/4.8.3/armv7-m/libgcc.a(_aeabi_uldivmod.o)
 .text          0x0000000000000000       0x30 /home/fx/.arduino15/packages/arduino/tools/arm-none-eabi-gcc/4.8.3-2014q1/bin/../lib/gcc/arm-none-eabi/4.8.3/armv7-m/libgcc.a(_fixdfdi.o)
 .data          0x0000000000000000        0x0 /home/fx/.arduino15/packages/arduino/tools/arm-none-eabi-gcc/4.8.3-2014q1/bin/../lib/gcc/arm-none-eabi/4.8.3/armv7-m/libgcc.a(_fixdfdi.o)
 .bss           0x0000000000000000        0x0 /home/fx/.arduino15/packages/arduino/tools/arm-none-eabi-gcc/4.8.3-2014q1/bin/../lib/gcc/arm-none-eabi/4.8.3/armv7-m/libgcc.a(_fixdfdi.o)
 .text          0x0000000000000000       0x44 /home/fx/.arduino15/packages/arduino/tools/arm-none-eabi-gcc/4.8.3-2014q1/bin/../lib/gcc/arm-none-eabi/4.8.3/armv7-m/libgcc.a(_fixunsdfdi.o)
 .data          0x0000000000000000        0x0 /home/fx/.arduino15/packages/arduino/tools/arm-none-eabi-gcc/4.8.3-2014q1/bin/../lib/gcc/arm-none-eabi/4.8.3/armv7-m/libgcc.a(_fixunsdfdi.o)
 .bss           0x0000000000000000        0x0 /home/fx/.arduino15/packages/arduino/tools/arm-none-eabi-gcc/4.8.3-2014q1/bin/../lib/gcc/arm-none-eabi/4.8.3/armv7-m/libgcc.a(_fixunsdfdi.o)
 .data          0x0000000000000000        0x0 /home/fx/.arduino15/packages/arduino/tools/arm-none-eabi-gcc/4.8.3-2014q1/bin/../lib/gcc/arm-none-eabi/4.8.3/armv7-m/libgcc.a(bpabi.o)
 .bss           0x0000000000000000        0x0 /home/fx/.arduino15/packages/arduino/tools/arm-none-eabi-gcc/4.8.3-2014q1/bin/../lib/gcc/arm-none-eabi/4.8.3/armv7-m/libgcc.a(bpabi.o)
 .data          0x0000000000000000        0x0 /home/fx/.arduino15/packages/arduino/tools/arm-none-eabi-gcc/4.8.3-2014q1/bin/../lib/gcc/arm-none-eabi/4.8.3/armv7-m/libgcc.a(_dvmd_tls.o)
 .bss           0x0000000000000000        0x0 /home/fx/.arduino15/packages/arduino/tools/arm-none-eabi-gcc/4.8.3-2014q1/bin/../lib/gcc/arm-none-eabi/4.8.3/armv7-m/libgcc.a(_dvmd_tls.o)
 .text          0x0000000000000000       0x40 /home/fx/.arduino15/packages/arduino/tools/arm-none-eabi-gcc/4.8.3-2014q1/bin/../lib/gcc/arm-none-eabi/4.8.3/armv7-m/libgcc.a(_arm_fixunsdfsi.o)
 .data          0x0000000000000000        0x0 /home/fx/.arduino15/packages/arduino/tools/arm-none-eabi-gcc/4.8.3-2014q1/bin/../lib/gcc/arm-none-eabi/4.8.3/armv7-m/libgcc.a(_arm_fixunsdfsi.o)
 .bss           0x0000000000000000        0x0 /home/fx/.arduino15/packages/arduino/tools/arm-none-eabi-gcc/4.8.3-2014q1/bin/../lib/gcc/arm-none-eabi/4.8.3/armv7-m/libgcc.a(_arm_fixunsdfsi.o)
 .data          0x0000000000000000        0x0 /home/fx/.arduino15/packages/arduino/tools/arm-none-eabi-gcc/4.8.3-2014q1/bin/../lib/gcc/arm-none-eabi/4.8.3/armv7-m/libgcc.a(_divdi3.o)
 .bss           0x0000000000000000        0x0 /home/fx/.arduino15/packages/arduino/tools/arm-none-eabi-gcc/4.8.3-2014q1/bin/../lib/gcc/arm-none-eabi/4.8.3/armv7-m/libgcc.a(_divdi3.o)
 .ARM.extab     0x0000000000000000        0x0 /home/fx/.arduino15/packages/arduino/tools/arm-none-eabi-gcc/4.8.3-2014q1/bin/../lib/gcc/arm-none-eabi/4.8.3/armv7-m/libgcc.a(_divdi3.o)
 .data          0x0000000000000000        0x0 /home/fx/.arduino15/packages/arduino/tools/arm-none-eabi-gcc/4.8.3-2014q1/bin/../lib/gcc/arm-none-eabi/4.8.3/armv7-m/libgcc.a(_udivdi3.o)
 .bss           0x0000000000000000        0x0 /home/fx/.arduino15/packages/arduino/tools/arm-none-eabi-gcc/4.8.3-2014q1/bin/../lib/gcc/arm-none-eabi/4.8.3/armv7-m/libgcc.a(_udivdi3.o)
 .ARM.extab     0x0000000000000000        0x0 /home/fx/.arduino15/packages/arduino/tools/arm-none-eabi-gcc/4.8.3-2014q1/bin/../lib/gcc/arm-none-eabi/4.8.3/armv7-m/libgcc.a(_udivdi3.o)
 .text          0x0000000000000000        0x0 /home/fx/.arduino15/packages/arduino/tools/arm-none-eabi-gcc/4.8.3-2014q1/bin/../lib/gcc/arm-none-eabi/4.8.3/../../../../arm-none-eabi/lib/armv7-m/libc.a(lib_a-errno.o)
 .data          0x0000000000000000        0x0 /home/fx/.arduino15/packages/arduino/tools/arm-none-eabi-gcc/4.8.3-2014q1/bin/../lib/gcc/arm-none-eabi/4.8.3/../../../../arm-none-eabi/lib/armv7-m/libc.a(lib_a-errno.o)
 .bss           0x0000000000000000        0x0 /home/fx/.arduino15/packages/arduino/tools/arm-none-eabi-gcc/4.8.3-2014q1/bin/../lib/gcc/arm-none-eabi/4.8.3/../../../../arm-none-eabi/lib/armv7-m/libc.a(lib_a-errno.o)
 .text          0x0000000000000000        0x0 /home/fx/.arduino15/packages/arduino/tools/arm-none-eabi-gcc/4.8.3-2014q1/bin/../lib/gcc/arm-none-eabi/4.8.3/../../../../arm-none-eabi/lib/armv7-m/libc.a(lib_a-exit.o)
 .data          0x0000000000000000        0x0 /home/fx/.arduino15/packages/arduino/tools/arm-none-eabi-gcc/4.8.3-2014q1/bin/../lib/gcc/arm-none-eabi/4.8.3/../../../../arm-none-eabi/lib/armv7-m/libc.a(lib_a-exit.o)
 .bss           0x0000000000000000        0x0 /home/fx/.arduino15/packages/arduino/tools/arm-none-eabi-gcc/4.8.3-2014q1/bin/../lib/gcc/arm-none-eabi/4.8.3/../../../../arm-none-eabi/lib/armv7-m/libc.a(lib_a-exit.o)
 .text.exit     0x0000000000000000       0x20 /home/fx/.arduino15/packages/arduino/tools/arm-none-eabi-gcc/4.8.3-2014q1/bin/../lib/gcc/arm-none-eabi/4.8.3/../../../../arm-none-eabi/lib/armv7-m/libc.a(lib_a-exit.o)
 .text          0x0000000000000000        0x0 /home/fx/.arduino15/packages/arduino/tools/arm-none-eabi-gcc/4.8.3-2014q1/bin/../lib/gcc/arm-none-eabi/4.8.3/../../../../arm-none-eabi/lib/armv7-m/libc.a(lib_a-impure.o)
 .data          0x0000000000000000        0x0 /home/fx/.arduino15/packages/arduino/tools/arm-none-eabi-gcc/4.8.3-2014q1/bin/../lib/gcc/arm-none-eabi/4.8.3/../../../../arm-none-eabi/lib/armv7-m/libc.a(lib_a-impure.o)
 .bss           0x0000000000000000        0x0 /home/fx/.arduino15/packages/arduino/tools/arm-none-eabi-gcc/4.8.3-2014q1/bin/../lib/gcc/arm-none-eabi/4.8.3/../../../../arm-none-eabi/lib/armv7-m/libc.a(lib_a-impure.o)
 .text          0x0000000000000000        0x0 /home/fx/.arduino15/packages/arduino/tools/arm-none-eabi-gcc/4.8.3-2014q1/bin/../lib/gcc/arm-none-eabi/4.8.3/../../../../arm-none-eabi/lib/armv7-m/libc.a(lib_a-init.o)
 .data          0x0000000000000000        0x0 /home/fx/.arduino15/packages/arduino/tools/arm-none-eabi-gcc/4.8.3-2014q1/bin/../lib/gcc/arm-none-eabi/4.8.3/../../../../arm-none-eabi/lib/armv7-m/libc.a(lib_a-init.o)
 .bss           0x0000000000000000        0x0 /home/fx/.arduino15/packages/arduino/tools/arm-none-eabi-gcc/4.8.3-2014q1/bin/../lib/gcc/arm-none-eabi/4.8.3/../../../../arm-none-eabi/lib/armv7-m/libc.a(lib_a-init.o)
 .text          0x0000000000000000        0x0 /home/fx/.arduino15/packages/arduino/tools/arm-none-eabi-gcc/4.8.3-2014q1/bin/../lib/gcc/arm-none-eabi/4.8.3/../../../../arm-none-eabi/lib/armv7-m/libc.a(lib_a-malloc.o)
 .data          0x0000000000000000        0x0 /home/fx/.arduino15/packages/arduino/tools/arm-none-eabi-gcc/4.8.3-2014q1/bin/../lib/gcc/arm-none-eabi/4.8.3/../../../../arm-none-eabi/lib/armv7-m/libc.a(lib_a-malloc.o)
 .bss           0x0000000000000000        0x0 /home/fx/.arduino15/packages/arduino/tools/arm-none-eabi-gcc/4.8.3-2014q1/bin/../lib/gcc/arm-none-eabi/4.8.3/../../../../arm-none-eabi/lib/armv7-m/libc.a(lib_a-malloc.o)
 .text.free     0x0000000000000000       0x10 /home/fx/.arduino15/packages/arduino/tools/arm-none-eabi-gcc/4.8.3-2014q1/bin/../lib/gcc/arm-none-eabi/4.8.3/../../../../arm-none-eabi/lib/armv7-m/libc.a(lib_a-malloc.o)
 .text          0x0000000000000000        0x0 /home/fx/.arduino15/packages/arduino/tools/arm-none-eabi-gcc/4.8.3-2014q1/bin/../lib/gcc/arm-none-eabi/4.8.3/../../../../arm-none-eabi/lib/armv7-m/libc.a(lib_a-mallocr.o)
 .data          0x0000000000000000        0x0 /home/fx/.arduino15/packages/arduino/tools/arm-none-eabi-gcc/4.8.3-2014q1/bin/../lib/gcc/arm-none-eabi/4.8.3/../../../../arm-none-eabi/lib/armv7-m/libc.a(lib_a-mallocr.o)
 .bss           0x0000000000000000        0x0 /home/fx/.arduino15/packages/arduino/tools/arm-none-eabi-gcc/4.8.3-2014q1/bin/../lib/gcc/arm-none-eabi/4.8.3/../../../../arm-none-eabi/lib/armv7-m/libc.a(lib_a-mallocr.o)
 .text          0x0000000000000000        0x0 /home/fx/.arduino15/packages/arduino/tools/arm-none-eabi-gcc/4.8.3-2014q1/bin/../lib/gcc/arm-none-eabi/4.8.3/../../../../arm-none-eabi/lib/armv7-m/libc.a(lib_a-memchr-stub.o)
 .data          0x0000000000000000        0x0 /home/fx/.arduino15/packages/arduino/tools/arm-none-eabi-gcc/4.8.3-2014q1/bin/../lib/gcc/arm-none-eabi/4.8.3/../../../../arm-none-eabi/lib/armv7-m/libc.a(lib_a-memchr-stub.o)
 .bss           0x0000000000000000        0x0 /home/fx/.arduino15/packages/arduino/tools/arm-none-eabi-gcc/4.8.3-2014q1/bin/../lib/gcc/arm-none-eabi/4.8.3/../../../../arm-none-eabi/lib/armv7-m/libc.a(lib_a-memchr-stub.o)
 .text          0x0000000000000000        0x0 /home/fx/.arduino15/packages/arduino/tools/arm-none-eabi-gcc/4.8.3-2014q1/bin/../lib/gcc/arm-none-eabi/4.8.3/../../../../arm-none-eabi/lib/armv7-m/libc.a(lib_a-memcmp.o)
 .data          0x0000000000000000        0x0 /home/fx/.arduino15/packages/arduino/tools/arm-none-eabi-gcc/4.8.3-2014q1/bin/../lib/gcc/arm-none-eabi/4.8.3/../../../../arm-none-eabi/lib/armv7-m/libc.a(lib_a-memcmp.o)
 .bss           0x0000000000000000        0x0 /home/fx/.arduino15/packages/arduino/tools/arm-none-eabi-gcc/4.8.3-2014q1/bin/../lib/gcc/arm-none-eabi/4.8.3/../../../../arm-none-eabi/lib/armv7-m/libc.a(lib_a-memcmp.o)
 .data          0x0000000000000000        0x0 /home/fx/.arduino15/packages/arduino/tools/arm-none-eabi-gcc/4.8.3-2014q1/bin/../lib/gcc/arm-none-eabi/4.8.3/../../../../arm-none-eabi/lib/armv7-m/libc.a(lib_a-memcpy.o)
 .bss           0x0000000000000000        0x0 /home/fx/.arduino15/packages/arduino/tools/arm-none-eabi-gcc/4.8.3-2014q1/bin/../lib/gcc/arm-none-eabi/4.8.3/../../../../arm-none-eabi/lib/armv7-m/libc.a(lib_a-memcpy.o)
 .text          0x0000000000000000        0x0 /home/fx/.arduino15/packages/arduino/tools/arm-none-eabi-gcc/4.8.3-2014q1/bin/../lib/gcc/arm-none-eabi/4.8.3/../../../../arm-none-eabi/lib/armv7-m/libc.a(lib_a-memset.o)
 .data          0x0000000000000000        0x0 /home/fx/.arduino15/packages/arduino/tools/arm-none-eabi-gcc/4.8.3-2014q1/bin/../lib/gcc/arm-none-eabi/4.8.3/../../../../arm-none-eabi/lib/armv7-m/libc.a(lib_a-memset.o)
 .bss           0x0000000000000000        0x0 /home/fx/.arduino15/packages/arduino/tools/arm-none-eabi-gcc/4.8.3-2014q1/bin/../lib/gcc/arm-none-eabi/4.8.3/../../../../arm-none-eabi/lib/armv7-m/libc.a(lib_a-memset.o)
 .text          0x0000000000000000        0x0 /home/fx/.arduino15/packages/arduino/tools/arm-none-eabi-gcc/4.8.3-2014q1/bin/../lib/gcc/arm-none-eabi/4.8.3/../../../../arm-none-eabi/lib/armv7-m/libc.a(lib_a-mlock.o)
 .data          0x0000000000000000        0x0 /home/fx/.arduino15/packages/arduino/tools/arm-none-eabi-gcc/4.8.3-2014q1/bin/../lib/gcc/arm-none-eabi/4.8.3/../../../../arm-none-eabi/lib/armv7-m/libc.a(lib_a-mlock.o)
 .bss           0x0000000000000000        0x0 /home/fx/.arduino15/packages/arduino/tools/arm-none-eabi-gcc/4.8.3-2014q1/bin/../lib/gcc/arm-none-eabi/4.8.3/../../../../arm-none-eabi/lib/armv7-m/libc.a(lib_a-mlock.o)
 .text          0x0000000000000000        0x0 /home/fx/.arduino15/packages/arduino/tools/arm-none-eabi-gcc/4.8.3-2014q1/bin/../lib/gcc/arm-none-eabi/4.8.3/../../../../arm-none-eabi/lib/armv7-m/libc.a(lib_a-sbrkr.o)
 .data          0x0000000000000000        0x0 /home/fx/.arduino15/packages/arduino/tools/arm-none-eabi-gcc/4.8.3-2014q1/bin/../lib/gcc/arm-none-eabi/4.8.3/../../../../arm-none-eabi/lib/armv7-m/libc.a(lib_a-sbrkr.o)
 .bss           0x0000000000000000        0x0 /home/fx/.arduino15/packages/arduino/tools/arm-none-eabi-gcc/4.8.3-2014q1/bin/../lib/gcc/arm-none-eabi/4.8.3/../../../../arm-none-eabi/lib/armv7-m/libc.a(lib_a-sbrkr.o)
 .text          0x0000000000000000        0x0 /home/fx/.arduino15/packages/arduino/tools/arm-none-eabi-gcc/4.8.3-2014q1/bin/../lib/gcc/arm-none-eabi/4.8.3/../../../../arm-none-eabi/lib/armv7-m/libc.a(lib_a-sprintf.o)
 .data          0x0000000000000000        0x0 /home/fx/.arduino15/packages/arduino/tools/arm-none-eabi-gcc/4.8.3-2014q1/bin/../lib/gcc/arm-none-eabi/4.8.3/../../../../arm-none-eabi/lib/armv7-m/libc.a(lib_a-sprintf.o)
 .bss           0x0000000000000000        0x0 /home/fx/.arduino15/packages/arduino/tools/arm-none-eabi-gcc/4.8.3-2014q1/bin/../lib/gcc/arm-none-eabi/4.8.3/../../../../arm-none-eabi/lib/armv7-m/libc.a(lib_a-sprintf.o)
 .text._sprintf_r
                0x0000000000000000       0x44 /home/fx/.arduino15/packages/arduino/tools/arm-none-eabi-gcc/4.8.3-2014q1/bin/../lib/gcc/arm-none-eabi/4.8.3/../../../../arm-none-eabi/lib/armv7-m/libc.a(lib_a-sprintf.o)
 .text          0x0000000000000000        0x0 /home/fx/.arduino15/packages/arduino/tools/arm-none-eabi-gcc/4.8.3-2014q1/bin/../lib/gcc/arm-none-eabi/4.8.3/../../../../arm-none-eabi/lib/armv7-m/libc.a(lib_a-strcpy.o)
 .data          0x0000000000000000        0x0 /home/fx/.arduino15/packages/arduino/tools/arm-none-eabi-gcc/4.8.3-2014q1/bin/../lib/gcc/arm-none-eabi/4.8.3/../../../../arm-none-eabi/lib/armv7-m/libc.a(lib_a-strcpy.o)
 .bss           0x0000000000000000        0x0 /home/fx/.arduino15/packages/arduino/tools/arm-none-eabi-gcc/4.8.3-2014q1/bin/../lib/gcc/arm-none-eabi/4.8.3/../../../../arm-none-eabi/lib/armv7-m/libc.a(lib_a-strcpy.o)
 .text.strcpy   0x0000000000000000       0xbc /home/fx/.arduino15/packages/arduino/tools/arm-none-eabi-gcc/4.8.3-2014q1/bin/../lib/gcc/arm-none-eabi/4.8.3/../../../../arm-none-eabi/lib/armv7-m/libc.a(lib_a-strcpy.o)
 .text          0x0000000000000000        0x0 /home/fx/.arduino15/packages/arduino/tools/arm-none-eabi-gcc/4.8.3-2014q1/bin/../lib/gcc/arm-none-eabi/4.8.3/../../../../arm-none-eabi/lib/armv7-m/libc.a(lib_a-strlen.o)
 .data          0x0000000000000000        0x0 /home/fx/.arduino15/packages/arduino/tools/arm-none-eabi-gcc/4.8.3-2014q1/bin/../lib/gcc/arm-none-eabi/4.8.3/../../../../arm-none-eabi/lib/armv7-m/libc.a(lib_a-strlen.o)
 .bss           0x0000000000000000        0x0 /home/fx/.arduino15/packages/arduino/tools/arm-none-eabi-gcc/4.8.3-2014q1/bin/../lib/gcc/arm-none-eabi/4.8.3/../../../../arm-none-eabi/lib/armv7-m/libc.a(lib_a-strlen.o)
 .text          0x0000000000000000        0x0 /home/fx/.arduino15/packages/arduino/tools/arm-none-eabi-gcc/4.8.3-2014q1/bin/../lib/gcc/arm-none-eabi/4.8.3/../../../../arm-none-eabi/lib/armv7-m/libc.a(lib_a-strncpy.o)
 .data          0x0000000000000000        0x0 /home/fx/.arduino15/packages/arduino/tools/arm-none-eabi-gcc/4.8.3-2014q1/bin/../lib/gcc/arm-none-eabi/4.8.3/../../../../arm-none-eabi/lib/armv7-m/libc.a(lib_a-strncpy.o)
 .bss           0x0000000000000000        0x0 /home/fx/.arduino15/packages/arduino/tools/arm-none-eabi-gcc/4.8.3-2014q1/bin/../lib/gcc/arm-none-eabi/4.8.3/../../../../arm-none-eabi/lib/armv7-m/libc.a(lib_a-strncpy.o)
 .text.strncpy  0x0000000000000000       0x64 /home/fx/.arduino15/packages/arduino/tools/arm-none-eabi-gcc/4.8.3-2014q1/bin/../lib/gcc/arm-none-eabi/4.8.3/../../../../arm-none-eabi/lib/armv7-m/libc.a(lib_a-strncpy.o)
 .text          0x0000000000000000        0x0 /home/fx/.arduino15/packages/arduino/tools/arm-none-eabi-gcc/4.8.3-2014q1/bin/../lib/gcc/arm-none-eabi/4.8.3/../../../../arm-none-eabi/lib/armv7-m/libc.a(lib_a-svfprintf.o)
 .data          0x0000000000000000        0x0 /home/fx/.arduino15/packages/arduino/tools/arm-none-eabi-gcc/4.8.3-2014q1/bin/../lib/gcc/arm-none-eabi/4.8.3/../../../../arm-none-eabi/lib/armv7-m/libc.a(lib_a-svfprintf.o)
 .bss           0x0000000000000000        0x0 /home/fx/.arduino15/packages/arduino/tools/arm-none-eabi-gcc/4.8.3-2014q1/bin/../lib/gcc/arm-none-eabi/4.8.3/../../../../arm-none-eabi/lib/armv7-m/libc.a(lib_a-svfprintf.o)
 .text          0x0000000000000000        0x0 /home/fx/.arduino15/packages/arduino/tools/arm-none-eabi-gcc/4.8.3-2014q1/bin/../lib/gcc/arm-none-eabi/4.8.3/../../../../arm-none-eabi/lib/armv7-m/libc.a(lib_a-__call_atexit.o)
 .data          0x0000000000000000        0x0 /home/fx/.arduino15/packages/arduino/tools/arm-none-eabi-gcc/4.8.3-2014q1/bin/../lib/gcc/arm-none-eabi/4.8.3/../../../../arm-none-eabi/lib/armv7-m/libc.a(lib_a-__call_atexit.o)
 .bss           0x0000000000000000        0x0 /home/fx/.arduino15/packages/arduino/tools/arm-none-eabi-gcc/4.8.3-2014q1/bin/../lib/gcc/arm-none-eabi/4.8.3/../../../../arm-none-eabi/lib/armv7-m/libc.a(lib_a-__call_atexit.o)
 .text.__call_exitprocs
                0x0000000000000000       0xf0 /home/fx/.arduino15/packages/arduino/tools/arm-none-eabi-gcc/4.8.3-2014q1/bin/../lib/gcc/arm-none-eabi/4.8.3/../../../../arm-none-eabi/lib/armv7-m/libc.a(lib_a-__call_atexit.o)
 .text          0x0000000000000000        0x0 /home/fx/.arduino15/packages/arduino/tools/arm-none-eabi-gcc/4.8.3-2014q1/bin/../lib/gcc/arm-none-eabi/4.8.3/../../../../arm-none-eabi/lib/armv7-m/libc.a(lib_a-atexit.o)
 .data          0x0000000000000000        0x0 /home/fx/.arduino15/packages/arduino/tools/arm-none-eabi-gcc/4.8.3-2014q1/bin/../lib/gcc/arm-none-eabi/4.8.3/../../../../arm-none-eabi/lib/armv7-m/libc.a(lib_a-atexit.o)
 .bss           0x0000000000000000        0x0 /home/fx/.arduino15/packages/arduino/tools/arm-none-eabi-gcc/4.8.3-2014q1/bin/../lib/gcc/arm-none-eabi/4.8.3/../../../../arm-none-eabi/lib/armv7-m/libc.a(lib_a-atexit.o)
 .text          0x0000000000000000        0x0 /home/fx/.arduino15/packages/arduino/tools/arm-none-eabi-gcc/4.8.3-2014q1/bin/../lib/gcc/arm-none-eabi/4.8.3/../../../../arm-none-eabi/lib/armv7-m/libc.a(lib_a-dtoa.o)
 .data          0x0000000000000000        0x0 /home/fx/.arduino15/packages/arduino/tools/arm-none-eabi-gcc/4.8.3-2014q1/bin/../lib/gcc/arm-none-eabi/4.8.3/../../../../arm-none-eabi/lib/armv7-m/libc.a(lib_a-dtoa.o)
 .bss           0x0000000000000000        0x0 /home/fx/.arduino15/packages/arduino/tools/arm-none-eabi-gcc/4.8.3-2014q1/bin/../lib/gcc/arm-none-eabi/4.8.3/../../../../arm-none-eabi/lib/armv7-m/libc.a(lib_a-dtoa.o)
 .text          0x0000000000000000        0x0 /home/fx/.arduino15/packages/arduino/tools/arm-none-eabi-gcc/4.8.3-2014q1/bin/../lib/gcc/arm-none-eabi/4.8.3/../../../../arm-none-eabi/lib/armv7-m/libc.a(lib_a-fini.o)
 .data          0x0000000000000000        0x0 /home/fx/.arduino15/packages/arduino/tools/arm-none-eabi-gcc/4.8.3-2014q1/bin/../lib/gcc/arm-none-eabi/4.8.3/../../../../arm-none-eabi/lib/armv7-m/libc.a(lib_a-fini.o)
 .bss           0x0000000000000000        0x0 /home/fx/.arduino15/packages/arduino/tools/arm-none-eabi-gcc/4.8.3-2014q1/bin/../lib/gcc/arm-none-eabi/4.8.3/../../../../arm-none-eabi/lib/armv7-m/libc.a(lib_a-fini.o)
 .text          0x0000000000000000        0x0 /home/fx/.arduino15/packages/arduino/tools/arm-none-eabi-gcc/4.8.3-2014q1/bin/../lib/gcc/arm-none-eabi/4.8.3/../../../../arm-none-eabi/lib/armv7-m/libc.a(lib_a-freer.o)
 .data          0x0000000000000000        0x0 /home/fx/.arduino15/packages/arduino/tools/arm-none-eabi-gcc/4.8.3-2014q1/bin/../lib/gcc/arm-none-eabi/4.8.3/../../../../arm-none-eabi/lib/armv7-m/libc.a(lib_a-freer.o)
 .bss           0x0000000000000000        0x0 /home/fx/.arduino15/packages/arduino/tools/arm-none-eabi-gcc/4.8.3-2014q1/bin/../lib/gcc/arm-none-eabi/4.8.3/../../../../arm-none-eabi/lib/armv7-m/libc.a(lib_a-freer.o)
 .text          0x0000000000000000        0x0 /home/fx/.arduino15/packages/arduino/tools/arm-none-eabi-gcc/4.8.3-2014q1/bin/../lib/gcc/arm-none-eabi/4.8.3/../../../../arm-none-eabi/lib/armv7-m/libc.a(lib_a-locale.o)
 .data          0x0000000000000000        0x0 /home/fx/.arduino15/packages/arduino/tools/arm-none-eabi-gcc/4.8.3-2014q1/bin/../lib/gcc/arm-none-eabi/4.8.3/../../../../arm-none-eabi/lib/armv7-m/libc.a(lib_a-locale.o)
 .bss           0x0000000000000000        0x0 /home/fx/.arduino15/packages/arduino/tools/arm-none-eabi-gcc/4.8.3-2014q1/bin/../lib/gcc/arm-none-eabi/4.8.3/../../../../arm-none-eabi/lib/armv7-m/libc.a(lib_a-locale.o)
 .text._setlocale_r
                0x0000000000000000       0x40 /home/fx/.arduino15/packages/arduino/tools/arm-none-eabi-gcc/4.8.3-2014q1/bin/../lib/gcc/arm-none-eabi/4.8.3/../../../../arm-none-eabi/lib/armv7-m/libc.a(lib_a-locale.o)
 .text.__locale_charset
                0x0000000000000000        0x8 /home/fx/.arduino15/packages/arduino/tools/arm-none-eabi-gcc/4.8.3-2014q1/bin/../lib/gcc/arm-none-eabi/4.8.3/../../../../arm-none-eabi/lib/armv7-m/libc.a(lib_a-locale.o)
 .text.__locale_mb_cur_max
                0x0000000000000000        0xc /home/fx/.arduino15/packages/arduino/tools/arm-none-eabi-gcc/4.8.3-2014q1/bin/../lib/gcc/arm-none-eabi/4.8.3/../../../../arm-none-eabi/lib/armv7-m/libc.a(lib_a-locale.o)
 .text.__locale_msgcharset
                0x0000000000000000        0x8 /home/fx/.arduino15/packages/arduino/tools/arm-none-eabi-gcc/4.8.3-2014q1/bin/../lib/gcc/arm-none-eabi/4.8.3/../../../../arm-none-eabi/lib/armv7-m/libc.a(lib_a-locale.o)
 .text.__locale_cjk_lang
                0x0000000000000000        0x4 /home/fx/.arduino15/packages/arduino/tools/arm-none-eabi-gcc/4.8.3-2014q1/bin/../lib/gcc/arm-none-eabi/4.8.3/../../../../arm-none-eabi/lib/armv7-m/libc.a(lib_a-locale.o)
 .text.setlocale
                0x0000000000000000       0x10 /home/fx/.arduino15/packages/arduino/tools/arm-none-eabi-gcc/4.8.3-2014q1/bin/../lib/gcc/arm-none-eabi/4.8.3/../../../../arm-none-eabi/lib/armv7-m/libc.a(lib_a-locale.o)
 .text.localeconv
                0x0000000000000000        0x8 /home/fx/.arduino15/packages/arduino/tools/arm-none-eabi-gcc/4.8.3-2014q1/bin/../lib/gcc/arm-none-eabi/4.8.3/../../../../arm-none-eabi/lib/armv7-m/libc.a(lib_a-locale.o)
 .data.lc_message_charset
                0x0000000000000000       0x20 /home/fx/.arduino15/packages/arduino/tools/arm-none-eabi-gcc/4.8.3-2014q1/bin/../lib/gcc/arm-none-eabi/4.8.3/../../../../arm-none-eabi/lib/armv7-m/libc.a(lib_a-locale.o)
 .bss._PathLocale
                0x0000000000000000        0x4 /home/fx/.arduino15/packages/arduino/tools/arm-none-eabi-gcc/4.8.3-2014q1/bin/../lib/gcc/arm-none-eabi/4.8.3/../../../../arm-none-eabi/lib/armv7-m/libc.a(lib_a-locale.o)
 .bss.__nlocale_changed
                0x0000000000000000        0x4 /home/fx/.arduino15/packages/arduino/tools/arm-none-eabi-gcc/4.8.3-2014q1/bin/../lib/gcc/arm-none-eabi/4.8.3/../../../../arm-none-eabi/lib/armv7-m/libc.a(lib_a-locale.o)
 .bss.__mlocale_changed
                0x0000000000000000        0x4 /home/fx/.arduino15/packages/arduino/tools/arm-none-eabi-gcc/4.8.3-2014q1/bin/../lib/gcc/arm-none-eabi/4.8.3/../../../../arm-none-eabi/lib/armv7-m/libc.a(lib_a-locale.o)
 .data.lc_ctype_charset
                0x0000000000000000       0x20 /home/fx/.arduino15/packages/arduino/tools/arm-none-eabi-gcc/4.8.3-2014q1/bin/../lib/gcc/arm-none-eabi/4.8.3/../../../../arm-none-eabi/lib/armv7-m/libc.a(lib_a-locale.o)
 .data.__mb_cur_max
                0x0000000000000000        0x4 /home/fx/.arduino15/packages/arduino/tools/arm-none-eabi-gcc/4.8.3-2014q1/bin/../lib/gcc/arm-none-eabi/4.8.3/../../../../arm-none-eabi/lib/armv7-m/libc.a(lib_a-locale.o)
 .text          0x0000000000000000        0x0 /home/fx/.arduino15/packages/arduino/tools/arm-none-eabi-gcc/4.8.3-2014q1/bin/../lib/gcc/arm-none-eabi/4.8.3/../../../../arm-none-eabi/lib/armv7-m/libc.a(lib_a-mprec.o)
 .data          0x0000000000000000        0x0 /home/fx/.arduino15/packages/arduino/tools/arm-none-eabi-gcc/4.8.3-2014q1/bin/../lib/gcc/arm-none-eabi/4.8.3/../../../../arm-none-eabi/lib/armv7-m/libc.a(lib_a-mprec.o)
 .bss           0x0000000000000000        0x0 /home/fx/.arduino15/packages/arduino/tools/arm-none-eabi-gcc/4.8.3-2014q1/bin/../lib/gcc/arm-none-eabi/4.8.3/../../../../arm-none-eabi/lib/armv7-m/libc.a(lib_a-mprec.o)
 .text.__s2b    0x0000000000000000       0x98 /home/fx/.arduino15/packages/arduino/tools/arm-none-eabi-gcc/4.8.3-2014q1/bin/../lib/gcc/arm-none-eabi/4.8.3/../../../../arm-none-eabi/lib/armv7-m/libc.a(lib_a-mprec.o)
 .text.__ulp    0x0000000000000000       0x40 /home/fx/.arduino15/packages/arduino/tools/arm-none-eabi-gcc/4.8.3-2014q1/bin/../lib/gcc/arm-none-eabi/4.8.3/../../../../arm-none-eabi/lib/armv7-m/libc.a(lib_a-mprec.o)
 .text.__b2d    0x0000000000000000       0xb8 /home/fx/.arduino15/packages/arduino/tools/arm-none-eabi-gcc/4.8.3-2014q1/bin/../lib/gcc/arm-none-eabi/4.8.3/../../../../arm-none-eabi/lib/armv7-m/libc.a(lib_a-mprec.o)
 .text.__ratio  0x0000000000000000       0x50 /home/fx/.arduino15/packages/arduino/tools/arm-none-eabi-gcc/4.8.3-2014q1/bin/../lib/gcc/arm-none-eabi/4.8.3/../../../../arm-none-eabi/lib/armv7-m/libc.a(lib_a-mprec.o)
 .text._mprec_log10
                0x0000000000000000       0x34 /home/fx/.arduino15/packages/arduino/tools/arm-none-eabi-gcc/4.8.3-2014q1/bin/../lib/gcc/arm-none-eabi/4.8.3/../../../../arm-none-eabi/lib/armv7-m/libc.a(lib_a-mprec.o)
 .text.__copybits
                0x0000000000000000       0x48 /home/fx/.arduino15/packages/arduino/tools/arm-none-eabi-gcc/4.8.3-2014q1/bin/../lib/gcc/arm-none-eabi/4.8.3/../../../../arm-none-eabi/lib/armv7-m/libc.a(lib_a-mprec.o)
 .text.__any_on
                0x0000000000000000       0x60 /home/fx/.arduino15/packages/arduino/tools/arm-none-eabi-gcc/4.8.3-2014q1/bin/../lib/gcc/arm-none-eabi/4.8.3/../../../../arm-none-eabi/lib/armv7-m/libc.a(lib_a-mprec.o)
 .rodata.__mprec_tinytens
                0x0000000000000000       0x28 /home/fx/.arduino15/packages/arduino/tools/arm-none-eabi-gcc/4.8.3-2014q1/bin/../lib/gcc/arm-none-eabi/4.8.3/../../../../arm-none-eabi/lib/armv7-m/libc.a(lib_a-mprec.o)
 .text          0x0000000000000000        0x0 /home/fx/.arduino15/packages/arduino/tools/arm-none-eabi-gcc/4.8.3-2014q1/bin/../lib/gcc/arm-none-eabi/4.8.3/../../../../arm-none-eabi/lib/armv7-m/libc.a(lib_a-reent.o)
 .data          0x0000000000000000        0x0 /home/fx/.arduino15/packages/arduino/tools/arm-none-eabi-gcc/4.8.3-2014q1/bin/../lib/gcc/arm-none-eabi/4.8.3/../../../../arm-none-eabi/lib/armv7-m/libc.a(lib_a-reent.o)
 .bss           0x0000000000000000        0x0 /home/fx/.arduino15/packages/arduino/tools/arm-none-eabi-gcc/4.8.3-2014q1/bin/../lib/gcc/arm-none-eabi/4.8.3/../../../../arm-none-eabi/lib/armv7-m/libc.a(lib_a-reent.o)
 .text.cleanup_glue
                0x0000000000000000       0x1c /home/fx/.arduino15/packages/arduino/tools/arm-none-eabi-gcc/4.8.3-2014q1/bin/../lib/gcc/arm-none-eabi/4.8.3/../../../../arm-none-eabi/lib/armv7-m/libc.a(lib_a-reent.o)
 .text._reclaim_reent
                0x0000000000000000       0x90 /home/fx/.arduino15/packages/arduino/tools/arm-none-eabi-gcc/4.8.3-2014q1/bin/../lib/gcc/arm-none-eabi/4.8.3/../../../../arm-none-eabi/lib/armv7-m/libc.a(lib_a-reent.o)
 .text          0x0000000000000000      0x23c /home/fx/.arduino15/packages/arduino/tools/arm-none-eabi-gcc/4.8.3-2014q1/bin/../lib/gcc/arm-none-eabi/4.8.3/../../../../arm-none-eabi/lib/armv7-m/libc.a(lib_a-strcmp.o)
 .data          0x0000000000000000        0x0 /home/fx/.arduino15/packages/arduino/tools/arm-none-eabi-gcc/4.8.3-2014q1/bin/../lib/gcc/arm-none-eabi/4.8.3/../../../../arm-none-eabi/lib/armv7-m/libc.a(lib_a-strcmp.o)
 .bss           0x0000000000000000        0x0 /home/fx/.arduino15/packages/arduino/tools/arm-none-eabi-gcc/4.8.3-2014q1/bin/../lib/gcc/arm-none-eabi/4.8.3/../../../../arm-none-eabi/lib/armv7-m/libc.a(lib_a-strcmp.o)
 .text          0x0000000000000000        0x0 /home/fx/.arduino15/packages/arduino/tools/arm-none-eabi-gcc/4.8.3-2014q1/bin/../lib/gcc/arm-none-eabi/4.8.3/../../../../arm-none-eabi/lib/armv7-m/libc.a(lib_a-svfiprintf.o)
 .data          0x0000000000000000        0x0 /home/fx/.arduino15/packages/arduino/tools/arm-none-eabi-gcc/4.8.3-2014q1/bin/../lib/gcc/arm-none-eabi/4.8.3/../../../../arm-none-eabi/lib/armv7-m/libc.a(lib_a-svfiprintf.o)
 .bss           0x0000000000000000        0x0 /home/fx/.arduino15/packages/arduino/tools/arm-none-eabi-gcc/4.8.3-2014q1/bin/../lib/gcc/arm-none-eabi/4.8.3/../../../../arm-none-eabi/lib/armv7-m/libc.a(lib_a-svfiprintf.o)
 .text._svfiprintf_r
                0x0000000000000000      0xb3c /home/fx/.arduino15/packages/arduino/tools/arm-none-eabi-gcc/4.8.3-2014q1/bin/../lib/gcc/arm-none-eabi/4.8.3/../../../../arm-none-eabi/lib/armv7-m/libc.a(lib_a-svfiprintf.o)
 .rodata.zeroes.6704
                0x0000000000000000       0x10 /home/fx/.arduino15/packages/arduino/tools/arm-none-eabi-gcc/4.8.3-2014q1/bin/../lib/gcc/arm-none-eabi/4.8.3/../../../../arm-none-eabi/lib/armv7-m/libc.a(lib_a-svfiprintf.o)
 .rodata.str1.4
                0x0000000000000000       0x30 /home/fx/.arduino15/packages/arduino/tools/arm-none-eabi-gcc/4.8.3-2014q1/bin/../lib/gcc/arm-none-eabi/4.8.3/../../../../arm-none-eabi/lib/armv7-m/libc.a(lib_a-svfiprintf.o)
 .rodata.blanks.6703
                0x0000000000000000       0x10 /home/fx/.arduino15/packages/arduino/tools/arm-none-eabi-gcc/4.8.3-2014q1/bin/../lib/gcc/arm-none-eabi/4.8.3/../../../../arm-none-eabi/lib/armv7-m/libc.a(lib_a-svfiprintf.o)
 .text          0x0000000000000000        0x0 /home/fx/.arduino15/packages/arduino/tools/arm-none-eabi-gcc/4.8.3-2014q1/bin/../lib/gcc/arm-none-eabi/4.8.3/../../../../arm-none-eabi/lib/armv7-m/libc.a(lib_a-__atexit.o)
 .data          0x0000000000000000        0x0 /home/fx/.arduino15/packages/arduino/tools/arm-none-eabi-gcc/4.8.3-2014q1/bin/../lib/gcc/arm-none-eabi/4.8.3/../../../../arm-none-eabi/lib/armv7-m/libc.a(lib_a-__atexit.o)
 .bss           0x0000000000000000        0x0 /home/fx/.arduino15/packages/arduino/tools/arm-none-eabi-gcc/4.8.3-2014q1/bin/../lib/gcc/arm-none-eabi/4.8.3/../../../../arm-none-eabi/lib/armv7-m/libc.a(lib_a-__atexit.o)
 .text          0x0000000000000000        0x0 /home/fx/.arduino15/packages/arduino/tools/arm-none-eabi-gcc/4.8.3-2014q1/bin/../lib/gcc/arm-none-eabi/4.8.3/../../../../arm-none-eabi/lib/armv7-m/libc.a(lib_a-callocr.o)
 .data          0x0000000000000000        0x0 /home/fx/.arduino15/packages/arduino/tools/arm-none-eabi-gcc/4.8.3-2014q1/bin/../lib/gcc/arm-none-eabi/4.8.3/../../../../arm-none-eabi/lib/armv7-m/libc.a(lib_a-callocr.o)
 .bss           0x0000000000000000        0x0 /home/fx/.arduino15/packages/arduino/tools/arm-none-eabi-gcc/4.8.3-2014q1/bin/../lib/gcc/arm-none-eabi/4.8.3/../../../../arm-none-eabi/lib/armv7-m/libc.a(lib_a-callocr.o)
 .text          0x0000000000000000        0x0 /home/fx/.arduino15/packages/arduino/tools/arm-none-eabi-gcc/4.8.3-2014q1/bin/../lib/gcc/arm-none-eabi/4.8.3/../../../../arm-none-eabi/lib/armv7-m/libc.a(lib_a-memmove.o)
 .data          0x0000000000000000        0x0 /home/fx/.arduino15/packages/arduino/tools/arm-none-eabi-gcc/4.8.3-2014q1/bin/../lib/gcc/arm-none-eabi/4.8.3/../../../../arm-none-eabi/lib/armv7-m/libc.a(lib_a-memmove.o)
 .bss           0x0000000000000000        0x0 /home/fx/.arduino15/packages/arduino/tools/arm-none-eabi-gcc/4.8.3-2014q1/bin/../lib/gcc/arm-none-eabi/4.8.3/../../../../arm-none-eabi/lib/armv7-m/libc.a(lib_a-memmove.o)
 .text          0x0000000000000000        0x0 /home/fx/.arduino15/packages/arduino/tools/arm-none-eabi-gcc/4.8.3-2014q1/bin/../lib/gcc/arm-none-eabi/4.8.3/../../../../arm-none-eabi/lib/armv7-m/libc.a(lib_a-reallocr.o)
 .data          0x0000000000000000        0x0 /home/fx/.arduino15/packages/arduino/tools/arm-none-eabi-gcc/4.8.3-2014q1/bin/../lib/gcc/arm-none-eabi/4.8.3/../../../../arm-none-eabi/lib/armv7-m/libc.a(lib_a-reallocr.o)
 .bss           0x0000000000000000        0x0 /home/fx/.arduino15/packages/arduino/tools/arm-none-eabi-gcc/4.8.3-2014q1/bin/../lib/gcc/arm-none-eabi/4.8.3/../../../../arm-none-eabi/lib/armv7-m/libc.a(lib_a-reallocr.o)
 .text          0x0000000000000000        0x0 /home/fx/.arduino15/packages/arduino/tools/arm-none-eabi-gcc/4.8.3-2014q1/bin/../lib/gcc/arm-none-eabi/4.8.3/armv7-m/crtend.o
 .data          0x0000000000000000        0x0 /home/fx/.arduino15/packages/arduino/tools/arm-none-eabi-gcc/4.8.3-2014q1/bin/../lib/gcc/arm-none-eabi/4.8.3/armv7-m/crtend.o
 .bss           0x0000000000000000        0x0 /home/fx/.arduino15/packages/arduino/tools/arm-none-eabi-gcc/4.8.3-2014q1/bin/../lib/gcc/arm-none-eabi/4.8.3/armv7-m/crtend.o
 .eh_frame      0x0000000000000000        0x4 /home/fx/.arduino15/packages/arduino/tools/arm-none-eabi-gcc/4.8.3-2014q1/bin/../lib/gcc/arm-none-eabi/4.8.3/armv7-m/crtend.o
 .jcr           0x0000000000000000        0x4 /home/fx/.arduino15/packages/arduino/tools/arm-none-eabi-gcc/4.8.3-2014q1/bin/../lib/gcc/arm-none-eabi/4.8.3/armv7-m/crtend.o
 .text          0x0000000000000000        0x0 /home/fx/.arduino15/packages/arduino/tools/arm-none-eabi-gcc/4.8.3-2014q1/bin/../lib/gcc/arm-none-eabi/4.8.3/armv7-m/crtn.o
 .data          0x0000000000000000        0x0 /home/fx/.arduino15/packages/arduino/tools/arm-none-eabi-gcc/4.8.3-2014q1/bin/../lib/gcc/arm-none-eabi/4.8.3/armv7-m/crtn.o
 .bss           0x0000000000000000        0x0 /home/fx/.arduino15/packages/arduino/tools/arm-none-eabi-gcc/4.8.3-2014q1/bin/../lib/gcc/arm-none-eabi/4.8.3/armv7-m/crtn.o

Memory Configuration

Name             Origin             Length             Attributes
ram              0x0000000020000000 0x0000000000005000 xrw
rom              0x0000000008000000 0x0000000000010000 xr
*default*        0x0000000000000000 0xffffffffffffffff

Linker script and memory map

LOAD /home/fx/.arduino15/packages/arduino/tools/arm-none-eabi-gcc/4.8.3-2014q1/bin/../lib/gcc/arm-none-eabi/4.8.3/armv7-m/crti.o
LOAD /home/fx/.arduino15/packages/arduino/tools/arm-none-eabi-gcc/4.8.3-2014q1/bin/../lib/gcc/arm-none-eabi/4.8.3/armv7-m/crtbegin.o
LOAD /home/fx/.arduino15/packages/arduino/tools/arm-none-eabi-gcc/4.8.3-2014q1/bin/../lib/gcc/arm-none-eabi/4.8.3/../../../../arm-none-eabi/lib/armv7-m/crt0.o
LOAD /home/fx/.arduino15/packages/arduino/tools/arm-none-eabi-gcc/4.8.3-2014q1/bin/../lib/gcc/arm-none-eabi/4.8.3/armv7-m/libgcc.a
START GROUP
LOAD /home/fx/Upwork/weather-node/output/sketch/weatherSIM808.ino.cpp.o
LOAD /home/fx/Upwork/weather-node/output/libraries/FreeRTOS821/MapleFreeRTOS821.cpp.o
LOAD /home/fx/Upwork/weather-node/output/libraries/FreeRTOS821/utility/croutine.c.o
LOAD /home/fx/Upwork/weather-node/output/libraries/FreeRTOS821/utility/event_groups.c.o
LOAD /home/fx/Upwork/weather-node/output/libraries/FreeRTOS821/utility/heap_1.c.o
LOAD /home/fx/Upwork/weather-node/output/libraries/FreeRTOS821/utility/list.c.o
LOAD /home/fx/Upwork/weather-node/output/libraries/FreeRTOS821/utility/port.c.o
LOAD /home/fx/Upwork/weather-node/output/libraries/FreeRTOS821/utility/queue.c.o
LOAD /home/fx/Upwork/weather-node/output/libraries/FreeRTOS821/utility/tasks.c.o
LOAD /home/fx/Upwork/weather-node/output/libraries/FreeRTOS821/utility/timers.c.o
LOAD /home/fx/Upwork/weather-node/output/libraries/DHT_sensor_library/DHT.cpp.o
LOAD /home/fx/Upwork/weather-node/output/libraries/DHT_sensor_library/DHT_U.cpp.o
LOAD /home/fx/Upwork/weather-node/output/libraries/Adafruit_Unified_Sensor/Adafruit_Sensor.cpp.o
LOAD /home/fx/Upwork/weather-node/output/core/board.cpp.o
LOAD /home/fx/Upwork/weather-node/output/core/wirish/boards.cpp.o
LOAD /home/fx/Upwork/weather-node/output/core/wirish/boards_setup.cpp.o
LOAD /home/fx/Upwork/weather-node/output/core/wirish/start.S.o
LOAD /home/fx/Upwork/weather-node/output/core/wirish/start_c.c.o
LOAD /home/fx/Upwork/weather-node/output/core/wirish/syscalls.c.o
LOAD /home/fx/Upwork/weather-node/output/core/core.a
END GROUP
LOAD /home/fx/.arduino15/packages/arduino/tools/arm-none-eabi-gcc/4.8.3-2014q1/bin/../lib/gcc/arm-none-eabi/4.8.3/../../../../arm-none-eabi/lib/armv7-m/libstdc++.a
LOAD /home/fx/.arduino15/packages/arduino/tools/arm-none-eabi-gcc/4.8.3-2014q1/bin/../lib/gcc/arm-none-eabi/4.8.3/../../../../arm-none-eabi/lib/armv7-m/libm.a
START GROUP
LOAD /home/fx/.arduino15/packages/arduino/tools/arm-none-eabi-gcc/4.8.3-2014q1/bin/../lib/gcc/arm-none-eabi/4.8.3/armv7-m/libgcc.a
LOAD /home/fx/.arduino15/packages/arduino/tools/arm-none-eabi-gcc/4.8.3-2014q1/bin/../lib/gcc/arm-none-eabi/4.8.3/../../../../arm-none-eabi/lib/armv7-m/libc.a
END GROUP
LOAD /home/fx/.arduino15/packages/arduino/tools/arm-none-eabi-gcc/4.8.3-2014q1/bin/../lib/gcc/arm-none-eabi/4.8.3/armv7-m/crtend.o
LOAD /home/fx/.arduino15/packages/arduino/tools/arm-none-eabi-gcc/4.8.3-2014q1/bin/../lib/gcc/arm-none-eabi/4.8.3/armv7-m/crtn.o
START GROUP
LOAD /home/fx/.arduino15/packages/arduino/tools/arm-none-eabi-gcc/4.8.3-2014q1/bin/../lib/gcc/arm-none-eabi/4.8.3/armv7-m/libgcc.a
LOAD /home/fx/.arduino15/packages/arduino/tools/arm-none-eabi-gcc/4.8.3-2014q1/bin/../lib/gcc/arm-none-eabi/4.8.3/../../../../arm-none-eabi/lib/armv7-m/libc.a
LOAD /home/fx/.arduino15/packages/arduino/tools/arm-none-eabi-gcc/4.8.3-2014q1/bin/../lib/gcc/arm-none-eabi/4.8.3/../../../../arm-none-eabi/lib/armv7-m/libm.a
END GROUP
START GROUP
LOAD /home/fx/.arduino15/packages/arduino/tools/arm-none-eabi-gcc/4.8.3-2014q1/bin/../lib/gcc/arm-none-eabi/4.8.3/../../../../arm-none-eabi/lib/armv7-m/libnosys.a
END GROUP
                0x0000000020005000                PROVIDE (__msp_init, (ORIGIN (ram) + 0x5000))
                0x0000000008001528                PROVIDE (__exc_reset, __start__)

.text           0x0000000008000000     0x8db8
                0x0000000008000000                __text_start__ = .
 *(.stm32.interrupt_vector)
 .stm32.interrupt_vector
                0x0000000008000000       0xec /home/fx/Upwork/weather-node/output/core/core.a(vector_table.S.o)
                0x0000000008000000                __stm32_vector_table
 *(.text .text.* .gnu.linkonce.t.*)
 .text          0x00000000080000ec       0x54 /home/fx/.arduino15/packages/arduino/tools/arm-none-eabi-gcc/4.8.3-2014q1/bin/../lib/gcc/arm-none-eabi/4.8.3/armv7-m/crtbegin.o
 .text._Z11readTempHumv
                0x0000000008000140       0x2c /home/fx/Upwork/weather-node/output/sketch/weatherSIM808.ino.cpp.o
                0x0000000008000140                readTempHum()
 .text._Z17processingPM1Datac
                0x000000000800016c       0x68 /home/fx/Upwork/weather-node/output/sketch/weatherSIM808.ino.cpp.o
                0x000000000800016c                processingPM1Data(char)
 .text._Z17processingPM2Datac
                0x00000000080001d4       0x64 /home/fx/Upwork/weather-node/output/sketch/weatherSIM808.ino.cpp.o
                0x00000000080001d4                processingPM2Data(char)
 .text._Z9buildJSONv
                0x0000000008000238       0xa4 /home/fx/Upwork/weather-node/output/sketch/weatherSIM808.ino.cpp.o
                0x0000000008000238                buildJSON()
 .text._Z6mPowerv
                0x00000000080002dc       0x30 /home/fx/Upwork/weather-node/output/sketch/weatherSIM808.ino.cpp.o
                0x00000000080002dc                mPower()
 .text._Z5blinkv
                0x000000000800030c       0x26 /home/fx/Upwork/weather-node/output/sketch/weatherSIM808.ino.cpp.o
                0x000000000800030c                blink()
 *fill*         0x0000000008000332        0x2 
 .text._Z7procCGRv
                0x0000000008000334       0x28 /home/fx/Upwork/weather-node/output/sketch/weatherSIM808.ino.cpp.o
                0x0000000008000334                procCGR()
 .text._Z7procCGNv
                0x000000000800035c       0x74 /home/fx/Upwork/weather-node/output/sketch/weatherSIM808.ino.cpp.o
                0x000000000800035c                procCGN()
 .text._Z6waitOki
                0x00000000080003d0       0x48 /home/fx/Upwork/weather-node/output/sketch/weatherSIM808.ino.cpp.o
                0x00000000080003d0                waitOk(int)
 .text._Z11sendCommandPKci
                0x0000000008000418       0x38 /home/fx/Upwork/weather-node/output/sketch/weatherSIM808.ino.cpp.o
                0x0000000008000418                sendCommand(char const*, int)
 .text._Z10sim808Initv
                0x0000000008000450       0x28 /home/fx/Upwork/weather-node/output/sketch/weatherSIM808.ino.cpp.o
                0x0000000008000450                sim808Init()
 .text._ZL10task_modemPv
                0x0000000008000478      0x158 /home/fx/Upwork/weather-node/output/sketch/weatherSIM808.ino.cpp.o
 .text._Z5setupv
                0x00000000080005d0       0xc8 /home/fx/Upwork/weather-node/output/sketch/weatherSIM808.ino.cpp.o
                0x00000000080005d0                setup()
 .text._Z4loopv
                0x0000000008000698        0x2 /home/fx/Upwork/weather-node/output/sketch/weatherSIM808.ino.cpp.o
                0x0000000008000698                loop()
 *fill*         0x000000000800069a        0x2 
 .text.startup._GLOBAL__sub_I_dht
                0x000000000800069c       0x10 /home/fx/Upwork/weather-node/output/sketch/weatherSIM808.ino.cpp.o
 .text._Z7readPM1v
                0x00000000080006ac       0x20 /home/fx/Upwork/weather-node/output/sketch/weatherSIM808.ino.cpp.o
                0x00000000080006ac                readPM1()
 .text._Z7readPM2v
                0x00000000080006cc       0x20 /home/fx/Upwork/weather-node/output/sketch/weatherSIM808.ino.cpp.o
                0x00000000080006cc                readPM2()
 .text._ZL12task_sensorsPv
                0x00000000080006ec       0x14 /home/fx/Upwork/weather-node/output/sketch/weatherSIM808.ino.cpp.o
 .text._ZL14task_readModemPv
                0x0000000008000700       0xf8 /home/fx/Upwork/weather-node/output/sketch/weatherSIM808.ino.cpp.o
 .text.vApplicationStackOverflowHook
                0x00000000080007f8        0x2 /home/fx/Upwork/weather-node/output/libraries/FreeRTOS821/MapleFreeRTOS821.cpp.o
                0x00000000080007f8                vApplicationStackOverflowHook
 *fill*         0x00000000080007fa        0x2 
 .text.pvPortMalloc
                0x00000000080007fc       0x50 /home/fx/Upwork/weather-node/output/libraries/FreeRTOS821/utility/heap_1.c.o
                0x00000000080007fc                pvPortMalloc
 .text.vPortFree
                0x000000000800084c        0x2 /home/fx/Upwork/weather-node/output/libraries/FreeRTOS821/utility/heap_1.c.o
                0x000000000800084c                vPortFree
 .text.vListInitialise
                0x000000000800084e       0x16 /home/fx/Upwork/weather-node/output/libraries/FreeRTOS821/utility/list.c.o
                0x000000000800084e                vListInitialise
 .text.vListInitialiseItem
                0x0000000008000864        0x6 /home/fx/Upwork/weather-node/output/libraries/FreeRTOS821/utility/list.c.o
                0x0000000008000864                vListInitialiseItem
 .text.vListInsertEnd
                0x000000000800086a       0x18 /home/fx/Upwork/weather-node/output/libraries/FreeRTOS821/utility/list.c.o
                0x000000000800086a                vListInsertEnd
 .text.vListInsert
                0x0000000008000882       0x30 /home/fx/Upwork/weather-node/output/libraries/FreeRTOS821/utility/list.c.o
                0x0000000008000882                vListInsert
 .text.uxListRemove
                0x00000000080008b2       0x20 /home/fx/Upwork/weather-node/output/libraries/FreeRTOS821/utility/list.c.o
                0x00000000080008b2                uxListRemove
 *fill*         0x00000000080008d2        0x2 
 .text.prvPortStartFirstTask
                0x00000000080008d4       0x20 /home/fx/Upwork/weather-node/output/libraries/FreeRTOS821/utility/port.c.o
 .text.pxPortInitialiseStack
                0x00000000080008f4       0x1c /home/fx/Upwork/weather-node/output/libraries/FreeRTOS821/utility/port.c.o
                0x00000000080008f4                pxPortInitialiseStack
 .text.__exc_svc
                0x0000000008000910       0x28 /home/fx/Upwork/weather-node/output/libraries/FreeRTOS821/utility/port.c.o
                0x0000000008000910                __exc_svc
 .text.vPortYield
                0x0000000008000938       0x18 /home/fx/Upwork/weather-node/output/libraries/FreeRTOS821/utility/port.c.o
                0x0000000008000938                vPortYield
 .text.ulPortSetInterruptMask
                0x0000000008000950       0x10 /home/fx/Upwork/weather-node/output/libraries/FreeRTOS821/utility/port.c.o
                0x0000000008000950                ulPortSetInterruptMask
 .text.prvTaskExitError
                0x0000000008000960        0x8 /home/fx/Upwork/weather-node/output/libraries/FreeRTOS821/utility/port.c.o
 .text.xPortStartScheduler
                0x0000000008000968       0x38 /home/fx/Upwork/weather-node/output/libraries/FreeRTOS821/utility/port.c.o
                0x0000000008000968                xPortStartScheduler
 .text.vPortEnterCritical
                0x00000000080009a0       0x1c /home/fx/Upwork/weather-node/output/libraries/FreeRTOS821/utility/port.c.o
                0x00000000080009a0                vPortEnterCritical
 .text.vPortClearInterruptMask
                0x00000000080009bc        0x6 /home/fx/Upwork/weather-node/output/libraries/FreeRTOS821/utility/port.c.o
                0x00000000080009bc                vPortClearInterruptMask
 *fill*         0x00000000080009c2        0x2 
 .text.vPortExitCritical
                0x00000000080009c4       0x14 /home/fx/Upwork/weather-node/output/libraries/FreeRTOS821/utility/port.c.o
                0x00000000080009c4                vPortExitCritical
 .text.xPortSysTickHandler
                0x00000000080009d8       0x24 /home/fx/Upwork/weather-node/output/libraries/FreeRTOS821/utility/port.c.o
                0x00000000080009d8                xPortSysTickHandler
 .text.__exc_pendsv
                0x00000000080009fc       0x48 /home/fx/Upwork/weather-node/output/libraries/FreeRTOS821/utility/port.c.o
                0x00000000080009fc                __exc_pendsv
 .text.prvResetNextTaskUnblockTime
                0x0000000008000a44       0x24 /home/fx/Upwork/weather-node/output/libraries/FreeRTOS821/utility/tasks.c.o
 .text.prvAddCurrentTaskToDelayedList
                0x0000000008000a68       0x50 /home/fx/Upwork/weather-node/output/libraries/FreeRTOS821/utility/tasks.c.o
 .text.xTaskGenericCreate
                0x0000000008000ab8      0x1a4 /home/fx/Upwork/weather-node/output/libraries/FreeRTOS821/utility/tasks.c.o
                0x0000000008000ab8                xTaskGenericCreate
 .text.vTaskStartScheduler
                0x0000000008000c5c       0x4c /home/fx/Upwork/weather-node/output/libraries/FreeRTOS821/utility/tasks.c.o
                0x0000000008000c5c                vTaskStartScheduler
 .text.vTaskSuspendAll
                0x0000000008000ca8       0x10 /home/fx/Upwork/weather-node/output/libraries/FreeRTOS821/utility/tasks.c.o
                0x0000000008000ca8                vTaskSuspendAll
 .text.xTaskIncrementTick
                0x0000000008000cb8       0xfc /home/fx/Upwork/weather-node/output/libraries/FreeRTOS821/utility/tasks.c.o
                0x0000000008000cb8                xTaskIncrementTick
 .text.xTaskResumeAll
                0x0000000008000db4       0xc0 /home/fx/Upwork/weather-node/output/libraries/FreeRTOS821/utility/tasks.c.o
                0x0000000008000db4                xTaskResumeAll
 .text.vTaskDelay
                0x0000000008000e74       0x54 /home/fx/Upwork/weather-node/output/libraries/FreeRTOS821/utility/tasks.c.o
                0x0000000008000e74                vTaskDelay
 .text.prvIdleTask
                0x0000000008000ec8       0x64 /home/fx/Upwork/weather-node/output/libraries/FreeRTOS821/utility/tasks.c.o
 .text.vTaskSwitchContext
                0x0000000008000f2c       0x8c /home/fx/Upwork/weather-node/output/libraries/FreeRTOS821/utility/tasks.c.o
                0x0000000008000f2c                vTaskSwitchContext
 .text._ZN3DHTC2Ehhh
                0x0000000008000fb8        0xc /home/fx/Upwork/weather-node/output/libraries/DHT_sensor_library/DHT.cpp.o
                0x0000000008000fb8                DHT::DHT(unsigned char, unsigned char, unsigned char)
                0x0000000008000fb8                DHT::DHT(unsigned char, unsigned char, unsigned char)
 .text._ZN3DHT5beginEh
                0x0000000008000fc4       0x20 /home/fx/Upwork/weather-node/output/libraries/DHT_sensor_library/DHT.cpp.o
                0x0000000008000fc4                DHT::begin(unsigned char)
 .text._ZN3DHT11expectPulseEb
                0x0000000008000fe4       0x28 /home/fx/Upwork/weather-node/output/libraries/DHT_sensor_library/DHT.cpp.o
                0x0000000008000fe4                DHT::expectPulse(bool)
 .text._ZN3DHT4readEb
                0x000000000800100c      0x11c /home/fx/Upwork/weather-node/output/libraries/DHT_sensor_library/DHT.cpp.o
                0x000000000800100c                DHT::read(bool)
 .text._ZN3DHT15readTemperatureEbb
                0x0000000008001128      0x130 /home/fx/Upwork/weather-node/output/libraries/DHT_sensor_library/DHT.cpp.o
                0x0000000008001128                DHT::readTemperature(bool, bool)
 .text._ZN3DHT12readHumidityEb
                0x0000000008001258       0x80 /home/fx/Upwork/weather-node/output/libraries/DHT_sensor_library/DHT.cpp.o
                0x0000000008001258                DHT::readHumidity(bool)
 .text._Z9boardInitv
                0x00000000080012d8        0x2 /home/fx/Upwork/weather-node/output/core/board.cpp.o
                0x00000000080012d8                boardInit()
 *fill*         0x00000000080012da        0x2 
 .text.startup._GLOBAL__sub_I__Z9boardInitv
                0x00000000080012dc       0x48 /home/fx/Upwork/weather-node/output/core/board.cpp.o
 .text._ZL18adc_default_configP7adc_dev
                0x0000000008001324       0x1c /home/fx/Upwork/weather-node/output/core/wirish/boards.cpp.o
 .text._ZL20timer_default_configP9timer_dev
                0x0000000008001340       0x9e /home/fx/Upwork/weather-node/output/core/wirish/boards.cpp.o
 *fill*         0x00000000080013de        0x2 
 .text._Z4initv
                0x00000000080013e0       0xb8 /home/fx/Upwork/weather-node/output/core/wirish/boards.cpp.o
                0x00000000080013e0                init()
 .text._ZN6wirish4priv15board_reset_pllEv
                0x0000000008001498        0x2 /home/fx/Upwork/weather-node/output/core/wirish/boards_setup.cpp.o
                0x0000000008001498                wirish::priv::board_reset_pll()
 .text._ZN6wirish4priv28board_setup_clock_prescalersEv
                0x000000000800149a       0x30 /home/fx/Upwork/weather-node/output/core/wirish/boards_setup.cpp.o
                0x000000000800149a                wirish::priv::board_setup_clock_prescalers()
 .text._ZN6wirish4priv16board_setup_gpioEv
                0x00000000080014ca        0x4 /home/fx/Upwork/weather-node/output/core/wirish/boards_setup.cpp.o
                0x00000000080014ca                wirish::priv::board_setup_gpio()
 *fill*         0x00000000080014ce        0x2 
 .text._ZN6wirish4priv15board_setup_usbEv
                0x00000000080014d0       0x54 /home/fx/Upwork/weather-node/output/core/wirish/boards_setup.cpp.o
                0x00000000080014d0                wirish::priv::board_setup_usb()
 .text._ZN6wirish4priv11series_initEv
                0x0000000008001524        0x4 /home/fx/Upwork/weather-node/output/core/wirish/boards_setup.cpp.o
                0x0000000008001524                wirish::priv::series_init()
 .text          0x0000000008001528       0x10 /home/fx/Upwork/weather-node/output/core/wirish/start.S.o
                0x0000000008001528                __start__
 .text.start_c  0x0000000008001538       0x58 /home/fx/Upwork/weather-node/output/core/wirish/start_c.c.o
                0x0000000008001538                start_c
 .text._sbrk    0x0000000008001590       0x44 /home/fx/Upwork/weather-node/output/core/wirish/syscalls.c.o
                0x0000000008001590                _sbrk
 .text.rb_full_count
                0x00000000080015d4       0x22 /home/fx/Upwork/weather-node/output/core/core.a(HardwareSerial.cpp.o)
 .text._ZN14HardwareSerial4readEv
                0x00000000080015f6       0x3a /home/fx/Upwork/weather-node/output/core/core.a(HardwareSerial.cpp.o)
                0x00000000080015f6                HardwareSerial::read()
 .text._ZN14HardwareSerial9availableEv
                0x0000000008001630        0xc /home/fx/Upwork/weather-node/output/core/core.a(HardwareSerial.cpp.o)
                0x0000000008001630                HardwareSerial::available()
 .text._ZN14HardwareSerial4peekEv
                0x000000000800163c       0x22 /home/fx/Upwork/weather-node/output/core/core.a(HardwareSerial.cpp.o)
                0x000000000800163c                HardwareSerial::peek()
 .text._ZN14HardwareSerial5flushEv
                0x000000000800165e       0x1a /home/fx/Upwork/weather-node/output/core/core.a(HardwareSerial.cpp.o)
                0x000000000800165e                HardwareSerial::flush()
 .text._ZN14HardwareSerial5writeEh
                0x0000000008001678       0x1e /home/fx/Upwork/weather-node/output/core/core.a(HardwareSerial.cpp.o)
                0x0000000008001678                HardwareSerial::write(unsigned char)
 *fill*         0x0000000008001696        0x2 
 .text._ZN14HardwareSerialC2EP9usart_devhh
                0x0000000008001698       0x1c /home/fx/Upwork/weather-node/output/core/core.a(HardwareSerial.cpp.o)
                0x0000000008001698                HardwareSerial::HardwareSerial(usart_dev*, unsigned char, unsigned char)
                0x0000000008001698                HardwareSerial::HardwareSerial(usart_dev*, unsigned char, unsigned char)
 .text._ZN14HardwareSerial5beginEmh
                0x00000000080016b4       0x78 /home/fx/Upwork/weather-node/output/core/core.a(HardwareSerial.cpp.o)
                0x00000000080016b4                HardwareSerial::begin(unsigned long, unsigned char)
 .text._ZN14HardwareSerial5beginEm
                0x000000000800172c        0x6 /home/fx/Upwork/weather-node/output/core/core.a(HardwareSerial.cpp.o)
                0x000000000800172c                HardwareSerial::begin(unsigned long)
 .text._ZN5Print5writeEPKvm
                0x0000000008001732       0x20 /home/fx/Upwork/weather-node/output/core/core.a(Print.cpp.o)
                0x0000000008001732                Print::write(void const*, unsigned long)
 .text._ZN5Print5writeEPKc
                0x0000000008001752       0x1e /home/fx/Upwork/weather-node/output/core/core.a(Print.cpp.o)
                0x0000000008001752                Print::write(char const*)
 .text._ZN5Print5printEc
                0x0000000008001770        0xa /home/fx/Upwork/weather-node/output/core/core.a(Print.cpp.o)
                0x0000000008001770                Print::print(char)
 .text._ZN5Print5printEPKc
                0x000000000800177a        0xa /home/fx/Upwork/weather-node/output/core/core.a(Print.cpp.o)
                0x000000000800177a                Print::print(char const*)
 .text._ZN5Print7printlnEv
                0x0000000008001784       0x18 /home/fx/Upwork/weather-node/output/core/core.a(Print.cpp.o)
                0x0000000008001784                Print::println()
 .text._ZN5Print7printlnEPKc
                0x000000000800179c       0x14 /home/fx/Upwork/weather-node/output/core/core.a(Print.cpp.o)
                0x000000000800179c                Print::println(char const*)
 .text.adc_init
                0x00000000080017b0       0x14 /home/fx/Upwork/weather-node/output/core/core.a(adc.c.o)
                0x00000000080017b0                adc_init
 .text.adc_set_extsel
                0x00000000080017c4       0x12 /home/fx/Upwork/weather-node/output/core/core.a(adc.c.o)
                0x00000000080017c4                adc_set_extsel
 .text.adc_set_sample_rate
                0x00000000080017d6       0x30 /home/fx/Upwork/weather-node/output/core/core.a(adc.c.o)
                0x00000000080017d6                adc_set_sample_rate
 *fill*         0x0000000008001806        0x2 
 .text.__irq_adc
                0x0000000008001808       0x50 /home/fx/Upwork/weather-node/output/core/core.a(adc_f1.c.o)
                0x0000000008001808                __irq_adc
 .text.adc_calibrate
                0x0000000008001858       0x24 /home/fx/Upwork/weather-node/output/core/core.a(adc_f1.c.o)
                0x0000000008001858                adc_calibrate
 .text.adc_set_prescaler
                0x000000000800187c        0x8 /home/fx/Upwork/weather-node/output/core/core.a(adc_f1.c.o)
                0x000000000800187c                adc_set_prescaler
 .text.adc_foreach
                0x0000000008001884       0x1c /home/fx/Upwork/weather-node/output/core/core.a(adc_f1.c.o)
                0x0000000008001884                adc_foreach
 .text.adc_enable_single_swstart
                0x00000000080018a0       0x36 /home/fx/Upwork/weather-node/output/core/core.a(adc_f1.c.o)
                0x00000000080018a0                adc_enable_single_swstart
 .text.dma_irq_handler
                0x00000000080018d6       0x1c /home/fx/Upwork/weather-node/output/core/core.a(dma_f1.c.o)
 *fill*         0x00000000080018f2        0x2 
 .text.__irq_dma1_channel1
                0x00000000080018f4       0x10 /home/fx/Upwork/weather-node/output/core/core.a(dma_f1.c.o)
                0x00000000080018f4                __irq_dma1_channel1
 .text.__irq_dma1_channel2
                0x0000000008001904       0x10 /home/fx/Upwork/weather-node/output/core/core.a(dma_f1.c.o)
                0x0000000008001904                __irq_dma1_channel2
 .text.__irq_dma1_channel3
                0x0000000008001914       0x10 /home/fx/Upwork/weather-node/output/core/core.a(dma_f1.c.o)
                0x0000000008001914                __irq_dma1_channel3
 .text.__irq_dma1_channel4
                0x0000000008001924       0x10 /home/fx/Upwork/weather-node/output/core/core.a(dma_f1.c.o)
                0x0000000008001924                __irq_dma1_channel4
 .text.__irq_dma1_channel5
                0x0000000008001934       0x10 /home/fx/Upwork/weather-node/output/core/core.a(dma_f1.c.o)
                0x0000000008001934                __irq_dma1_channel5
 .text.__irq_dma1_channel6
                0x0000000008001944       0x10 /home/fx/Upwork/weather-node/output/core/core.a(dma_f1.c.o)
                0x0000000008001944                __irq_dma1_channel6
 .text.__irq_dma1_channel7
                0x0000000008001954       0x10 /home/fx/Upwork/weather-node/output/core/core.a(dma_f1.c.o)
                0x0000000008001954                __irq_dma1_channel7
 *fill*         0x0000000008001964        0xc 
 .text          0x0000000008001970       0x60 /home/fx/Upwork/weather-node/output/core/core.a(exc.S.o)
                0x0000000008001970                __exc_nmi
                0x0000000008001974                __exc_hardfault
                0x0000000008001978                __exc_memmanage
                0x000000000800197c                __exc_busfault
                0x0000000008001980                __exc_usagefault
 .text.dispatch_single_exti
                0x00000000080019d0       0x2c /home/fx/Upwork/weather-node/output/core/core.a(exti.c.o)
                0x00000000080019d0                dispatch_single_exti
 .text.dispatch_extis
                0x00000000080019fc       0x4c /home/fx/Upwork/weather-node/output/core/core.a(exti.c.o)
                0x00000000080019fc                dispatch_extis
 .text.__irq_exti0
                0x0000000008001a48        0x6 /home/fx/Upwork/weather-node/output/core/core.a(exti.c.o)
                0x0000000008001a48                __irq_exti0
 .text.__irq_exti1
                0x0000000008001a4e        0x6 /home/fx/Upwork/weather-node/output/core/core.a(exti.c.o)
                0x0000000008001a4e                __irq_exti1
 .text.__irq_exti2
                0x0000000008001a54        0x6 /home/fx/Upwork/weather-node/output/core/core.a(exti.c.o)
                0x0000000008001a54                __irq_exti2
 .text.__irq_exti3
                0x0000000008001a5a        0x6 /home/fx/Upwork/weather-node/output/core/core.a(exti.c.o)
                0x0000000008001a5a                __irq_exti3
 .text.__irq_exti4
                0x0000000008001a60        0x6 /home/fx/Upwork/weather-node/output/core/core.a(exti.c.o)
                0x0000000008001a60                __irq_exti4
 .text.__irq_exti9_5
                0x0000000008001a66        0x8 /home/fx/Upwork/weather-node/output/core/core.a(exti.c.o)
                0x0000000008001a66                __irq_exti9_5
 .text.__irq_exti15_10
                0x0000000008001a6e        0x8 /home/fx/Upwork/weather-node/output/core/core.a(exti.c.o)
                0x0000000008001a6e                __irq_exti15_10
 *fill*         0x0000000008001a76        0x2 
 .text.flash_set_latency
                0x0000000008001a78       0x14 /home/fx/Upwork/weather-node/output/core/core.a(flash.c.o)
                0x0000000008001a78                flash_set_latency
 .text.gpio_init_all
                0x0000000008001a8c       0x30 /home/fx/Upwork/weather-node/output/core/core.a(gpio_f1.c.o)
                0x0000000008001a8c                gpio_init_all
 .text.gpio_set_mode
                0x0000000008001abc       0x50 /home/fx/Upwork/weather-node/output/core/core.a(gpio_f1.c.o)
                0x0000000008001abc                gpio_set_mode
 .text.afio_init
                0x0000000008001b0c       0x12 /home/fx/Upwork/weather-node/output/core/core.a(gpio_f1.c.o)
                0x0000000008001b0c                afio_init
 *fill*         0x0000000008001b1e        0x2 
 .text.__irq_i2c1_ev
                0x0000000008001b20        0xc /home/fx/Upwork/weather-node/output/core/core.a(i2c_f1.c.o)
                0x0000000008001b20                __irq_i2c1_ev
 .text.__irq_i2c2_ev
                0x0000000008001b2c        0xc /home/fx/Upwork/weather-node/output/core/core.a(i2c_f1.c.o)
                0x0000000008001b2c                __irq_i2c2_ev
 .text.__irq_i2c1_er
                0x0000000008001b38        0xc /home/fx/Upwork/weather-node/output/core/core.a(i2c_f1.c.o)
                0x0000000008001b38                __irq_i2c1_er
 .text.__irq_i2c2_er
                0x0000000008001b44        0xc /home/fx/Upwork/weather-node/output/core/core.a(i2c_f1.c.o)
                0x0000000008001b44                __irq_i2c2_er
 .text.nvic_irq_set_priority
                0x0000000008001b50       0x28 /home/fx/Upwork/weather-node/output/core/core.a(nvic.c.o)
                0x0000000008001b50                nvic_irq_set_priority
 .text.nvic_init
                0x0000000008001b78       0x30 /home/fx/Upwork/weather-node/output/core/core.a(nvic.c.o)
                0x0000000008001b78                nvic_init
 .text.nvic_sys_reset
                0x0000000008001ba8       0x1c /home/fx/Upwork/weather-node/output/core/core.a(nvic.c.o)
                0x0000000008001ba8                nvic_sys_reset
 .text.rcc_dev_clk
                0x0000000008001bc4        0xc /home/fx/Upwork/weather-node/output/core/core.a(rcc.c.o)
                0x0000000008001bc4                rcc_dev_clk
 .text.rcc_switch_sysclk
                0x0000000008001bd0       0x20 /home/fx/Upwork/weather-node/output/core/core.a(rcc.c.o)
                0x0000000008001bd0                rcc_switch_sysclk
 .text.rcc_turn_on_clk
                0x0000000008001bf0       0x1a /home/fx/Upwork/weather-node/output/core/core.a(rcc.c.o)
                0x0000000008001bf0                rcc_turn_on_clk
 .text.rcc_turn_off_clk
                0x0000000008001c0a       0x1c /home/fx/Upwork/weather-node/output/core/core.a(rcc.c.o)
                0x0000000008001c0a                rcc_turn_off_clk
 .text.rcc_is_clk_on
                0x0000000008001c26       0x1e /home/fx/Upwork/weather-node/output/core/core.a(rcc.c.o)
                0x0000000008001c26                rcc_is_clk_on
 .text.rcc_is_clk_ready
                0x0000000008001c44       0x18 /home/fx/Upwork/weather-node/output/core/core.a(rcc.c.o)
                0x0000000008001c44                rcc_is_clk_ready
 .text.rcc_configure_pll
                0x0000000008001c5c       0x38 /home/fx/Upwork/weather-node/output/core/core.a(rcc_f1.c.o)
                0x0000000008001c5c                rcc_configure_pll
 .text.rcc_clk_enable
                0x0000000008001c94       0x30 /home/fx/Upwork/weather-node/output/core/core.a(rcc_f1.c.o)
                0x0000000008001c94                rcc_clk_enable
 .text.rcc_reset_dev
                0x0000000008001cc4       0x34 /home/fx/Upwork/weather-node/output/core/core.a(rcc_f1.c.o)
                0x0000000008001cc4                rcc_reset_dev
 .text.rcc_set_prescaler
                0x0000000008001cf8       0x20 /home/fx/Upwork/weather-node/output/core/core.a(rcc_f1.c.o)
                0x0000000008001cf8                rcc_set_prescaler
 .text.rcc_clk_disable
                0x0000000008001d18       0x30 /home/fx/Upwork/weather-node/output/core/core.a(rcc_f1.c.o)
                0x0000000008001d18                rcc_clk_disable
 .text          0x0000000008001d48        0x2 /home/fx/Upwork/weather-node/output/core/core.a(isrs.S.o)
                0x0000000008001d48                __stm32reservedexception9
                0x0000000008001d48                __exc_debug_monitor
                0x0000000008001d48                __irq_can_rx1
                0x0000000008001d48                __irq_spi2
                0x0000000008001d48                __irq_can_sce
                0x0000000008001d48                __irq_pvd
                0x0000000008001d48                __irq_tamper
                0x0000000008001d48                __default_handler
                0x0000000008001d48                __irq_wwdg
                0x0000000008001d48                __stm32reservedexception10
                0x0000000008001d48                __irq_flash
                0x0000000008001d48                __stm32reservedexception13
                0x0000000008001d48                __irq_rtc
                0x0000000008001d48                __irq_spi1
                0x0000000008001d48                __stm32reservedexception7
                0x0000000008001d48                __irq_usb_hp_can_tx
                0x0000000008001d48                __irq_rtcalarm
                0x0000000008001d48                __stm32reservedexception8
                0x0000000008001d48                __irq_usbwakeup
                0x0000000008001d48                __irq_rcc
 *fill*         0x0000000008001d4a        0x2 
 .text.systick_init
                0x0000000008001d4c       0x10 /home/fx/Upwork/weather-node/output/core/core.a(systick.c.o)
                0x0000000008001d4c                systick_init
 .text.systick_attach_callback
                0x0000000008001d5c        0xc /home/fx/Upwork/weather-node/output/core/core.a(systick.c.o)
                0x0000000008001d5c                systick_attach_callback
 .text.__exc_systick
                0x0000000008001d68       0x1c /home/fx/Upwork/weather-node/output/core/core.a(systick.c.o)
                0x0000000008001d68                __exc_systick
 .text.timer_oc_set_mode
                0x0000000008001d84       0x3a /home/fx/Upwork/weather-node/output/core/core.a(timer.c.o)
 .text.dispatch_general
                0x0000000008001dbe       0x66 /home/fx/Upwork/weather-node/output/core/core.a(timer.c.o)
 .text.timer_cc_enable
                0x0000000008001e24       0x1c /home/fx/Upwork/weather-node/output/core/core.a(timer.c.o)
 .text.timer_foreach
                0x0000000008001e40       0x28 /home/fx/Upwork/weather-node/output/core/core.a(timer.c.o)
                0x0000000008001e40                timer_foreach
 .text.timer_init
                0x0000000008001e68       0x14 /home/fx/Upwork/weather-node/output/core/core.a(timer.c.o)
                0x0000000008001e68                timer_init
 .text.timer_has_cc_channel
                0x0000000008001e7c       0x50 /home/fx/Upwork/weather-node/output/core/core.a(timer.c.o)
                0x0000000008001e7c                timer_has_cc_channel
 .text.timer_detach_interrupt
                0x0000000008001ecc       0x1e /home/fx/Upwork/weather-node/output/core/core.a(timer.c.o)
                0x0000000008001ecc                timer_detach_interrupt
 .text.input_capture_mode
                0x0000000008001eea       0x1a /home/fx/Upwork/weather-node/output/core/core.a(timer.c.o)
                0x0000000008001eea                input_capture_mode
 .text.timer_set_mode
                0x0000000008001f04       0xcc /home/fx/Upwork/weather-node/output/core/core.a(timer.c.o)
                0x0000000008001f04                timer_set_mode
 .text.__irq_tim1_brk
                0x0000000008001fd0       0x24 /home/fx/Upwork/weather-node/output/core/core.a(timer.c.o)
                0x0000000008001fd0                __irq_tim1_brk
 .text.__irq_tim1_up
                0x0000000008001ff4       0x24 /home/fx/Upwork/weather-node/output/core/core.a(timer.c.o)
                0x0000000008001ff4                __irq_tim1_up
 .text.__irq_tim1_trg_com
                0x0000000008002018       0x34 /home/fx/Upwork/weather-node/output/core/core.a(timer.c.o)
                0x0000000008002018                __irq_tim1_trg_com
 .text.__irq_tim1_cc
                0x000000000800204c       0x50 /home/fx/Upwork/weather-node/output/core/core.a(timer.c.o)
                0x000000000800204c                __irq_tim1_cc
 .text.__irq_tim2
                0x000000000800209c        0xc /home/fx/Upwork/weather-node/output/core/core.a(timer.c.o)
                0x000000000800209c                __irq_tim2
 .text.__irq_tim3
                0x00000000080020a8        0xc /home/fx/Upwork/weather-node/output/core/core.a(timer.c.o)
                0x00000000080020a8                __irq_tim3
 .text.__irq_tim4
                0x00000000080020b4        0xc /home/fx/Upwork/weather-node/output/core/core.a(timer.c.o)
                0x00000000080020b4                __irq_tim4
 .text.usart_init
                0x00000000080020c0       0x4c /home/fx/Upwork/weather-node/output/core/core.a(usart.c.o)
                0x00000000080020c0                usart_init
 .text.usart_enable
                0x000000000800210c       0x14 /home/fx/Upwork/weather-node/output/core/core.a(usart.c.o)
                0x000000000800210c                usart_enable
 .text.usart_tx
                0x0000000008002120       0x9c /home/fx/Upwork/weather-node/output/core/core.a(usart.c.o)
                0x0000000008002120                usart_tx
 .text.usart_putudec
                0x00000000080021bc       0x44 /home/fx/Upwork/weather-node/output/core/core.a(usart.c.o)
                0x00000000080021bc                usart_putudec
 .text.usart_irq
                0x0000000008002200       0xc8 /home/fx/Upwork/weather-node/output/core/core.a(usart_f1.c.o)
 .text.usart_config_gpios_async
                0x00000000080022c8       0x4a /home/fx/Upwork/weather-node/output/core/core.a(usart_f1.c.o)
                0x00000000080022c8                usart_config_gpios_async
 *fill*         0x0000000008002312        0x2 
 .text.usart_set_baud_rate
                0x0000000008002314       0x54 /home/fx/Upwork/weather-node/output/core/core.a(usart_f1.c.o)
                0x0000000008002314                usart_set_baud_rate
 .text.__irq_usart1
                0x0000000008002368       0x18 /home/fx/Upwork/weather-node/output/core/core.a(usart_f1.c.o)
                0x0000000008002368                __irq_usart1
 .text.__irq_usart2
                0x0000000008002380       0x18 /home/fx/Upwork/weather-node/output/core/core.a(usart_f1.c.o)
                0x0000000008002380                __irq_usart2
 .text.__irq_usart3
                0x0000000008002398       0x18 /home/fx/Upwork/weather-node/output/core/core.a(usart_f1.c.o)
                0x0000000008002398                __irq_usart3
 .text._usart_clock_freq
                0x00000000080023b0       0x24 /home/fx/Upwork/weather-node/output/core/core.a(usart_private.c.o)
                0x00000000080023b0                _usart_clock_freq
 .text.usb_resume
                0x00000000080023d4       0xb4 /home/fx/Upwork/weather-node/output/core/core.a(usb.c.o)
 .text.usb_init_usblib
                0x0000000008002488       0x48 /home/fx/Upwork/weather-node/output/core/core.a(usb.c.o)
                0x0000000008002488                usb_init_usblib
 .text.__irq_usb_lp_can_rx0
                0x00000000080024d0      0x1f0 /home/fx/Upwork/weather-node/output/core/core.a(usb.c.o)
                0x00000000080024d0                __irq_usb_lp_can_rx0
 .text.usb_set_ep_rx_stat
                0x00000000080026c0       0x22 /home/fx/Upwork/weather-node/output/core/core.a(usb_cdcacm.c.o)
 *fill*         0x00000000080026e2        0x2 
 .text.vcomGetSetLineCoding
                0x00000000080026e4       0x18 /home/fx/Upwork/weather-node/output/core/core.a(usb_cdcacm.c.o)
 .text.usbDataSetup
                0x00000000080026fc       0x54 /home/fx/Upwork/weather-node/output/core/core.a(usb_cdcacm.c.o)
 .text.usbNoDataSetup
                0x0000000008002750       0x50 /home/fx/Upwork/weather-node/output/core/core.a(usb_cdcacm.c.o)
 .text.usbGetInterfaceSetting
                0x00000000080027a0       0x10 /home/fx/Upwork/weather-node/output/core/core.a(usb_cdcacm.c.o)
 .text.usbSetConfiguration
                0x00000000080027b0       0x1c /home/fx/Upwork/weather-node/output/core/core.a(usb_cdcacm.c.o)
 .text.usbSetDeviceAddress
                0x00000000080027cc       0x10 /home/fx/Upwork/weather-node/output/core/core.a(usb_cdcacm.c.o)
 .text.usbGetStringDescriptor
                0x00000000080027dc       0x20 /home/fx/Upwork/weather-node/output/core/core.a(usb_cdcacm.c.o)
 .text.usbGetConfigDescriptor
                0x00000000080027fc        0xc /home/fx/Upwork/weather-node/output/core/core.a(usb_cdcacm.c.o)
 .text.usbGetDeviceDescriptor
                0x0000000008002808        0xc /home/fx/Upwork/weather-node/output/core/core.a(usb_cdcacm.c.o)
 .text.usbInit  0x0000000008002814       0x44 /home/fx/Upwork/weather-node/output/core/core.a(usb_cdcacm.c.o)
 .text.vcomDataTxCb
                0x0000000008002858       0xa0 /home/fx/Upwork/weather-node/output/core/core.a(usb_cdcacm.c.o)
 .text.usbReset
                0x00000000080028f8      0x160 /home/fx/Upwork/weather-node/output/core/core.a(usb_cdcacm.c.o)
 .text.vcomDataRxCb
                0x0000000008002a58       0x7c /home/fx/Upwork/weather-node/output/core/core.a(usb_cdcacm.c.o)
 .text.usb_cdcacm_set_hooks
                0x0000000008002ad4       0x1c /home/fx/Upwork/weather-node/output/core/core.a(usb_cdcacm.c.o)
                0x0000000008002ad4                usb_cdcacm_set_hooks
 .text.usb_cdcacm_enable
                0x0000000008002af0       0x38 /home/fx/Upwork/weather-node/output/core/core.a(usb_cdcacm.c.o)
                0x0000000008002af0                usb_cdcacm_enable
 .text.usb_cdcacm_tx
                0x0000000008002b28       0x60 /home/fx/Upwork/weather-node/output/core/core.a(usb_cdcacm.c.o)
                0x0000000008002b28                usb_cdcacm_tx
 .text.usb_cdcacm_data_available
                0x0000000008002b88       0x18 /home/fx/Upwork/weather-node/output/core/core.a(usb_cdcacm.c.o)
                0x0000000008002b88                usb_cdcacm_data_available
 .text.usb_cdcacm_peek
                0x0000000008002ba0       0x38 /home/fx/Upwork/weather-node/output/core/core.a(usb_cdcacm.c.o)
                0x0000000008002ba0                usb_cdcacm_peek
 .text.usb_cdcacm_rx
                0x0000000008002bd8       0x34 /home/fx/Upwork/weather-node/output/core/core.a(usb_cdcacm.c.o)
                0x0000000008002bd8                usb_cdcacm_rx
 .text.usb_cdcacm_peek_ex
                0x0000000008002c0c       0x3c /home/fx/Upwork/weather-node/output/core/core.a(usb_cdcacm.c.o)
                0x0000000008002c0c                usb_cdcacm_peek_ex
 .text.usb_cdcacm_get_dtr
                0x0000000008002c48       0x10 /home/fx/Upwork/weather-node/output/core/core.a(usb_cdcacm.c.o)
                0x0000000008002c48                usb_cdcacm_get_dtr
 .text.usb_set_ep_rx_count
                0x0000000008002c58       0x4c /home/fx/Upwork/weather-node/output/core/core.a(usb_reg_map.c.o)
                0x0000000008002c58                usb_set_ep_rx_count
 .text.Standard_GetConfiguration
                0x0000000008002ca4       0x24 /home/fx/Upwork/weather-node/output/core/core.a(usb_core.c.o)
                0x0000000008002ca4                Standard_GetConfiguration
 .text.Standard_GetInterface
                0x0000000008002cc8       0x24 /home/fx/Upwork/weather-node/output/core/core.a(usb_core.c.o)
                0x0000000008002cc8                Standard_GetInterface
 .text.Standard_GetStatus
                0x0000000008002cec       0x90 /home/fx/Upwork/weather-node/output/core/core.a(usb_core.c.o)
                0x0000000008002cec                Standard_GetStatus
 .text.DataStageIn
                0x0000000008002d7c       0xa8 /home/fx/Upwork/weather-node/output/core/core.a(usb_core.c.o)
 .text.Standard_SetConfiguration
                0x0000000008002e24       0x38 /home/fx/Upwork/weather-node/output/core/core.a(usb_core.c.o)
                0x0000000008002e24                Standard_SetConfiguration
 .text.Standard_SetInterface
                0x0000000008002e5c       0x48 /home/fx/Upwork/weather-node/output/core/core.a(usb_core.c.o)
                0x0000000008002e5c                Standard_SetInterface
 .text.Standard_ClearFeature
                0x0000000008002ea4       0xd0 /home/fx/Upwork/weather-node/output/core/core.a(usb_core.c.o)
                0x0000000008002ea4                Standard_ClearFeature
 .text.Standard_SetEndPointFeature
                0x0000000008002f74       0x84 /home/fx/Upwork/weather-node/output/core/core.a(usb_core.c.o)
                0x0000000008002f74                Standard_SetEndPointFeature
 .text.Standard_SetDeviceFeature
                0x0000000008002ff8       0x24 /home/fx/Upwork/weather-node/output/core/core.a(usb_core.c.o)
                0x0000000008002ff8                Standard_SetDeviceFeature
 .text.Standard_GetDescriptorData
                0x000000000800301c       0x1c /home/fx/Upwork/weather-node/output/core/core.a(usb_core.c.o)
                0x000000000800301c                Standard_GetDescriptorData
 .text.Post0_Process
                0x0000000008003038       0x40 /home/fx/Upwork/weather-node/output/core/core.a(usb_core.c.o)
                0x0000000008003038                Post0_Process
 .text.Setup0_Process
                0x0000000008003078      0x2d0 /home/fx/Upwork/weather-node/output/core/core.a(usb_core.c.o)
                0x0000000008003078                Setup0_Process
 .text.Out0_Process
                0x0000000008003348       0xc8 /home/fx/Upwork/weather-node/output/core/core.a(usb_core.c.o)
                0x0000000008003348                Out0_Process
 .text.SetDeviceAddress
                0x0000000008003410       0x38 /home/fx/Upwork/weather-node/output/core/core.a(usb_core.c.o)
                0x0000000008003410                SetDeviceAddress
 .text.In0_Process
                0x0000000008003448       0x5c /home/fx/Upwork/weather-node/output/core/core.a(usb_core.c.o)
                0x0000000008003448                In0_Process
 .text.NOP_Process
                0x00000000080034a4        0x2 /home/fx/Upwork/weather-node/output/core/core.a(usb_core.c.o)
                0x00000000080034a4                NOP_Process
 .text.UserToPMABufferCopy
                0x00000000080034a6       0x30 /home/fx/Upwork/weather-node/output/core/core.a(usb_mem.c.o)
                0x00000000080034a6                UserToPMABufferCopy
 .text.PMAToUserBufferCopy
                0x00000000080034d6       0x32 /home/fx/Upwork/weather-node/output/core/core.a(usb_mem.c.o)
                0x00000000080034d6                PMAToUserBufferCopy
 .text.SetEPTxStatus
                0x0000000008003508       0x2a /home/fx/Upwork/weather-node/output/core/core.a(usb_regs.c.o)
                0x0000000008003508                SetEPTxStatus
 .text.ClearDTOG_RX
                0x0000000008003532       0x20 /home/fx/Upwork/weather-node/output/core/core.a(usb_regs.c.o)
                0x0000000008003532                ClearDTOG_RX
 .text.ClearDTOG_TX
                0x0000000008003552       0x20 /home/fx/Upwork/weather-node/output/core/core.a(usb_regs.c.o)
                0x0000000008003552                ClearDTOG_TX
 *fill*         0x0000000008003572        0x2 
 .text.GetEPTxAddr
                0x0000000008003574       0x1c /home/fx/Upwork/weather-node/output/core/core.a(usb_regs.c.o)
                0x0000000008003574                GetEPTxAddr
 .text.GetEPRxAddr
                0x0000000008003590       0x1c /home/fx/Upwork/weather-node/output/core/core.a(usb_regs.c.o)
                0x0000000008003590                GetEPRxAddr
 .text.SetEPTxCount
                0x00000000080035ac       0x1c /home/fx/Upwork/weather-node/output/core/core.a(usb_regs.c.o)
                0x00000000080035ac                SetEPTxCount
 .text.SetEPRxCount
                0x00000000080035c8       0x40 /home/fx/Upwork/weather-node/output/core/core.a(usb_regs.c.o)
                0x00000000080035c8                SetEPRxCount
 .text.usart_putc
                0x0000000008003608       0x1c /home/fx/Upwork/weather-node/output/core/core.a(util.c.o)
 .text.usart_putstr
                0x0000000008003624       0x16 /home/fx/Upwork/weather-node/output/core/core.a(util.c.o)
 *fill*         0x000000000800363a        0x2 
 .text.throb    0x000000000800363c       0x4c /home/fx/Upwork/weather-node/output/core/core.a(util.c.o)
                0x000000000800363c                throb
 .text.__error  0x0000000008003688       0x14 /home/fx/Upwork/weather-node/output/core/core.a(util.c.o)
                0x0000000008003688                __error
 .text._fail    0x000000000800369c       0x64 /home/fx/Upwork/weather-node/output/core/core.a(util.c.o)
                0x000000000800369c                _fail
 .text.startup._Z7premainv
                0x0000000008003700        0x4 /home/fx/Upwork/weather-node/output/core/core.a(main.cpp.o)
                0x0000000008003700                premain()
 .text.startup.main
                0x0000000008003704        0xc /home/fx/Upwork/weather-node/output/core/core.a(main.cpp.o)
                0x0000000008003704                main
 .text._Z7pinModeh13WiringPinMode
                0x0000000008003710       0x9c /home/fx/Upwork/weather-node/output/core/core.a(wirish_digital_f1.cpp.o)
                0x0000000008003710                pinMode(unsigned char, WiringPinMode)
 .text._ZN9USBSerial9availableEv
                0x00000000080037ac        0x4 /home/fx/Upwork/weather-node/output/core/core.a(usb_serial.cpp.o)
                0x00000000080037ac                USBSerial::available()
 .text._ZN9USBSerial4peekEv
                0x00000000080037b0       0x1e /home/fx/Upwork/weather-node/output/core/core.a(usb_serial.cpp.o)
                0x00000000080037b0                USBSerial::peek()
 .text._ZN9USBSerial4readEv
                0x00000000080037ce       0x1e /home/fx/Upwork/weather-node/output/core/core.a(usb_serial.cpp.o)
                0x00000000080037ce                USBSerial::read()
 .text._ZL14ifaceSetupHookjPv
                0x00000000080037ec       0x38 /home/fx/Upwork/weather-node/output/core/core.a(usb_serial.cpp.o)
 .text._ZL6rxHookjPv
                0x0000000008003824       0x80 /home/fx/Upwork/weather-node/output/core/core.a(usb_serial.cpp.o)
 .text._ZN9USBSerialC2Ev
                0x00000000080038a4       0x14 /home/fx/Upwork/weather-node/output/core/core.a(usb_serial.cpp.o)
                0x00000000080038a4                USBSerial::USBSerial()
                0x00000000080038a4                USBSerial::USBSerial()
 .text._ZN9USBSerial5beginEv
                0x00000000080038b8       0x34 /home/fx/Upwork/weather-node/output/core/core.a(usb_serial.cpp.o)
                0x00000000080038b8                USBSerial::begin()
 .text._ZN9USBSerial5beginEm
                0x00000000080038ec       0x10 /home/fx/Upwork/weather-node/output/core/core.a(usb_serial.cpp.o)
                0x00000000080038ec                USBSerial::begin(unsigned long)
 .text._ZN9USBSerial5writeEPKhm
                0x00000000080038fc       0x4c /home/fx/Upwork/weather-node/output/core/core.a(usb_serial.cpp.o)
                0x00000000080038fc                USBSerial::write(unsigned char const*, unsigned long)
 .text._ZN9USBSerial5writeEh
                0x0000000008003948       0x16 /home/fx/Upwork/weather-node/output/core/core.a(usb_serial.cpp.o)
                0x0000000008003948                USBSerial::write(unsigned char)
 .text._ZN9USBSerial5writeEPKc
                0x000000000800395e       0x1a /home/fx/Upwork/weather-node/output/core/core.a(usb_serial.cpp.o)
                0x000000000800395e                USBSerial::write(char const*)
 .text._ZN9USBSerial4readEPhm
                0x0000000008003978       0x1c /home/fx/Upwork/weather-node/output/core/core.a(usb_serial.cpp.o)
                0x0000000008003978                USBSerial::read(unsigned char*, unsigned long)
 .text._ZN9USBSerial5flushEv
                0x0000000008003994       0x1c /home/fx/Upwork/weather-node/output/core/core.a(usb_serial.cpp.o)
                0x0000000008003994                USBSerial::flush()
 .text.startup._GLOBAL__sub_I__ZN9USBSerial9_hasBegunE
                0x00000000080039b0        0xc /home/fx/Upwork/weather-node/output/core/core.a(usb_serial.cpp.o)
 .text._Z11digitalReadh
                0x00000000080039bc       0x2c /home/fx/Upwork/weather-node/output/core/core.a(wirish_digital.cpp.o)
                0x00000000080039bc                digitalRead(unsigned char)
 .text._Z12digitalWritehh
                0x00000000080039e8       0x2c /home/fx/Upwork/weather-node/output/core/core.a(wirish_digital.cpp.o)
                0x00000000080039e8                digitalWrite(unsigned char, unsigned char)
 .text._ZL6microsv
                0x0000000008003a14       0x34 /home/fx/Upwork/weather-node/output/core/core.a(wirish_time.cpp.o)
 .text._Z5delaym
                0x0000000008003a48       0x2a /home/fx/Upwork/weather-node/output/core/core.a(wirish_time.cpp.o)
                0x0000000008003a48                delay(unsigned long)
 .text._Z17delayMicrosecondsm
                0x0000000008003a72        0xe /home/fx/Upwork/weather-node/output/core/core.a(wirish_time.cpp.o)
                0x0000000008003a72                delayMicroseconds(unsigned long)
 .text.__empty  0x0000000008003a80        0x2 /home/fx/Upwork/weather-node/output/core/core.a(hooks.c.o)
                0x0000000008003a80                yield
 .text.bkp_init
                0x0000000008003a82       0x18 /home/fx/Upwork/weather-node/output/core/core.a(bkp_f1.c.o)
                0x0000000008003a82                bkp_init
 *fill*         0x0000000008003a9a        0x2 
 .text.bkp_enable_writes
                0x0000000008003a9c        0xc /home/fx/Upwork/weather-node/output/core/core.a(bkp_f1.c.o)
                0x0000000008003a9c                bkp_enable_writes
 .text.bkp_disable_writes
                0x0000000008003aa8        0xc /home/fx/Upwork/weather-node/output/core/core.a(bkp_f1.c.o)
                0x0000000008003aa8                bkp_disable_writes
 .text.bkp_write
                0x0000000008003ab4       0x28 /home/fx/Upwork/weather-node/output/core/core.a(bkp_f1.c.o)
                0x0000000008003ab4                bkp_write
 .text.gpio_init
                0x0000000008003adc       0x14 /home/fx/Upwork/weather-node/output/core/core.a(gpio.c.o)
                0x0000000008003adc                gpio_init
 .text.i2c_disable_irq
                0x0000000008003af0        0xc /home/fx/Upwork/weather-node/output/core/core.a(i2c.c.o)
 .text._i2c_irq_handler
                0x0000000008003afc      0x3d8 /home/fx/Upwork/weather-node/output/core/core.a(i2c.c.o)
                0x0000000008003afc                _i2c_irq_handler
 .text._i2c_irq_error_handler
                0x0000000008003ed4       0x74 /home/fx/Upwork/weather-node/output/core/core.a(i2c.c.o)
                0x0000000008003ed4                _i2c_irq_error_handler
 .text.__fpclassifyd
                0x0000000008003f48       0x50 /home/fx/.arduino15/packages/arduino/tools/arm-none-eabi-gcc/4.8.3-2014q1/bin/../lib/gcc/arm-none-eabi/4.8.3/../../../../arm-none-eabi/lib/armv7-m/libm.a(lib_a-s_fpclassify.o)
                0x0000000008003f48                __fpclassifyd
 .text          0x0000000008003f98      0x370 /home/fx/.arduino15/packages/arduino/tools/arm-none-eabi-gcc/4.8.3-2014q1/bin/../lib/gcc/arm-none-eabi/4.8.3/armv7-m/libgcc.a(_arm_addsubdf3.o)
                0x0000000008003f98                __aeabi_drsub
                0x0000000008003fa0                __aeabi_dsub
                0x0000000008003fa0                __subdf3
                0x0000000008003fa4                __adddf3
                0x0000000008003fa4                __aeabi_dadd
                0x000000000800421c                __aeabi_ui2d
                0x000000000800421c                __floatunsidf
                0x000000000800423c                __floatsidf
                0x000000000800423c                __aeabi_i2d
                0x0000000008004260                __extendsfdf2
                0x0000000008004260                __aeabi_f2d
                0x000000000800429c                __aeabi_ul2d
                0x000000000800429c                __floatundidf
                0x00000000080042ac                __floatdidf
                0x00000000080042ac                __aeabi_l2d
 .text          0x0000000008004308      0x424 /home/fx/.arduino15/packages/arduino/tools/arm-none-eabi-gcc/4.8.3-2014q1/bin/../lib/gcc/arm-none-eabi/4.8.3/armv7-m/libgcc.a(_arm_muldivdf3.o)
                0x0000000008004308                __aeabi_dmul
                0x0000000008004308                __muldf3
                0x000000000800455c                __aeabi_ddiv
                0x000000000800455c                __divdf3
 .text          0x000000000800472c      0x110 /home/fx/.arduino15/packages/arduino/tools/arm-none-eabi-gcc/4.8.3-2014q1/bin/../lib/gcc/arm-none-eabi/4.8.3/armv7-m/libgcc.a(_arm_cmpdf2.o)
                0x000000000800472c                __gtdf2
                0x000000000800472c                __gedf2
                0x0000000008004734                __ltdf2
                0x0000000008004734                __ledf2
                0x000000000800473c                __cmpdf2
                0x000000000800473c                __eqdf2
                0x000000000800473c                __nedf2
                0x00000000080047b8                __aeabi_cdrcmple
                0x00000000080047c8                __aeabi_cdcmple
                0x00000000080047c8                __aeabi_cdcmpeq
                0x00000000080047d8                __aeabi_dcmpeq
                0x00000000080047ec                __aeabi_dcmplt
                0x0000000008004800                __aeabi_dcmple
                0x0000000008004814                __aeabi_dcmpge
                0x0000000008004828                __aeabi_dcmpgt
 .text          0x000000000800483c       0x50 /home/fx/.arduino15/packages/arduino/tools/arm-none-eabi-gcc/4.8.3-2014q1/bin/../lib/gcc/arm-none-eabi/4.8.3/armv7-m/libgcc.a(_arm_fixdfsi.o)
                0x000000000800483c                __fixdfsi
                0x000000000800483c                __aeabi_d2iz
 .text          0x000000000800488c       0xa0 /home/fx/.arduino15/packages/arduino/tools/arm-none-eabi-gcc/4.8.3-2014q1/bin/../lib/gcc/arm-none-eabi/4.8.3/armv7-m/libgcc.a(_arm_truncdfsf2.o)
                0x000000000800488c                __aeabi_d2f
                0x000000000800488c                __truncdfsf2
 .text          0x000000000800492c      0x21c /home/fx/.arduino15/packages/arduino/tools/arm-none-eabi-gcc/4.8.3-2014q1/bin/../lib/gcc/arm-none-eabi/4.8.3/armv7-m/libgcc.a(_arm_addsubsf3.o)
                0x000000000800492c                __aeabi_frsub
                0x0000000008004934                __subsf3
                0x0000000008004934                __aeabi_fsub
                0x0000000008004938                __aeabi_fadd
                0x0000000008004938                __addsf3
                0x0000000008004a98                __aeabi_ui2f
                0x0000000008004a98                __floatunsisf
                0x0000000008004aa0                __aeabi_i2f
                0x0000000008004aa0                __floatsisf
                0x0000000008004abc                __floatundisf
                0x0000000008004abc                __aeabi_ul2f
                0x0000000008004acc                __floatdisf
                0x0000000008004acc                __aeabi_l2f
 .text          0x0000000008004b48       0x2c /home/fx/.arduino15/packages/arduino/tools/arm-none-eabi-gcc/4.8.3-2014q1/bin/../lib/gcc/arm-none-eabi/4.8.3/armv7-m/libgcc.a(_aeabi_uldivmod.o)
                0x0000000008004b48                __aeabi_uldivmod
 .text          0x0000000008004b74       0x60 /home/fx/.arduino15/packages/arduino/tools/arm-none-eabi-gcc/4.8.3-2014q1/bin/../lib/gcc/arm-none-eabi/4.8.3/armv7-m/libgcc.a(bpabi.o)
                0x0000000008004b74                __gnu_ldivmod_helper
                0x0000000008004ba4                __gnu_uldivmod_helper
 .text          0x0000000008004bd4        0x4 /home/fx/.arduino15/packages/arduino/tools/arm-none-eabi-gcc/4.8.3-2014q1/bin/../lib/gcc/arm-none-eabi/4.8.3/armv7-m/libgcc.a(_dvmd_tls.o)
                0x0000000008004bd4                __aeabi_ldiv0
                0x0000000008004bd4                __aeabi_idiv0
 .text          0x0000000008004bd8      0x2a0 /home/fx/.arduino15/packages/arduino/tools/arm-none-eabi-gcc/4.8.3-2014q1/bin/../lib/gcc/arm-none-eabi/4.8.3/armv7-m/libgcc.a(_divdi3.o)
                0x0000000008004bd8                __divdi3
 .text          0x0000000008004e78      0x290 /home/fx/.arduino15/packages/arduino/tools/arm-none-eabi-gcc/4.8.3-2014q1/bin/../lib/gcc/arm-none-eabi/4.8.3/armv7-m/libgcc.a(_udivdi3.o)
                0x0000000008004e78                __udivdi3
 .text.__errno  0x0000000008005108        0xc /home/fx/.arduino15/packages/arduino/tools/arm-none-eabi-gcc/4.8.3-2014q1/bin/../lib/gcc/arm-none-eabi/4.8.3/../../../../arm-none-eabi/lib/armv7-m/libc.a(lib_a-errno.o)
                0x0000000008005108                __errno
 .text.__libc_init_array
                0x0000000008005114       0x50 /home/fx/.arduino15/packages/arduino/tools/arm-none-eabi-gcc/4.8.3-2014q1/bin/../lib/gcc/arm-none-eabi/4.8.3/../../../../arm-none-eabi/lib/armv7-m/libc.a(lib_a-init.o)
                0x0000000008005114                __libc_init_array
 .text.malloc   0x0000000008005164       0x10 /home/fx/.arduino15/packages/arduino/tools/arm-none-eabi-gcc/4.8.3-2014q1/bin/../lib/gcc/arm-none-eabi/4.8.3/../../../../arm-none-eabi/lib/armv7-m/libc.a(lib_a-malloc.o)
                0x0000000008005164                malloc
 .text._malloc_r
                0x0000000008005174      0x538 /home/fx/.arduino15/packages/arduino/tools/arm-none-eabi-gcc/4.8.3-2014q1/bin/../lib/gcc/arm-none-eabi/4.8.3/../../../../arm-none-eabi/lib/armv7-m/libc.a(lib_a-mallocr.o)
                0x0000000008005174                _malloc_r
 .text.memchr   0x00000000080056ac       0x94 /home/fx/.arduino15/packages/arduino/tools/arm-none-eabi-gcc/4.8.3-2014q1/bin/../lib/gcc/arm-none-eabi/4.8.3/../../../../arm-none-eabi/lib/armv7-m/libc.a(lib_a-memchr-stub.o)
                0x00000000080056ac                memchr
 .text.memcmp   0x0000000008005740       0x68 /home/fx/.arduino15/packages/arduino/tools/arm-none-eabi-gcc/4.8.3-2014q1/bin/../lib/gcc/arm-none-eabi/4.8.3/../../../../arm-none-eabi/lib/armv7-m/libc.a(lib_a-memcmp.o)
                0x0000000008005740                memcmp
 .text          0x00000000080057a8       0xec /home/fx/.arduino15/packages/arduino/tools/arm-none-eabi-gcc/4.8.3-2014q1/bin/../lib/gcc/arm-none-eabi/4.8.3/../../../../arm-none-eabi/lib/armv7-m/libc.a(lib_a-memcpy.o)
                0x00000000080057a8                memcpy
 .text.memset   0x0000000008005894       0x94 /home/fx/.arduino15/packages/arduino/tools/arm-none-eabi-gcc/4.8.3-2014q1/bin/../lib/gcc/arm-none-eabi/4.8.3/../../../../arm-none-eabi/lib/armv7-m/libc.a(lib_a-memset.o)
                0x0000000008005894                memset
 .text.__malloc_lock
                0x0000000008005928        0x4 /home/fx/.arduino15/packages/arduino/tools/arm-none-eabi-gcc/4.8.3-2014q1/bin/../lib/gcc/arm-none-eabi/4.8.3/../../../../arm-none-eabi/lib/armv7-m/libc.a(lib_a-mlock.o)
                0x0000000008005928                __malloc_lock
 .text.__malloc_unlock
                0x000000000800592c        0x4 /home/fx/.arduino15/packages/arduino/tools/arm-none-eabi-gcc/4.8.3-2014q1/bin/../lib/gcc/arm-none-eabi/4.8.3/../../../../arm-none-eabi/lib/armv7-m/libc.a(lib_a-mlock.o)
                0x000000000800592c                __malloc_unlock
 .text._sbrk_r  0x0000000008005930       0x24 /home/fx/.arduino15/packages/arduino/tools/arm-none-eabi-gcc/4.8.3-2014q1/bin/../lib/gcc/arm-none-eabi/4.8.3/../../../../arm-none-eabi/lib/armv7-m/libc.a(lib_a-sbrkr.o)
                0x0000000008005930                _sbrk_r
 .text.sprintf  0x0000000008005954       0x4c /home/fx/.arduino15/packages/arduino/tools/arm-none-eabi-gcc/4.8.3-2014q1/bin/../lib/gcc/arm-none-eabi/4.8.3/../../../../arm-none-eabi/lib/armv7-m/libc.a(lib_a-sprintf.o)
                0x0000000008005954                sprintf
 .text.strlen   0x00000000080059a0       0x60 /home/fx/.arduino15/packages/arduino/tools/arm-none-eabi-gcc/4.8.3-2014q1/bin/../lib/gcc/arm-none-eabi/4.8.3/../../../../arm-none-eabi/lib/armv7-m/libc.a(lib_a-strlen.o)
                0x00000000080059a0                strlen
 .text._svfprintf_r
                0x0000000008005a00     0x14e0 /home/fx/.arduino15/packages/arduino/tools/arm-none-eabi-gcc/4.8.3-2014q1/bin/../lib/gcc/arm-none-eabi/4.8.3/../../../../arm-none-eabi/lib/armv7-m/libc.a(lib_a-svfprintf.o)
                0x0000000008005a00                _svfprintf_r
 .text.startup.register_fini
                0x0000000008006ee0       0x14 /home/fx/.arduino15/packages/arduino/tools/arm-none-eabi-gcc/4.8.3-2014q1/bin/../lib/gcc/arm-none-eabi/4.8.3/../../../../arm-none-eabi/lib/armv7-m/libc.a(lib_a-__call_atexit.o)
 .text.atexit   0x0000000008006ef4        0xc /home/fx/.arduino15/packages/arduino/tools/arm-none-eabi-gcc/4.8.3-2014q1/bin/../lib/gcc/arm-none-eabi/4.8.3/../../../../arm-none-eabi/lib/armv7-m/libc.a(lib_a-atexit.o)
                0x0000000008006ef4                atexit
 .text.quorem   0x0000000008006f00      0x134 /home/fx/.arduino15/packages/arduino/tools/arm-none-eabi-gcc/4.8.3-2014q1/bin/../lib/gcc/arm-none-eabi/4.8.3/../../../../arm-none-eabi/lib/armv7-m/libc.a(lib_a-dtoa.o)
 *fill*         0x0000000008007034        0x4 
 .text._dtoa_r  0x0000000008007038      0xe38 /home/fx/.arduino15/packages/arduino/tools/arm-none-eabi-gcc/4.8.3-2014q1/bin/../lib/gcc/arm-none-eabi/4.8.3/../../../../arm-none-eabi/lib/armv7-m/libc.a(lib_a-dtoa.o)
                0x0000000008007038                _dtoa_r
 .text.__libc_fini_array
                0x0000000008007e70       0x30 /home/fx/.arduino15/packages/arduino/tools/arm-none-eabi-gcc/4.8.3-2014q1/bin/../lib/gcc/arm-none-eabi/4.8.3/../../../../arm-none-eabi/lib/armv7-m/libc.a(lib_a-fini.o)
                0x0000000008007e70                __libc_fini_array
 .text._malloc_trim_r
                0x0000000008007ea0       0x9c /home/fx/.arduino15/packages/arduino/tools/arm-none-eabi-gcc/4.8.3-2014q1/bin/../lib/gcc/arm-none-eabi/4.8.3/../../../../arm-none-eabi/lib/armv7-m/libc.a(lib_a-freer.o)
                0x0000000008007ea0                _malloc_trim_r
 .text._free_r  0x0000000008007f3c      0x198 /home/fx/.arduino15/packages/arduino/tools/arm-none-eabi-gcc/4.8.3-2014q1/bin/../lib/gcc/arm-none-eabi/4.8.3/../../../../arm-none-eabi/lib/armv7-m/libc.a(lib_a-freer.o)
                0x0000000008007f3c                _free_r
 .text._localeconv_r
                0x00000000080080d4        0x8 /home/fx/.arduino15/packages/arduino/tools/arm-none-eabi-gcc/4.8.3-2014q1/bin/../lib/gcc/arm-none-eabi/4.8.3/../../../../arm-none-eabi/lib/armv7-m/libc.a(lib_a-locale.o)
                0x00000000080080d4                _localeconv_r
 .text._Balloc  0x00000000080080dc       0x4c /home/fx/.arduino15/packages/arduino/tools/arm-none-eabi-gcc/4.8.3-2014q1/bin/../lib/gcc/arm-none-eabi/4.8.3/../../../../arm-none-eabi/lib/armv7-m/libc.a(lib_a-mprec.o)
                0x00000000080080dc                _Balloc
 .text._Bfree   0x0000000008008128       0x14 /home/fx/.arduino15/packages/arduino/tools/arm-none-eabi-gcc/4.8.3-2014q1/bin/../lib/gcc/arm-none-eabi/4.8.3/../../../../arm-none-eabi/lib/armv7-m/libc.a(lib_a-mprec.o)
                0x0000000008008128                _Bfree
 .text.__multadd
                0x000000000800813c       0x94 /home/fx/.arduino15/packages/arduino/tools/arm-none-eabi-gcc/4.8.3-2014q1/bin/../lib/gcc/arm-none-eabi/4.8.3/../../../../arm-none-eabi/lib/armv7-m/libc.a(lib_a-mprec.o)
                0x000000000800813c                __multadd
 .text.__hi0bits
                0x00000000080081d0       0x40 /home/fx/.arduino15/packages/arduino/tools/arm-none-eabi-gcc/4.8.3-2014q1/bin/../lib/gcc/arm-none-eabi/4.8.3/../../../../arm-none-eabi/lib/armv7-m/libc.a(lib_a-mprec.o)
                0x00000000080081d0                __hi0bits
 .text.__lo0bits
                0x0000000008008210       0x5c /home/fx/.arduino15/packages/arduino/tools/arm-none-eabi-gcc/4.8.3-2014q1/bin/../lib/gcc/arm-none-eabi/4.8.3/../../../../arm-none-eabi/lib/armv7-m/libc.a(lib_a-mprec.o)
                0x0000000008008210                __lo0bits
 .text.__i2b    0x000000000800826c       0x14 /home/fx/.arduino15/packages/arduino/tools/arm-none-eabi-gcc/4.8.3-2014q1/bin/../lib/gcc/arm-none-eabi/4.8.3/../../../../arm-none-eabi/lib/armv7-m/libc.a(lib_a-mprec.o)
                0x000000000800826c                __i2b
 .text.__multiply
                0x0000000008008280      0x13c /home/fx/.arduino15/packages/arduino/tools/arm-none-eabi-gcc/4.8.3-2014q1/bin/../lib/gcc/arm-none-eabi/4.8.3/../../../../arm-none-eabi/lib/armv7-m/libc.a(lib_a-mprec.o)
                0x0000000008008280                __multiply
 .text.__pow5mult
                0x00000000080083bc       0x9c /home/fx/.arduino15/packages/arduino/tools/arm-none-eabi-gcc/4.8.3-2014q1/bin/../lib/gcc/arm-none-eabi/4.8.3/../../../../arm-none-eabi/lib/armv7-m/libc.a(lib_a-mprec.o)
                0x00000000080083bc                __pow5mult
 .text.__lshift
                0x0000000008008458       0xbc /home/fx/.arduino15/packages/arduino/tools/arm-none-eabi-gcc/4.8.3-2014q1/bin/../lib/gcc/arm-none-eabi/4.8.3/../../../../arm-none-eabi/lib/armv7-m/libc.a(lib_a-mprec.o)
                0x0000000008008458                __lshift
 .text.__mcmp   0x0000000008008514       0x48 /home/fx/.arduino15/packages/arduino/tools/arm-none-eabi-gcc/4.8.3-2014q1/bin/../lib/gcc/arm-none-eabi/4.8.3/../../../../arm-none-eabi/lib/armv7-m/libc.a(lib_a-mprec.o)
                0x0000000008008514                __mcmp
 .text.__mdiff  0x000000000800855c       0xd8 /home/fx/.arduino15/packages/arduino/tools/arm-none-eabi-gcc/4.8.3-2014q1/bin/../lib/gcc/arm-none-eabi/4.8.3/../../../../arm-none-eabi/lib/armv7-m/libc.a(lib_a-mprec.o)
                0x000000000800855c                __mdiff
 .text.__d2b    0x0000000008008634       0xbc /home/fx/.arduino15/packages/arduino/tools/arm-none-eabi-gcc/4.8.3-2014q1/bin/../lib/gcc/arm-none-eabi/4.8.3/../../../../arm-none-eabi/lib/armv7-m/libc.a(lib_a-mprec.o)
                0x0000000008008634                __d2b
 .text.__ssprint_r
                0x00000000080086f0      0x100 /home/fx/.arduino15/packages/arduino/tools/arm-none-eabi-gcc/4.8.3-2014q1/bin/../lib/gcc/arm-none-eabi/4.8.3/../../../../arm-none-eabi/lib/armv7-m/libc.a(lib_a-svfiprintf.o)
                0x00000000080086f0                __ssprint_r
 .text.__register_exitproc
                0x00000000080087f0       0xa8 /home/fx/.arduino15/packages/arduino/tools/arm-none-eabi-gcc/4.8.3-2014q1/bin/../lib/gcc/arm-none-eabi/4.8.3/../../../../arm-none-eabi/lib/armv7-m/libc.a(lib_a-__atexit.o)
                0x00000000080087f0                __register_exitproc
 .text._calloc_r
                0x0000000008008898       0x60 /home/fx/.arduino15/packages/arduino/tools/arm-none-eabi-gcc/4.8.3-2014q1/bin/../lib/gcc/arm-none-eabi/4.8.3/../../../../arm-none-eabi/lib/armv7-m/libc.a(lib_a-callocr.o)
                0x0000000008008898                _calloc_r
 .text.memmove  0x00000000080088f8       0xcc /home/fx/.arduino15/packages/arduino/tools/arm-none-eabi-gcc/4.8.3-2014q1/bin/../lib/gcc/arm-none-eabi/4.8.3/../../../../arm-none-eabi/lib/armv7-m/libc.a(lib_a-memmove.o)
                0x00000000080088f8                memmove
 .text._realloc_r
                0x00000000080089c4      0x3c0 /home/fx/.arduino15/packages/arduino/tools/arm-none-eabi-gcc/4.8.3-2014q1/bin/../lib/gcc/arm-none-eabi/4.8.3/../../../../arm-none-eabi/lib/armv7-m/libc.a(lib_a-reallocr.o)
                0x00000000080089c4                _realloc_r
 *(.plt)
 *(.gnu.warning)
 *(.glue_7t)
 .glue_7t       0x0000000000000000        0x0 linker stubs
 *(.glue_7)
 .glue_7        0x0000000000000000        0x0 linker stubs
 *(.vfp11_veneer)
 .vfp11_veneer  0x0000000000000000        0x0 linker stubs
 *(.ARM.extab* .gnu.linkonce.armextab.*)
 *(.gcc_except_table)
 *(.eh_frame_hdr)
 *(.eh_frame)
 .eh_frame      0x0000000008008d84        0x0 /home/fx/.arduino15/packages/arduino/tools/arm-none-eabi-gcc/4.8.3-2014q1/bin/../lib/gcc/arm-none-eabi/4.8.3/armv7-m/crtbegin.o
                0x0000000008008d84                . = ALIGN (0x4)
 *(.init)
 .init          0x0000000008008d84        0x4 /home/fx/.arduino15/packages/arduino/tools/arm-none-eabi-gcc/4.8.3-2014q1/bin/../lib/gcc/arm-none-eabi/4.8.3/armv7-m/crti.o
                0x0000000008008d84                _init
 .init          0x0000000008008d88        0x8 /home/fx/.arduino15/packages/arduino/tools/arm-none-eabi-gcc/4.8.3-2014q1/bin/../lib/gcc/arm-none-eabi/4.8.3/armv7-m/crtn.o
                0x0000000008008d90                . = ALIGN (0x4)
                0x0000000008008d90                __preinit_array_start = .
 *(.preinit_array)
                0x0000000008008d90                __preinit_array_end = .
                0x0000000008008d90                . = ALIGN (0x4)
                0x0000000008008d90                __init_array_start = .
 *(SORT(.init_array.*))
 .init_array.00000
                0x0000000008008d90        0x4 /home/fx/.arduino15/packages/arduino/tools/arm-none-eabi-gcc/4.8.3-2014q1/bin/../lib/gcc/arm-none-eabi/4.8.3/../../../../arm-none-eabi/lib/armv7-m/libc.a(lib_a-__call_atexit.o)
 .init_array.00101
                0x0000000008008d94        0x4 /home/fx/Upwork/weather-node/output/core/core.a(main.cpp.o)
 *(.init_array)
 .init_array    0x0000000008008d98        0x4 /home/fx/.arduino15/packages/arduino/tools/arm-none-eabi-gcc/4.8.3-2014q1/bin/../lib/gcc/arm-none-eabi/4.8.3/armv7-m/crtbegin.o
 .init_array    0x0000000008008d9c        0x4 /home/fx/Upwork/weather-node/output/sketch/weatherSIM808.ino.cpp.o
 .init_array    0x0000000008008da0        0x4 /home/fx/Upwork/weather-node/output/core/board.cpp.o
 .init_array    0x0000000008008da4        0x4 /home/fx/Upwork/weather-node/output/core/core.a(usb_serial.cpp.o)
                0x0000000008008da8                __init_array_end = .
                0x0000000008008da8                . = ALIGN (0x4)
 *crtbegin.o(.ctors)
 *(EXCLUDE_FILE(*crtend.o) .ctors)
 *(SORT(.ctors.*))
 *crtend.o(.ctors)
                0x0000000008008da8                . = ALIGN (0x4)
 *(.fini)
 .fini          0x0000000008008da8        0x4 /home/fx/.arduino15/packages/arduino/tools/arm-none-eabi-gcc/4.8.3-2014q1/bin/../lib/gcc/arm-none-eabi/4.8.3/armv7-m/crti.o
                0x0000000008008da8                _fini
 .fini          0x0000000008008dac        0x8 /home/fx/.arduino15/packages/arduino/tools/arm-none-eabi-gcc/4.8.3-2014q1/bin/../lib/gcc/arm-none-eabi/4.8.3/armv7-m/crtn.o
                0x0000000008008db4                . = ALIGN (0x4)
                0x0000000008008db4                __fini_array_start = .
 *(.fini_array)
 .fini_array    0x0000000008008db4        0x4 /home/fx/.arduino15/packages/arduino/tools/arm-none-eabi-gcc/4.8.3-2014q1/bin/../lib/gcc/arm-none-eabi/4.8.3/armv7-m/crtbegin.o
 *(SORT(.fini_array.*))
                0x0000000008008db8                __fini_array_end = .
 *crtbegin.o(.dtors)
 *(EXCLUDE_FILE(*crtend.o) .dtors)
 *(SORT(.dtors.*))
 *crtend.o(.dtors)

.v4_bx          0x0000000008008db8        0x0
 .v4_bx         0x0000000000000000        0x0 linker stubs

.iplt           0x0000000008008db8        0x0
 .iplt          0x0000000000000000        0x0 /home/fx/.arduino15/packages/arduino/tools/arm-none-eabi-gcc/4.8.3-2014q1/bin/../lib/gcc/arm-none-eabi/4.8.3/armv7-m/crtbegin.o

.text.align     0x0000000008008db8        0x0
                0x0000000008008db8                . = ALIGN (0x8)
                0x0000000008008db8                __text_end__ = .
                0x0000000008008db8                __exidx_start = .

.ARM.exidx      0x0000000008008db8        0x8
 *(.ARM.exidx* .gnu.linkonce.armexidx.*)
 .ARM.exidx     0x0000000008008db8        0x8 /home/fx/Upwork/weather-node/output/core/wirish/start.S.o
 .ARM.exidx     0x0000000008008dc0        0x0 /home/fx/.arduino15/packages/arduino/tools/arm-none-eabi-gcc/4.8.3-2014q1/bin/../lib/gcc/arm-none-eabi/4.8.3/armv7-m/libgcc.a(_divdi3.o)
                                          0x8 (size before relaxing)
 .ARM.exidx     0x0000000008008dc0        0x0 /home/fx/.arduino15/packages/arduino/tools/arm-none-eabi-gcc/4.8.3-2014q1/bin/../lib/gcc/arm-none-eabi/4.8.3/armv7-m/libgcc.a(_udivdi3.o)
                                          0x8 (size before relaxing)
                0x0000000008008dc0                __exidx_end = .

.data           0x0000000020000000      0xd10 load address 0x0000000008008dc0
                0x0000000020000000                __data_start__ = .
                0x0000000020000000        0x4 LONG 0x0
                0x0000000020000008                . = ALIGN (0x8)
 *fill*         0x0000000020000004        0x4 
 *(.got.plt)
 *(.got)
 *(.data .data.* .gnu.linkonce.d.*)
 .data.timestamp
                0x0000000020000008       0x13 /home/fx/Upwork/weather-node/output/sketch/weatherSIM808.ino.cpp.o
                0x0000000020000008                timestamp
 .data.longitude
                0x000000002000001b        0xb /home/fx/Upwork/weather-node/output/sketch/weatherSIM808.ino.cpp.o
                0x000000002000001b                longitude
 .data.latitude
                0x0000000020000026        0xb /home/fx/Upwork/weather-node/output/sketch/weatherSIM808.ino.cpp.o
                0x0000000020000026                latitude
 *fill*         0x0000000020000031        0x3 
 .data.uxCriticalNesting
                0x0000000020000034        0x4 /home/fx/Upwork/weather-node/output/libraries/FreeRTOS821/utility/port.c.o
 .data.xNextTaskUnblockTime
                0x0000000020000038        0x4 /home/fx/Upwork/weather-node/output/libraries/FreeRTOS821/utility/tasks.c.o
 .data._ZN6wirish4privL8pll_dataE
                0x000000002000003c        0x4 /home/fx/Upwork/weather-node/output/core/wirish/boards_setup.cpp.o
 .data._ZN6wirish4priv9w_adc_smpE
                0x0000000020000040        0x1 /home/fx/Upwork/weather-node/output/core/wirish/boards_setup.cpp.o
                0x0000000020000040                wirish::priv::w_adc_smp
 *fill*         0x0000000020000041        0x1 
 .data._ZN6wirish4priv9w_adc_preE
                0x0000000020000042        0x2 /home/fx/Upwork/weather-node/output/core/wirish/boards_setup.cpp.o
                0x0000000020000042                wirish::priv::w_adc_pre
 .data._ZN6wirish4priv15w_board_pll_cfgE
                0x0000000020000044        0x8 /home/fx/Upwork/weather-node/output/core/wirish/boards_setup.cpp.o
                0x0000000020000044                wirish::priv::w_board_pll_cfg
 .data.adc2     0x000000002000004c        0x8 /home/fx/Upwork/weather-node/output/core/core.a(adc_f1.c.o)
                0x000000002000004c                adc2
 .data.adc1     0x0000000020000054       0x18 /home/fx/Upwork/weather-node/output/core/core.a(adc_f1.c.o)
                0x0000000020000054                adc1
 .data.ADC2     0x000000002000006c        0x4 /home/fx/Upwork/weather-node/output/core/core.a(adc_f1.c.o)
                0x000000002000006c                ADC2
 .data.ADC1     0x0000000020000070        0x4 /home/fx/Upwork/weather-node/output/core/core.a(adc_f1.c.o)
                0x0000000020000070                ADC1
 .data.dma1     0x0000000020000074       0x40 /home/fx/Upwork/weather-node/output/core/core.a(dma_f1.c.o)
 .data.DMA1     0x00000000200000b4        0x4 /home/fx/Upwork/weather-node/output/core/core.a(dma_f1.c.o)
                0x00000000200000b4                DMA1
 .data.gpioa    0x00000000200000b8        0x8 /home/fx/Upwork/weather-node/output/core/core.a(gpio_f1.c.o)
                0x00000000200000b8                gpioa
 .data.gpiob    0x00000000200000c0        0x8 /home/fx/Upwork/weather-node/output/core/core.a(gpio_f1.c.o)
                0x00000000200000c0                gpiob
 .data.gpioc    0x00000000200000c8        0x8 /home/fx/Upwork/weather-node/output/core/core.a(gpio_f1.c.o)
                0x00000000200000c8                gpioc
 .data.gpiod    0x00000000200000d0        0x8 /home/fx/Upwork/weather-node/output/core/core.a(gpio_f1.c.o)
                0x00000000200000d0                gpiod
 .data.i2c1     0x00000000200000d8       0x38 /home/fx/Upwork/weather-node/output/core/core.a(i2c_f1.c.o)
 .data.i2c2     0x0000000020000110       0x38 /home/fx/Upwork/weather-node/output/core/core.a(i2c_f1.c.o)
 .data.enable_regs.4411
                0x0000000020000148        0xc /home/fx/Upwork/weather-node/output/core/core.a(rcc_f1.c.o)
 .data.reset_regs.4415
                0x0000000020000154        0x8 /home/fx/Upwork/weather-node/output/core/core.a(rcc_f1.c.o)
 .data.enable_regs.4424
                0x000000002000015c        0xc /home/fx/Upwork/weather-node/output/core/core.a(rcc_f1.c.o)
 .data.timer3   0x0000000020000168       0x24 /home/fx/Upwork/weather-node/output/core/core.a(timer.c.o)
                0x0000000020000168                timer3
 .data.timer4   0x000000002000018c       0x24 /home/fx/Upwork/weather-node/output/core/core.a(timer.c.o)
                0x000000002000018c                timer4
 .data.timer1   0x00000000200001b0       0x28 /home/fx/Upwork/weather-node/output/core/core.a(timer.c.o)
                0x00000000200001b0                timer1
 .data.timer2   0x00000000200001d8       0x24 /home/fx/Upwork/weather-node/output/core/core.a(timer.c.o)
                0x00000000200001d8                timer2
 .data.USART1   0x00000000200001fc        0x4 /home/fx/Upwork/weather-node/output/core/core.a(usart_f1.c.o)
                0x00000000200001fc                USART1
 .data.USART2   0x0000000020000200        0x4 /home/fx/Upwork/weather-node/output/core/core.a(usart_f1.c.o)
                0x0000000020000200                USART2
 .data.USART3   0x0000000020000204        0x4 /home/fx/Upwork/weather-node/output/core/core.a(usart_f1.c.o)
                0x0000000020000204                USART3
 .data.usart1   0x0000000020000208       0x94 /home/fx/Upwork/weather-node/output/core/core.a(usart_f1.c.o)
 .data.usart2   0x000000002000029c       0x94 /home/fx/Upwork/weather-node/output/core/core.a(usart_f1.c.o)
 .data.usart3   0x0000000020000330       0x94 /home/fx/Upwork/weather-node/output/core/core.a(usart_f1.c.o)
 .data.USBLIB   0x00000000200003c4        0x4 /home/fx/Upwork/weather-node/output/core/core.a(usb.c.o)
                0x00000000200003c4                USBLIB
 .data.usblib   0x00000000200003c8       0x10 /home/fx/Upwork/weather-node/output/core/core.a(usb.c.o)
 .data.Config_Descriptor
                0x00000000200003d8        0x8 /home/fx/Upwork/weather-node/output/core/core.a(usb_cdcacm.c.o)
 .data.Device_Property
                0x00000000200003e0       0x30 /home/fx/Upwork/weather-node/output/core/core.a(usb_cdcacm.c.o)
                0x00000000200003e0                Device_Property
 .data.ep_int_in
                0x0000000020000410       0x1c /home/fx/Upwork/weather-node/output/core/core.a(usb_cdcacm.c.o)
 .data.String_Descriptor
                0x000000002000042c       0x18 /home/fx/Upwork/weather-node/output/core/core.a(usb_cdcacm.c.o)
 .data.ep_int_out
                0x0000000020000444       0x1c /home/fx/Upwork/weather-node/output/core/core.a(usb_cdcacm.c.o)
 .data.line_coding
                0x0000000020000460        0x7 /home/fx/Upwork/weather-node/output/core/core.a(usb_cdcacm.c.o)
 *fill*         0x0000000020000467        0x1 
 .data.User_Standard_Requests
                0x0000000020000468       0x24 /home/fx/Upwork/weather-node/output/core/core.a(usb_cdcacm.c.o)
                0x0000000020000468                User_Standard_Requests
 .data.Device_Descriptor
                0x000000002000048c        0x8 /home/fx/Upwork/weather-node/output/core/core.a(usb_cdcacm.c.o)
 .data.Device_Table
                0x0000000020000494        0x2 /home/fx/Upwork/weather-node/output/core/core.a(usb_cdcacm.c.o)
                0x0000000020000494                Device_Table
 *fill*         0x0000000020000496        0x2 
 .data.impure_data
                0x0000000020000498      0x428 /home/fx/.arduino15/packages/arduino/tools/arm-none-eabi-gcc/4.8.3-2014q1/bin/../lib/gcc/arm-none-eabi/4.8.3/../../../../arm-none-eabi/lib/armv7-m/libc.a(lib_a-impure.o)
 .data._impure_ptr
                0x00000000200008c0        0x4 /home/fx/.arduino15/packages/arduino/tools/arm-none-eabi-gcc/4.8.3-2014q1/bin/../lib/gcc/arm-none-eabi/4.8.3/../../../../arm-none-eabi/lib/armv7-m/libc.a(lib_a-impure.o)
                0x00000000200008c0                _impure_ptr
 .data.__malloc_av_
                0x00000000200008c4      0x408 /home/fx/.arduino15/packages/arduino/tools/arm-none-eabi-gcc/4.8.3-2014q1/bin/../lib/gcc/arm-none-eabi/4.8.3/../../../../arm-none-eabi/lib/armv7-m/libc.a(lib_a-mallocr.o)
                0x00000000200008c4                __malloc_av_
 .data.__malloc_trim_threshold
                0x0000000020000ccc        0x4 /home/fx/.arduino15/packages/arduino/tools/arm-none-eabi-gcc/4.8.3-2014q1/bin/../lib/gcc/arm-none-eabi/4.8.3/../../../../arm-none-eabi/lib/armv7-m/libc.a(lib_a-mallocr.o)
                0x0000000020000ccc                __malloc_trim_threshold
 .data.__malloc_sbrk_base
                0x0000000020000cd0        0x4 /home/fx/.arduino15/packages/arduino/tools/arm-none-eabi-gcc/4.8.3-2014q1/bin/../lib/gcc/arm-none-eabi/4.8.3/../../../../arm-none-eabi/lib/armv7-m/libc.a(lib_a-mallocr.o)
                0x0000000020000cd0                __malloc_sbrk_base
 .data.lconv    0x0000000020000cd4       0x38 /home/fx/.arduino15/packages/arduino/tools/arm-none-eabi-gcc/4.8.3-2014q1/bin/../lib/gcc/arm-none-eabi/4.8.3/../../../../arm-none-eabi/lib/armv7-m/libc.a(lib_a-locale.o)
                0x0000000020000d10                . = ALIGN (0x8)
 *fill*         0x0000000020000d0c        0x4 
                0x0000000020000d10                __data_end__ = .

.jcr            0x0000000020000d10        0x0 load address 0x0000000008009ad0
 .jcr           0x0000000020000d10        0x0 /home/fx/.arduino15/packages/arduino/tools/arm-none-eabi-gcc/4.8.3-2014q1/bin/../lib/gcc/arm-none-eabi/4.8.3/armv7-m/crtbegin.o

.igot.plt       0x0000000020000d10        0x0 load address 0x0000000008009ad0
 .igot.plt      0x0000000000000000        0x0 /home/fx/.arduino15/packages/arduino/tools/arm-none-eabi-gcc/4.8.3-2014q1/bin/../lib/gcc/arm-none-eabi/4.8.3/armv7-m/crtbegin.o

.rodata         0x0000000008009ad0      0xb20
 *(.rodata .rodata.* .gnu.linkonce.r.*)
 .rodata._ZL13key_pm2_value
                0x0000000008009ad0        0x4 /home/fx/Upwork/weather-node/output/sketch/weatherSIM808.ino.cpp.o
 .rodata._ZL12key_humidity
                0x0000000008009ad4        0x9 /home/fx/Upwork/weather-node/output/sketch/weatherSIM808.ino.cpp.o
 .rodata._ZL13key_timestamp
                0x0000000008009add        0xa /home/fx/Upwork/weather-node/output/sketch/weatherSIM808.ino.cpp.o
 .rodata._ZL12key_latitude
                0x0000000008009ae7        0x9 /home/fx/Upwork/weather-node/output/sketch/weatherSIM808.ino.cpp.o
 .rodata._ZL15key_temperature
                0x0000000008009af0        0xc /home/fx/Upwork/weather-node/output/sketch/weatherSIM808.ino.cpp.o
 .rodata.str1.1
                0x0000000008009afc      0x20e /home/fx/Upwork/weather-node/output/sketch/weatherSIM808.ino.cpp.o
                                        0x213 (size before relaxing)
 .rodata._ZL13key_longitude
                0x0000000008009d0a        0xa /home/fx/Upwork/weather-node/output/sketch/weatherSIM808.ino.cpp.o
 .rodata._ZL13key_pm1_value
                0x0000000008009d14        0x4 /home/fx/Upwork/weather-node/output/sketch/weatherSIM808.ino.cpp.o
 .rodata.ucExpectedStackBytes.5340
                0x0000000008009d18       0x14 /home/fx/Upwork/weather-node/output/libraries/FreeRTOS821/utility/tasks.c.o
 .rodata.str1.1
                0x0000000008009d2c        0x5 /home/fx/Upwork/weather-node/output/libraries/FreeRTOS821/utility/tasks.c.o
 *fill*         0x0000000008009d31        0x3 
 .rodata.PIN_MAP
                0x0000000008009d34      0x230 /home/fx/Upwork/weather-node/output/core/board.cpp.o
                0x0000000008009d34                PIN_MAP
 *fill*         0x0000000008009f64        0x4 
 .rodata._ZTV14HardwareSerial
                0x0000000008009f68       0x28 /home/fx/Upwork/weather-node/output/core/core.a(HardwareSerial.cpp.o)
                0x0000000008009f68                vtable for HardwareSerial
 .rodata.GPIOC  0x0000000008009f90        0x4 /home/fx/Upwork/weather-node/output/core/core.a(gpio_f1.c.o)
                0x0000000008009f90                GPIOC
 .rodata.str1.1
                0x0000000008009f94       0xb6 /home/fx/Upwork/weather-node/output/core/core.a(rcc_f1.c.o)
 .rodata.rcc_dev_table
                0x000000000800a04a       0x5c /home/fx/Upwork/weather-node/output/core/core.a(rcc_f1.c.o)
                0x000000000800a04a                rcc_dev_table
 *fill*         0x000000000800a0a6        0x2 
 .rodata.masks.4420
                0x000000000800a0a8       0x14 /home/fx/Upwork/weather-node/output/core/core.a(rcc_f1.c.o)
 .rodata.str1.1
                0x000000000800a0bc       0xb7 /home/fx/Upwork/weather-node/output/core/core.a(timer.c.o)
 .rodata.str1.1
                0x000000000800a173       0x6e /home/fx/Upwork/weather-node/output/core/core.a(usart_f1.c.o)
 .rodata.str1.1
                0x000000000800a1e1       0x7d /home/fx/Upwork/weather-node/output/core/core.a(usb.c.o)
 .rodata.usbVcomDescriptor_iProduct
                0x000000000800a25e        0xc /home/fx/Upwork/weather-node/output/core/core.a(usb_cdcacm.c.o)
 .rodata.usbVcomDescriptor_iManufacturer
                0x000000000800a26a       0x12 /home/fx/Upwork/weather-node/output/core/core.a(usb_cdcacm.c.o)
 .rodata.usbVcomDescriptor_Device
                0x000000000800a27c       0x12 /home/fx/Upwork/weather-node/output/core/core.a(usb_cdcacm.c.o)
 .rodata.usbVcomDescriptor_Config
                0x000000000800a28e       0x43 /home/fx/Upwork/weather-node/output/core/core.a(usb_cdcacm.c.o)
 .rodata.usbVcomDescriptor_LangID
                0x000000000800a2d1        0x4 /home/fx/Upwork/weather-node/output/core/core.a(usb_cdcacm.c.o)
 .rodata.str1.1
                0x000000000800a2d5       0x3f /home/fx/Upwork/weather-node/output/core/core.a(util.c.o)
                                         0x42 (size before relaxing)
 .rodata.str1.1
                0x000000000800a314       0x6c /home/fx/Upwork/weather-node/output/core/core.a(wirish_digital_f1.cpp.o)
                                         0x6e (size before relaxing)
 .rodata.str1.1
                0x000000000800a380       0x5d /home/fx/Upwork/weather-node/output/core/core.a(usb_serial.cpp.o)
                                         0x5f (size before relaxing)
 *fill*         0x000000000800a3dd        0x3 
 .rodata._ZTV9USBSerial
                0x000000000800a3e0       0x28 /home/fx/Upwork/weather-node/output/core/core.a(usb_serial.cpp.o)
                0x000000000800a3e0                vtable for USBSerial
 .rodata.str1.1
                0x000000000800a408       0x60 /home/fx/Upwork/weather-node/output/core/core.a(bkp_f1.c.o)
                                         0x62 (size before relaxing)
 .rodata.str1.4
                0x000000000800a468        0x2 /home/fx/.arduino15/packages/arduino/tools/arm-none-eabi-gcc/4.8.3-2014q1/bin/../lib/gcc/arm-none-eabi/4.8.3/../../../../arm-none-eabi/lib/armv7-m/libc.a(lib_a-impure.o)
                                          0x4 (size before relaxing)
 *fill*         0x000000000800a46a        0x2 
 .rodata._global_impure_ptr
                0x000000000800a46c        0x4 /home/fx/.arduino15/packages/arduino/tools/arm-none-eabi-gcc/4.8.3-2014q1/bin/../lib/gcc/arm-none-eabi/4.8.3/../../../../arm-none-eabi/lib/armv7-m/libc.a(lib_a-impure.o)
                0x000000000800a46c                _global_impure_ptr
 .rodata.zeroes.6760
                0x000000000800a470       0x10 /home/fx/.arduino15/packages/arduino/tools/arm-none-eabi-gcc/4.8.3-2014q1/bin/../lib/gcc/arm-none-eabi/4.8.3/../../../../arm-none-eabi/lib/armv7-m/libc.a(lib_a-svfprintf.o)
 .rodata.str1.4
                0x000000000800a480       0x42 /home/fx/.arduino15/packages/arduino/tools/arm-none-eabi-gcc/4.8.3-2014q1/bin/../lib/gcc/arm-none-eabi/4.8.3/../../../../arm-none-eabi/lib/armv7-m/libc.a(lib_a-svfprintf.o)
                                         0x44 (size before relaxing)
 *fill*         0x000000000800a4c2        0x2 
 .rodata.blanks.6759
                0x000000000800a4c4       0x10 /home/fx/.arduino15/packages/arduino/tools/arm-none-eabi-gcc/4.8.3-2014q1/bin/../lib/gcc/arm-none-eabi/4.8.3/../../../../arm-none-eabi/lib/armv7-m/libc.a(lib_a-svfprintf.o)
 .rodata.str1.4
                0x000000000800a4d4       0x10 /home/fx/.arduino15/packages/arduino/tools/arm-none-eabi-gcc/4.8.3-2014q1/bin/../lib/gcc/arm-none-eabi/4.8.3/../../../../arm-none-eabi/lib/armv7-m/libc.a(lib_a-dtoa.o)
                                         0x14 (size before relaxing)
 .rodata.str1.4
                0x000000000800a4e4        0xc /home/fx/.arduino15/packages/arduino/tools/arm-none-eabi-gcc/4.8.3-2014q1/bin/../lib/gcc/arm-none-eabi/4.8.3/../../../../arm-none-eabi/lib/armv7-m/libc.a(lib_a-locale.o)
                                         0x14 (size before relaxing)
 .rodata.__mprec_tens
                0x000000000800a4f0       0xc8 /home/fx/.arduino15/packages/arduino/tools/arm-none-eabi-gcc/4.8.3-2014q1/bin/../lib/gcc/arm-none-eabi/4.8.3/../../../../arm-none-eabi/lib/armv7-m/libc.a(lib_a-mprec.o)
                0x000000000800a4f0                __mprec_tens
 .rodata.__mprec_bigtens
                0x000000000800a5b8       0x28 /home/fx/.arduino15/packages/arduino/tools/arm-none-eabi-gcc/4.8.3-2014q1/bin/../lib/gcc/arm-none-eabi/4.8.3/../../../../arm-none-eabi/lib/armv7-m/libc.a(lib_a-mprec.o)
                0x000000000800a5b8                __mprec_bigtens
 .rodata.p05.5266
                0x000000000800a5e0        0xc /home/fx/.arduino15/packages/arduino/tools/arm-none-eabi-gcc/4.8.3-2014q1/bin/../lib/gcc/arm-none-eabi/4.8.3/../../../../arm-none-eabi/lib/armv7-m/libc.a(lib_a-mprec.o)
 *(.USER_FLASH)
                0x000000000800a5ec                . = ALIGN (0x4)
                0x000000000800a5ec                _lm_rom_img_cfgp = .
                0x000000000800a5ec        0x4 LONG 0x8008dc0 LOADADDR (.data)
                0x00000000200033f0                _lm_heap_start = DEFINED (_lm_heap_start)?_lm_heap_start:_end
                0x0000000020005000                _lm_heap_end = DEFINED (_lm_heap_end)?_lm_heap_end:__msp_init

.rel.dyn        0x000000000800a5f0        0x0
 .rel.iplt      0x0000000000000000        0x0 /home/fx/.arduino15/packages/arduino/tools/arm-none-eabi-gcc/4.8.3-2014q1/bin/../lib/gcc/arm-none-eabi/4.8.3/armv7-m/crtbegin.o

.bss            0x0000000020000d10     0x26e0
                0x0000000020000d10                . = ALIGN (0x8)
                0x0000000020000d10                __bss_start__ = .
 *(.bss .bss.* .gnu.linkonce.b.*)
 .bss           0x0000000020000d10       0x1c /home/fx/.arduino15/packages/arduino/tools/arm-none-eabi-gcc/4.8.3-2014q1/bin/../lib/gcc/arm-none-eabi/4.8.3/armv7-m/crtbegin.o
 .bss.pm1_ok    0x0000000020000d2c        0x1 /home/fx/Upwork/weather-node/output/sketch/weatherSIM808.ino.cpp.o
                0x0000000020000d2c                pm1_ok
 .bss.flagREG   0x0000000020000d2d        0x1 /home/fx/Upwork/weather-node/output/sketch/weatherSIM808.ino.cpp.o
                0x0000000020000d2d                flagREG
 *fill*         0x0000000020000d2e        0x2 
 .bss.pm2_i     0x0000000020000d30        0x4 /home/fx/Upwork/weather-node/output/sketch/weatherSIM808.ino.cpp.o
                0x0000000020000d30                pm2_i
 .bss.flagERROR
                0x0000000020000d34        0x1 /home/fx/Upwork/weather-node/output/sketch/weatherSIM808.ino.cpp.o
                0x0000000020000d34                flagERROR
 .bss.pm1_buff  0x0000000020000d35        0xf /home/fx/Upwork/weather-node/output/sketch/weatherSIM808.ino.cpp.o
                0x0000000020000d35                pm1_buff
 .bss.flagHTTPACT
                0x0000000020000d44        0x1 /home/fx/Upwork/weather-node/output/sketch/weatherSIM808.ino.cpp.o
                0x0000000020000d44                flagHTTPACT
 .bss.flagDOWNLOAD
                0x0000000020000d45        0x1 /home/fx/Upwork/weather-node/output/sketch/weatherSIM808.ino.cpp.o
                0x0000000020000d45                flagDOWNLOAD
 .bss.pm2_buff  0x0000000020000d46       0x28 /home/fx/Upwork/weather-node/output/sketch/weatherSIM808.ino.cpp.o
                0x0000000020000d46                pm2_buff
 *fill*         0x0000000020000d6e        0x2 
 .bss.pm1_value
                0x0000000020000d70        0x4 /home/fx/Upwork/weather-node/output/sketch/weatherSIM808.ino.cpp.o
                0x0000000020000d70                pm1_value
 .bss.pm1_i     0x0000000020000d74        0x4 /home/fx/Upwork/weather-node/output/sketch/weatherSIM808.ino.cpp.o
                0x0000000020000d74                pm1_i
 .bss.humidity  0x0000000020000d78        0x4 /home/fx/Upwork/weather-node/output/sketch/weatherSIM808.ino.cpp.o
                0x0000000020000d78                humidity
 .bss.pm2_ok    0x0000000020000d7c        0x1 /home/fx/Upwork/weather-node/output/sketch/weatherSIM808.ino.cpp.o
                0x0000000020000d7c                pm2_ok
 .bss.flagOK    0x0000000020000d7d        0x1 /home/fx/Upwork/weather-node/output/sketch/weatherSIM808.ino.cpp.o
                0x0000000020000d7d                flagOK
 *fill*         0x0000000020000d7e        0x2 
 .bss.pm2_value
                0x0000000020000d80        0x4 /home/fx/Upwork/weather-node/output/sketch/weatherSIM808.ino.cpp.o
                0x0000000020000d80                pm2_value
 .bss.flagGNS   0x0000000020000d84        0x1 /home/fx/Upwork/weather-node/output/sketch/weatherSIM808.ino.cpp.o
                0x0000000020000d84                flagGNS
 *fill*         0x0000000020000d85        0x3 
 .bss.dht       0x0000000020000d88       0x14 /home/fx/Upwork/weather-node/output/sketch/weatherSIM808.ino.cpp.o
                0x0000000020000d88                dht
 .bss.modem_buffer
                0x0000000020000d9c       0xc8 /home/fx/Upwork/weather-node/output/sketch/weatherSIM808.ino.cpp.o
                0x0000000020000d9c                modem_buffer
 .bss.post_buffer
                0x0000000020000e64       0xb4 /home/fx/Upwork/weather-node/output/sketch/weatherSIM808.ino.cpp.o
                0x0000000020000e64                post_buffer
 .bss.temperature
                0x0000000020000f18        0x4 /home/fx/Upwork/weather-node/output/sketch/weatherSIM808.ino.cpp.o
                0x0000000020000f18                temperature
 .bss.modem_i   0x0000000020000f1c        0x4 /home/fx/Upwork/weather-node/output/sketch/weatherSIM808.ino.cpp.o
                0x0000000020000f1c                modem_i
 .bss.xNextFreeByte
                0x0000000020000f20        0x4 /home/fx/Upwork/weather-node/output/libraries/FreeRTOS821/utility/heap_1.c.o
 .bss.ucHeap    0x0000000020000f24     0x2000 /home/fx/Upwork/weather-node/output/libraries/FreeRTOS821/utility/heap_1.c.o
 .bss.pucAlignedHeap.4932
                0x0000000020002f24        0x4 /home/fx/Upwork/weather-node/output/libraries/FreeRTOS821/utility/heap_1.c.o
 .bss.xNumOfOverflows
                0x0000000020002f28        0x4 /home/fx/Upwork/weather-node/output/libraries/FreeRTOS821/utility/tasks.c.o
 .bss.pxDelayedTaskList
                0x0000000020002f2c        0x4 /home/fx/Upwork/weather-node/output/libraries/FreeRTOS821/utility/tasks.c.o
 .bss.xSchedulerRunning
                0x0000000020002f30        0x4 /home/fx/Upwork/weather-node/output/libraries/FreeRTOS821/utility/tasks.c.o
 .bss.uxTasksDeleted
                0x0000000020002f34        0x4 /home/fx/Upwork/weather-node/output/libraries/FreeRTOS821/utility/tasks.c.o
 .bss.xDelayedTaskList1
                0x0000000020002f38       0x14 /home/fx/Upwork/weather-node/output/libraries/FreeRTOS821/utility/tasks.c.o
 .bss.xDelayedTaskList2
                0x0000000020002f4c       0x14 /home/fx/Upwork/weather-node/output/libraries/FreeRTOS821/utility/tasks.c.o
 .bss.uxPendedTicks
                0x0000000020002f60        0x4 /home/fx/Upwork/weather-node/output/libraries/FreeRTOS821/utility/tasks.c.o
 .bss.pxReadyTasksLists
                0x0000000020002f64       0x64 /home/fx/Upwork/weather-node/output/libraries/FreeRTOS821/utility/tasks.c.o
 .bss.xTasksWaitingTermination
                0x0000000020002fc8       0x14 /home/fx/Upwork/weather-node/output/libraries/FreeRTOS821/utility/tasks.c.o
 .bss.pxCurrentTCB
                0x0000000020002fdc        0x4 /home/fx/Upwork/weather-node/output/libraries/FreeRTOS821/utility/tasks.c.o
                0x0000000020002fdc                pxCurrentTCB
 .bss.xPendingReadyList
                0x0000000020002fe0       0x14 /home/fx/Upwork/weather-node/output/libraries/FreeRTOS821/utility/tasks.c.o
 .bss.uxSchedulerSuspended
                0x0000000020002ff4        0x4 /home/fx/Upwork/weather-node/output/libraries/FreeRTOS821/utility/tasks.c.o
 .bss.xTickCount
                0x0000000020002ff8        0x4 /home/fx/Upwork/weather-node/output/libraries/FreeRTOS821/utility/tasks.c.o
 .bss.pxOverflowDelayedTaskList
                0x0000000020002ffc        0x4 /home/fx/Upwork/weather-node/output/libraries/FreeRTOS821/utility/tasks.c.o
 .bss.uxTaskNumber
                0x0000000020003000        0x4 /home/fx/Upwork/weather-node/output/libraries/FreeRTOS821/utility/tasks.c.o
 .bss.uxCurrentNumberOfTasks
                0x0000000020003004        0x4 /home/fx/Upwork/weather-node/output/libraries/FreeRTOS821/utility/tasks.c.o
 .bss.xSuspendedTaskList
                0x0000000020003008       0x14 /home/fx/Upwork/weather-node/output/libraries/FreeRTOS821/utility/tasks.c.o
 .bss.uxTopReadyPriority
                0x000000002000301c        0x4 /home/fx/Upwork/weather-node/output/libraries/FreeRTOS821/utility/tasks.c.o
 .bss.xYieldPending
                0x0000000020003020        0x4 /home/fx/Upwork/weather-node/output/libraries/FreeRTOS821/utility/tasks.c.o
 .bss.Serial1   0x0000000020003024       0x18 /home/fx/Upwork/weather-node/output/core/board.cpp.o
                0x0000000020003024                Serial1
 .bss.Serial2   0x000000002000303c       0x18 /home/fx/Upwork/weather-node/output/core/board.cpp.o
                0x000000002000303c                Serial2
 .bss.Serial3   0x0000000020003054       0x18 /home/fx/Upwork/weather-node/output/core/board.cpp.o
                0x0000000020003054                Serial3
 .bss.pbreak.4444
                0x000000002000306c        0x4 /home/fx/Upwork/weather-node/output/core/wirish/syscalls.c.o
 .bss.exti_channels
                0x0000000020003070       0x80 /home/fx/Upwork/weather-node/output/core/core.a(exti.c.o)
                0x0000000020003070                exti_channels
 .bss.systick_user_callback
                0x00000000200030f0        0x4 /home/fx/Upwork/weather-node/output/core/core.a(systick.c.o)
 .bss.usart1_wb
                0x00000000200030f4        0xc /home/fx/Upwork/weather-node/output/core/core.a(usart_f1.c.o)
 .bss.usart1_rb
                0x0000000020003100        0xc /home/fx/Upwork/weather-node/output/core/core.a(usart_f1.c.o)
 .bss.usart2_rb
                0x000000002000310c        0xc /home/fx/Upwork/weather-node/output/core/core.a(usart_f1.c.o)
 .bss.usart3_rb
                0x0000000020003118        0xc /home/fx/Upwork/weather-node/output/core/core.a(usart_f1.c.o)
 .bss.usart2_wb
                0x0000000020003124        0xc /home/fx/Upwork/weather-node/output/core/core.a(usart_f1.c.o)
 .bss.usart3_wb
                0x0000000020003130        0xc /home/fx/Upwork/weather-node/output/core/core.a(usart_f1.c.o)
 .bss.line_dtr_rts
                0x000000002000313c        0x1 /home/fx/Upwork/weather-node/output/core/core.a(usb_cdcacm.c.o)
 .bss.vcomBufferTx
                0x000000002000313d      0x100 /home/fx/Upwork/weather-node/output/core/core.a(usb_cdcacm.c.o)
 *fill*         0x000000002000323d        0x3 
 .bss.tx_head   0x0000000020003240        0x4 /home/fx/Upwork/weather-node/output/core/core.a(usb_cdcacm.c.o)
 .bss.rx_hook   0x0000000020003244        0x4 /home/fx/Upwork/weather-node/output/core/core.a(usb_cdcacm.c.o)
 .bss.vcomBufferRx
                0x0000000020003248      0x100 /home/fx/Upwork/weather-node/output/core/core.a(usb_cdcacm.c.o)
 .bss.transmitting
                0x0000000020003348        0x1 /home/fx/Upwork/weather-node/output/core/core.a(usb_cdcacm.c.o)
 *fill*         0x0000000020003349        0x3 
 .bss.rx_tail   0x000000002000334c        0x4 /home/fx/Upwork/weather-node/output/core/core.a(usb_cdcacm.c.o)
 .bss.iface_setup_hook
                0x0000000020003350        0x4 /home/fx/Upwork/weather-node/output/core/core.a(usb_cdcacm.c.o)
 .bss.rx_head   0x0000000020003354        0x4 /home/fx/Upwork/weather-node/output/core/core.a(usb_cdcacm.c.o)
 .bss.tx_tail   0x0000000020003358        0x4 /home/fx/Upwork/weather-node/output/core/core.a(usb_cdcacm.c.o)
 .bss.Data_Mul_MaxPacketSize
                0x000000002000335c        0x1 /home/fx/Upwork/weather-node/output/core/core.a(usb_core.c.o)
                0x000000002000335c                Data_Mul_MaxPacketSize
 .bss._ZN9USBSerial9_hasBegunE
                0x000000002000335d        0x1 /home/fx/Upwork/weather-node/output/core/core.a(usb_serial.cpp.o)
                0x000000002000335d                USBSerial::_hasBegun
 *fill*         0x000000002000335e        0x2 
 .bss.Serial    0x0000000020003360       0x10 /home/fx/Upwork/weather-node/output/core/core.a(usb_serial.cpp.o)
                0x0000000020003360                Serial
 .bss._ZL11reset_state
                0x0000000020003370        0x1 /home/fx/Upwork/weather-node/output/core/core.a(usb_serial.cpp.o)
 .bss._ZN9USBSerial11_isBlockingE
                0x0000000020003371        0x1 /home/fx/Upwork/weather-node/output/core/core.a(usb_serial.cpp.o)
                0x0000000020003371                USBSerial::_isBlocking
 *fill*         0x0000000020003372        0x2 
 .bss.__malloc_max_total_mem
                0x0000000020003374        0x4 /home/fx/.arduino15/packages/arduino/tools/arm-none-eabi-gcc/4.8.3-2014q1/bin/../lib/gcc/arm-none-eabi/4.8.3/../../../../arm-none-eabi/lib/armv7-m/libc.a(lib_a-mallocr.o)
                0x0000000020003374                __malloc_max_total_mem
 .bss.__malloc_max_sbrked_mem
                0x0000000020003378        0x4 /home/fx/.arduino15/packages/arduino/tools/arm-none-eabi-gcc/4.8.3-2014q1/bin/../lib/gcc/arm-none-eabi/4.8.3/../../../../arm-none-eabi/lib/armv7-m/libc.a(lib_a-mallocr.o)
                0x0000000020003378                __malloc_max_sbrked_mem
 .bss.__malloc_top_pad
                0x000000002000337c        0x4 /home/fx/.arduino15/packages/arduino/tools/arm-none-eabi-gcc/4.8.3-2014q1/bin/../lib/gcc/arm-none-eabi/4.8.3/../../../../arm-none-eabi/lib/armv7-m/libc.a(lib_a-mallocr.o)
                0x000000002000337c                __malloc_top_pad
 .bss.__malloc_current_mallinfo
                0x0000000020003380       0x28 /home/fx/.arduino15/packages/arduino/tools/arm-none-eabi-gcc/4.8.3-2014q1/bin/../lib/gcc/arm-none-eabi/4.8.3/../../../../arm-none-eabi/lib/armv7-m/libc.a(lib_a-mallocr.o)
                0x0000000020003380                __malloc_current_mallinfo
 *(COMMON)
 COMMON         0x00000000200033a8        0x4 /home/fx/Upwork/weather-node/output/core/core.a(systick.c.o)
                0x00000000200033a8                systick_uptime_millis
 COMMON         0x00000000200033ac        0x6 /home/fx/Upwork/weather-node/output/core/core.a(usb.c.o)
                0x00000000200033ac                SaveRState
                0x00000000200033ae                SaveTState
                0x00000000200033b0                ResumeS
 COMMON         0x00000000200033b2        0x2 /home/fx/Upwork/weather-node/output/core/core.a(usb_core.c.o)
                0x00000000200033b2                StatusInfo
 COMMON         0x00000000200033b4       0x32 /home/fx/Upwork/weather-node/output/core/core.a(usb_init.c.o)
                0x00000000200033b4                SaveState
                0x00000000200033b8                pProperty
                0x00000000200033bc                EPindex
                0x00000000200033c0                Device_Info
                0x00000000200033dc                pUser_Standard_Requests
                0x00000000200033e0                pInformation
                0x00000000200033e4                wInterrupt_Mask
 *fill*         0x00000000200033e6        0x2 
 COMMON         0x00000000200033e8        0x4 /home/fx/.arduino15/packages/arduino/tools/arm-none-eabi-gcc/4.8.3-2014q1/bin/../lib/gcc/arm-none-eabi/4.8.3/../../../../arm-none-eabi/lib/armv7-m/libc.a(lib_a-reent.o)
                0x00000000200033e8                errno
                0x00000000200033f0                . = ALIGN (0x8)
 *fill*         0x00000000200033ec        0x4 
                0x00000000200033f0                __bss_end__ = .
                0x00000000200033f0                _end = __bss_end__

.stab
 *(.stab)

.stabstr
 *(.stabstr)

.debug
 *(.debug)

.line
 *(.line)

.debug_srcinfo
 *(.debug_srcinfo)

.debug_sfnames
 *(.debug_sfnames)

.debug_aranges  0x0000000000000000     0x15d0
 *(.debug_aranges)
 .debug_aranges
                0x0000000000000000       0xc0 /home/fx/Upwork/weather-node/output/sketch/weatherSIM808.ino.cpp.o
 .debug_aranges
                0x00000000000000c0       0x20 /home/fx/Upwork/weather-node/output/libraries/FreeRTOS821/MapleFreeRTOS821.cpp.o
 .debug_aranges
                0x00000000000000e0       0x18 /home/fx/Upwork/weather-node/output/libraries/FreeRTOS821/utility/croutine.c.o
 .debug_aranges
                0x00000000000000f8       0x68 /home/fx/Upwork/weather-node/output/libraries/FreeRTOS821/utility/event_groups.c.o
 .debug_aranges
                0x0000000000000160       0x38 /home/fx/Upwork/weather-node/output/libraries/FreeRTOS821/utility/heap_1.c.o
 .debug_aranges
                0x0000000000000198       0x40 /home/fx/Upwork/weather-node/output/libraries/FreeRTOS821/utility/list.c.o
 .debug_aranges
                0x00000000000001d8       0x88 /home/fx/Upwork/weather-node/output/libraries/FreeRTOS821/utility/port.c.o
 .debug_aranges
                0x0000000000000260       0xd8 /home/fx/Upwork/weather-node/output/libraries/FreeRTOS821/utility/queue.c.o
 .debug_aranges
                0x0000000000000338      0x178 /home/fx/Upwork/weather-node/output/libraries/FreeRTOS821/utility/tasks.c.o
 .debug_aranges
                0x00000000000004b0       0x18 /home/fx/Upwork/weather-node/output/libraries/FreeRTOS821/utility/timers.c.o
 .debug_aranges
                0x00000000000004c8       0x68 /home/fx/Upwork/weather-node/output/libraries/DHT_sensor_library/DHT.cpp.o
 .debug_aranges
                0x0000000000000530       0xa0 /home/fx/Upwork/weather-node/output/libraries/DHT_sensor_library/DHT_U.cpp.o
 .debug_aranges
                0x00000000000005d0       0x20 /home/fx/Upwork/weather-node/output/libraries/Adafruit_Unified_Sensor/Adafruit_Sensor.cpp.o
 .debug_aranges
                0x00000000000005f0       0x28 /home/fx/Upwork/weather-node/output/core/board.cpp.o
 .debug_aranges
                0x0000000000000618       0x40 /home/fx/Upwork/weather-node/output/core/wirish/boards.cpp.o
 .debug_aranges
                0x0000000000000658       0x40 /home/fx/Upwork/weather-node/output/core/wirish/boards_setup.cpp.o
 .debug_aranges
                0x0000000000000698       0x20 /home/fx/Upwork/weather-node/output/core/wirish/start.S.o
 .debug_aranges
                0x00000000000006b8       0x20 /home/fx/Upwork/weather-node/output/core/wirish/start_c.c.o
 .debug_aranges
                0x00000000000006d8       0x88 /home/fx/Upwork/weather-node/output/core/wirish/syscalls.c.o
 .debug_aranges
                0x0000000000000760       0x70 /home/fx/Upwork/weather-node/output/core/core.a(HardwareSerial.cpp.o)
 .debug_aranges
                0x00000000000007d0      0x110 /home/fx/Upwork/weather-node/output/core/core.a(Print.cpp.o)
 .debug_aranges
                0x00000000000008e0       0x28 /home/fx/Upwork/weather-node/output/core/core.a(cxxabi-compat.cpp.o)
 .debug_aranges
                0x0000000000000908       0x38 /home/fx/Upwork/weather-node/output/core/core.a(adc.c.o)
 .debug_aranges
                0x0000000000000940       0x58 /home/fx/Upwork/weather-node/output/core/core.a(adc_f1.c.o)
 .debug_aranges
                0x0000000000000998       0xb0 /home/fx/Upwork/weather-node/output/core/core.a(dma_f1.c.o)
 .debug_aranges
                0x0000000000000a48       0x20 /home/fx/Upwork/weather-node/output/core/core.a(exc.S.o)
 .debug_aranges
                0x0000000000000a68       0x80 /home/fx/Upwork/weather-node/output/core/core.a(exti.c.o)
 .debug_aranges
                0x0000000000000ae8       0x20 /home/fx/Upwork/weather-node/output/core/core.a(exti_f1.c.o)
 .debug_aranges
                0x0000000000000b08       0x20 /home/fx/Upwork/weather-node/output/core/core.a(flash.c.o)
 .debug_aranges
                0x0000000000000b28       0x48 /home/fx/Upwork/weather-node/output/core/core.a(gpio_f1.c.o)
 .debug_aranges
                0x0000000000000b70       0x50 /home/fx/Upwork/weather-node/output/core/core.a(i2c_f1.c.o)
 .debug_aranges
                0x0000000000000bc0       0x38 /home/fx/Upwork/weather-node/output/core/core.a(nvic.c.o)
 .debug_aranges
                0x0000000000000bf8       0x48 /home/fx/Upwork/weather-node/output/core/core.a(rcc.c.o)
 .debug_aranges
                0x0000000000000c40       0x48 /home/fx/Upwork/weather-node/output/core/core.a(rcc_f1.c.o)
 .debug_aranges
                0x0000000000000c88       0x20 /home/fx/Upwork/weather-node/output/core/core.a(isrs.S.o)
 .debug_aranges
                0x0000000000000ca8       0x40 /home/fx/Upwork/weather-node/output/core/core.a(systick.c.o)
 .debug_aranges
                0x0000000000000ce8       0xb0 /home/fx/Upwork/weather-node/output/core/core.a(timer.c.o)
 .debug_aranges
                0x0000000000000d98       0x48 /home/fx/Upwork/weather-node/output/core/core.a(usart.c.o)
 .debug_aranges
                0x0000000000000de0       0x50 /home/fx/Upwork/weather-node/output/core/core.a(usart_f1.c.o)
 .debug_aranges
                0x0000000000000e30       0x20 /home/fx/Upwork/weather-node/output/core/core.a(usart_private.c.o)
 .debug_aranges
                0x0000000000000e50       0x38 /home/fx/Upwork/weather-node/output/core/core.a(usb.c.o)
 .debug_aranges
                0x0000000000000e88      0x128 /home/fx/Upwork/weather-node/output/core/core.a(usb_cdcacm.c.o)
 .debug_aranges
                0x0000000000000fb0       0x20 /home/fx/Upwork/weather-node/output/core/core.a(usb_reg_map.c.o)
 .debug_aranges
                0x0000000000000fd0       0x98 /home/fx/Upwork/weather-node/output/core/core.a(usb_core.c.o)
 .debug_aranges
                0x0000000000001068       0x20 /home/fx/Upwork/weather-node/output/core/core.a(usb_init.c.o)
 .debug_aranges
                0x0000000000001088       0x28 /home/fx/Upwork/weather-node/output/core/core.a(usb_mem.c.o)
 .debug_aranges
                0x00000000000010b0      0x1f0 /home/fx/Upwork/weather-node/output/core/core.a(usb_regs.c.o)
 .debug_aranges
                0x00000000000012a0       0x50 /home/fx/Upwork/weather-node/output/core/core.a(util.c.o)
 .debug_aranges
                0x00000000000012f0       0x28 /home/fx/Upwork/weather-node/output/core/core.a(main.cpp.o)
 .debug_aranges
                0x0000000000001318       0x38 /home/fx/Upwork/weather-node/output/core/core.a(new.cpp.o)
 .debug_aranges
                0x0000000000001350       0x20 /home/fx/Upwork/weather-node/output/core/core.a(wirish_digital_f1.cpp.o)
 .debug_aranges
                0x0000000000001370       0xd8 /home/fx/Upwork/weather-node/output/core/core.a(usb_serial.cpp.o)
 .debug_aranges
                0x0000000000001448       0x28 /home/fx/Upwork/weather-node/output/core/core.a(wirish_digital.cpp.o)
 .debug_aranges
                0x0000000000001470       0x30 /home/fx/Upwork/weather-node/output/core/core.a(wirish_time.cpp.o)
 .debug_aranges
                0x00000000000014a0       0x20 /home/fx/Upwork/weather-node/output/core/core.a(hooks.c.o)
 .debug_aranges
                0x00000000000014c0       0x40 /home/fx/Upwork/weather-node/output/core/core.a(bkp_f1.c.o)
 .debug_aranges
                0x0000000000001500       0x28 /home/fx/Upwork/weather-node/output/core/core.a(dma.c.o)
 .debug_aranges
                0x0000000000001528       0x20 /home/fx/Upwork/weather-node/output/core/core.a(gpio.c.o)
 .debug_aranges
                0x0000000000001548       0x88 /home/fx/Upwork/weather-node/output/core/core.a(i2c.c.o)

.debug_pubnames
 *(.debug_pubnames)

.debug_info     0x0000000000000000    0x28f04
 *(.debug_info .gnu.linkonce.wi.*)
 .debug_info    0x0000000000000000     0x181f /home/fx/Upwork/weather-node/output/sketch/weatherSIM808.ino.cpp.o
 .debug_info    0x000000000000181f      0x16b /home/fx/Upwork/weather-node/output/libraries/FreeRTOS821/MapleFreeRTOS821.cpp.o
 .debug_info    0x000000000000198a       0x75 /home/fx/Upwork/weather-node/output/libraries/FreeRTOS821/utility/croutine.c.o
 .debug_info    0x00000000000019ff      0x951 /home/fx/Upwork/weather-node/output/libraries/FreeRTOS821/utility/event_groups.c.o
 .debug_info    0x0000000000002350      0x1b1 /home/fx/Upwork/weather-node/output/libraries/FreeRTOS821/utility/heap_1.c.o
 .debug_info    0x0000000000002501      0x29b /home/fx/Upwork/weather-node/output/libraries/FreeRTOS821/utility/list.c.o
 .debug_info    0x000000000000279c      0x305 /home/fx/Upwork/weather-node/output/libraries/FreeRTOS821/utility/port.c.o
 .debug_info    0x0000000000002aa1     0x129d /home/fx/Upwork/weather-node/output/libraries/FreeRTOS821/utility/queue.c.o
 .debug_info    0x0000000000003d3e     0x21cd /home/fx/Upwork/weather-node/output/libraries/FreeRTOS821/utility/tasks.c.o
 .debug_info    0x0000000000005f0b       0x75 /home/fx/Upwork/weather-node/output/libraries/FreeRTOS821/utility/timers.c.o
 .debug_info    0x0000000000005f80      0xb60 /home/fx/Upwork/weather-node/output/libraries/DHT_sensor_library/DHT.cpp.o
 .debug_info    0x0000000000006ae0     0x1270 /home/fx/Upwork/weather-node/output/libraries/DHT_sensor_library/DHT_U.cpp.o
 .debug_info    0x0000000000007d50      0x8eb /home/fx/Upwork/weather-node/output/libraries/Adafruit_Unified_Sensor/Adafruit_Sensor.cpp.o
 .debug_info    0x000000000000863b      0xf2e /home/fx/Upwork/weather-node/output/core/board.cpp.o
 .debug_info    0x0000000000009569     0x142b /home/fx/Upwork/weather-node/output/core/wirish/boards.cpp.o
 .debug_info    0x000000000000a994     0x10c7 /home/fx/Upwork/weather-node/output/core/wirish/boards_setup.cpp.o
 .debug_info    0x000000000000ba5b       0xdc /home/fx/Upwork/weather-node/output/core/wirish/start.S.o
 .debug_info    0x000000000000bb37      0x14d /home/fx/Upwork/weather-node/output/core/wirish/start_c.c.o
 .debug_info    0x000000000000bc84      0x5cd /home/fx/Upwork/weather-node/output/core/wirish/syscalls.c.o
 .debug_info    0x000000000000c251     0x29ea /home/fx/Upwork/weather-node/output/core/core.a(HardwareSerial.cpp.o)
 .debug_info    0x000000000000ec3b     0x258c /home/fx/Upwork/weather-node/output/core/core.a(Print.cpp.o)
 .debug_info    0x00000000000111c7      0x526 /home/fx/Upwork/weather-node/output/core/core.a(cxxabi-compat.cpp.o)
 .debug_info    0x00000000000116ed      0x79a /home/fx/Upwork/weather-node/output/core/core.a(adc.c.o)
 .debug_info    0x0000000000011e87      0xe4a /home/fx/Upwork/weather-node/output/core/core.a(adc_f1.c.o)
 .debug_info    0x0000000000012cd1     0x1b7a /home/fx/Upwork/weather-node/output/core/core.a(dma_f1.c.o)
 .debug_info    0x000000000001484b       0xcc /home/fx/Upwork/weather-node/output/core/core.a(exc.S.o)
 .debug_info    0x0000000000014917      0xd95 /home/fx/Upwork/weather-node/output/core/core.a(exti.c.o)
 .debug_info    0x00000000000156ac      0x213 /home/fx/Upwork/weather-node/output/core/core.a(exti_f1.c.o)
 .debug_info    0x00000000000158bf      0x128 /home/fx/Upwork/weather-node/output/core/core.a(flash.c.o)
 .debug_info    0x00000000000159e7      0x715 /home/fx/Upwork/weather-node/output/core/core.a(gpio_f1.c.o)
 .debug_info    0x00000000000160fc      0xc25 /home/fx/Upwork/weather-node/output/core/core.a(i2c_f1.c.o)
 .debug_info    0x0000000000016d21      0x5a2 /home/fx/Upwork/weather-node/output/core/core.a(nvic.c.o)
 .debug_info    0x00000000000172c3      0x556 /home/fx/Upwork/weather-node/output/core/core.a(rcc.c.o)
 .debug_info    0x0000000000017819      0xc01 /home/fx/Upwork/weather-node/output/core/core.a(rcc_f1.c.o)
 .debug_info    0x000000000001841a       0xe1 /home/fx/Upwork/weather-node/output/core/core.a(isrs.S.o)
 .debug_info    0x00000000000184fb      0x182 /home/fx/Upwork/weather-node/output/core/core.a(systick.c.o)
 .debug_info    0x000000000001867d     0x1a43 /home/fx/Upwork/weather-node/output/core/core.a(timer.c.o)
 .debug_info    0x000000000001a0c0      0xc32 /home/fx/Upwork/weather-node/output/core/core.a(usart.c.o)
 .debug_info    0x000000000001acf2      0xbe0 /home/fx/Upwork/weather-node/output/core/core.a(usart_f1.c.o)
 .debug_info    0x000000000001b8d2      0x595 /home/fx/Upwork/weather-node/output/core/core.a(usart_private.c.o)
 .debug_info    0x000000000001be67      0xd9b /home/fx/Upwork/weather-node/output/core/core.a(usb.c.o)
 .debug_info    0x000000000001cc02     0x22d2 /home/fx/Upwork/weather-node/output/core/core.a(usb_cdcacm.c.o)
 .debug_info    0x000000000001eed4      0x26c /home/fx/Upwork/weather-node/output/core/core.a(usb_reg_map.c.o)
 .debug_info    0x000000000001f140      0xddf /home/fx/Upwork/weather-node/output/core/core.a(usb_core.c.o)
 .debug_info    0x000000000001ff1f      0x3ed /home/fx/Upwork/weather-node/output/core/core.a(usb_init.c.o)
 .debug_info    0x000000000002030c      0x183 /home/fx/Upwork/weather-node/output/core/core.a(usb_mem.c.o)
 .debug_info    0x000000000002048f      0xc88 /home/fx/Upwork/weather-node/output/core/core.a(usb_regs.c.o)
 .debug_info    0x0000000000021117      0xad2 /home/fx/Upwork/weather-node/output/core/core.a(util.c.o)
 .debug_info    0x0000000000021be9       0x99 /home/fx/Upwork/weather-node/output/core/core.a(main.cpp.o)
 .debug_info    0x0000000000021c82      0x1a1 /home/fx/Upwork/weather-node/output/core/core.a(new.cpp.o)
 .debug_info    0x0000000000021e23      0xcdd /home/fx/Upwork/weather-node/output/core/core.a(wirish_digital_f1.cpp.o)
 .debug_info    0x0000000000022b00     0x2b38 /home/fx/Upwork/weather-node/output/core/core.a(usb_serial.cpp.o)
 .debug_info    0x0000000000025638      0xb0b /home/fx/Upwork/weather-node/output/core/core.a(wirish_digital.cpp.o)
 .debug_info    0x0000000000026143      0x2c6 /home/fx/Upwork/weather-node/output/core/core.a(wirish_time.cpp.o)
 .debug_info    0x0000000000026409       0x33 /home/fx/Upwork/weather-node/output/core/core.a(hooks.c.o)
 .debug_info    0x000000000002643c      0x549 /home/fx/Upwork/weather-node/output/core/core.a(bkp_f1.c.o)
 .debug_info    0x0000000000026985      0x74e /home/fx/Upwork/weather-node/output/core/core.a(dma.c.o)
 .debug_info    0x00000000000270d3      0x313 /home/fx/Upwork/weather-node/output/core/core.a(gpio.c.o)
 .debug_info    0x00000000000273e6     0x1b1e /home/fx/Upwork/weather-node/output/core/core.a(i2c.c.o)

.debug_abbrev   0x0000000000000000     0x7f6f
 *(.debug_abbrev)
 .debug_abbrev  0x0000000000000000      0x478 /home/fx/Upwork/weather-node/output/sketch/weatherSIM808.ino.cpp.o
 .debug_abbrev  0x0000000000000478       0xb2 /home/fx/Upwork/weather-node/output/libraries/FreeRTOS821/MapleFreeRTOS821.cpp.o
 .debug_abbrev  0x000000000000052a       0x24 /home/fx/Upwork/weather-node/output/libraries/FreeRTOS821/utility/croutine.c.o
 .debug_abbrev  0x000000000000054e      0x28b /home/fx/Upwork/weather-node/output/libraries/FreeRTOS821/utility/event_groups.c.o
 .debug_abbrev  0x00000000000007d9      0x12a /home/fx/Upwork/weather-node/output/libraries/FreeRTOS821/utility/heap_1.c.o
 .debug_abbrev  0x0000000000000903       0xda /home/fx/Upwork/weather-node/output/libraries/FreeRTOS821/utility/list.c.o
 .debug_abbrev  0x00000000000009dd      0x1e0 /home/fx/Upwork/weather-node/output/libraries/FreeRTOS821/utility/port.c.o
 .debug_abbrev  0x0000000000000bbd      0x2aa /home/fx/Upwork/weather-node/output/libraries/FreeRTOS821/utility/queue.c.o
 .debug_abbrev  0x0000000000000e67      0x386 /home/fx/Upwork/weather-node/output/libraries/FreeRTOS821/utility/tasks.c.o
 .debug_abbrev  0x00000000000011ed       0x24 /home/fx/Upwork/weather-node/output/libraries/FreeRTOS821/utility/timers.c.o
 .debug_abbrev  0x0000000000001211      0x428 /home/fx/Upwork/weather-node/output/libraries/DHT_sensor_library/DHT.cpp.o
 .debug_abbrev  0x0000000000001639      0x467 /home/fx/Upwork/weather-node/output/libraries/DHT_sensor_library/DHT_U.cpp.o
 .debug_abbrev  0x0000000000001aa0      0x2e5 /home/fx/Upwork/weather-node/output/libraries/Adafruit_Unified_Sensor/Adafruit_Sensor.cpp.o
 .debug_abbrev  0x0000000000001d85      0x1ea /home/fx/Upwork/weather-node/output/core/board.cpp.o
 .debug_abbrev  0x0000000000001f6f      0x3dd /home/fx/Upwork/weather-node/output/core/wirish/boards.cpp.o
 .debug_abbrev  0x000000000000234c      0x2af /home/fx/Upwork/weather-node/output/core/wirish/boards_setup.cpp.o
 .debug_abbrev  0x00000000000025fb       0x14 /home/fx/Upwork/weather-node/output/core/wirish/start.S.o
 .debug_abbrev  0x000000000000260f       0xfd /home/fx/Upwork/weather-node/output/core/wirish/start_c.c.o
 .debug_abbrev  0x000000000000270c      0x17e /home/fx/Upwork/weather-node/output/core/wirish/syscalls.c.o
 .debug_abbrev  0x000000000000288a      0x535 /home/fx/Upwork/weather-node/output/core/core.a(HardwareSerial.cpp.o)
 .debug_abbrev  0x0000000000002dbf      0x414 /home/fx/Upwork/weather-node/output/core/core.a(Print.cpp.o)
 .debug_abbrev  0x00000000000031d3      0x163 /home/fx/Upwork/weather-node/output/core/core.a(cxxabi-compat.cpp.o)
 .debug_abbrev  0x0000000000003336      0x20b /home/fx/Upwork/weather-node/output/core/core.a(adc.c.o)
 .debug_abbrev  0x0000000000003541      0x2e6 /home/fx/Upwork/weather-node/output/core/core.a(adc_f1.c.o)
 .debug_abbrev  0x0000000000003827      0x3fc /home/fx/Upwork/weather-node/output/core/core.a(dma_f1.c.o)
 .debug_abbrev  0x0000000000003c23       0x14 /home/fx/Upwork/weather-node/output/core/core.a(exc.S.o)
 .debug_abbrev  0x0000000000003c37      0x2ad /home/fx/Upwork/weather-node/output/core/core.a(exti.c.o)
 .debug_abbrev  0x0000000000003ee4       0xdb /home/fx/Upwork/weather-node/output/core/core.a(exti_f1.c.o)
 .debug_abbrev  0x0000000000003fbf       0x9f /home/fx/Upwork/weather-node/output/core/core.a(flash.c.o)
 .debug_abbrev  0x000000000000405e      0x191 /home/fx/Upwork/weather-node/output/core/core.a(gpio_f1.c.o)
 .debug_abbrev  0x00000000000041ef      0x20b /home/fx/Upwork/weather-node/output/core/core.a(i2c_f1.c.o)
 .debug_abbrev  0x00000000000043fa      0x1ac /home/fx/Upwork/weather-node/output/core/core.a(nvic.c.o)
 .debug_abbrev  0x00000000000045a6      0x17f /home/fx/Upwork/weather-node/output/core/core.a(rcc.c.o)
 .debug_abbrev  0x0000000000004725      0x28c /home/fx/Upwork/weather-node/output/core/core.a(rcc_f1.c.o)
 .debug_abbrev  0x00000000000049b1       0x14 /home/fx/Upwork/weather-node/output/core/core.a(isrs.S.o)
 .debug_abbrev  0x00000000000049c5      0x10f /home/fx/Upwork/weather-node/output/core/core.a(systick.c.o)
 .debug_abbrev  0x0000000000004ad4      0x4af /home/fx/Upwork/weather-node/output/core/core.a(timer.c.o)
 .debug_abbrev  0x0000000000004f83      0x2ff /home/fx/Upwork/weather-node/output/core/core.a(usart.c.o)
 .debug_abbrev  0x0000000000005282      0x2b6 /home/fx/Upwork/weather-node/output/core/core.a(usart_f1.c.o)
 .debug_abbrev  0x0000000000005538      0x144 /home/fx/Upwork/weather-node/output/core/core.a(usart_private.c.o)
 .debug_abbrev  0x000000000000567c      0x343 /home/fx/Upwork/weather-node/output/core/core.a(usb.c.o)
 .debug_abbrev  0x00000000000059bf      0x47d /home/fx/Upwork/weather-node/output/core/core.a(usb_cdcacm.c.o)
 .debug_abbrev  0x0000000000005e3c      0x193 /home/fx/Upwork/weather-node/output/core/core.a(usb_reg_map.c.o)
 .debug_abbrev  0x0000000000005fcf      0x3a6 /home/fx/Upwork/weather-node/output/core/core.a(usb_core.c.o)
 .debug_abbrev  0x0000000000006375      0x101 /home/fx/Upwork/weather-node/output/core/core.a(usb_init.c.o)
 .debug_abbrev  0x0000000000006476       0xa6 /home/fx/Upwork/weather-node/output/core/core.a(usb_mem.c.o)
 .debug_abbrev  0x000000000000651c      0x1f3 /home/fx/Upwork/weather-node/output/core/core.a(usb_regs.c.o)
 .debug_abbrev  0x000000000000670f      0x2cb /home/fx/Upwork/weather-node/output/core/core.a(util.c.o)
 .debug_abbrev  0x00000000000069da       0x7b /home/fx/Upwork/weather-node/output/core/core.a(main.cpp.o)
 .debug_abbrev  0x0000000000006a55       0xda /home/fx/Upwork/weather-node/output/core/core.a(new.cpp.o)
 .debug_abbrev  0x0000000000006b2f      0x250 /home/fx/Upwork/weather-node/output/core/core.a(wirish_digital_f1.cpp.o)
 .debug_abbrev  0x0000000000006d7f      0x635 /home/fx/Upwork/weather-node/output/core/core.a(usb_serial.cpp.o)
 .debug_abbrev  0x00000000000073b4      0x17e /home/fx/Upwork/weather-node/output/core/core.a(wirish_digital.cpp.o)
 .debug_abbrev  0x0000000000007532      0x189 /home/fx/Upwork/weather-node/output/core/core.a(wirish_time.cpp.o)
 .debug_abbrev  0x00000000000076bb       0x26 /home/fx/Upwork/weather-node/output/core/core.a(hooks.c.o)
 .debug_abbrev  0x00000000000076e1      0x1b1 /home/fx/Upwork/weather-node/output/core/core.a(bkp_f1.c.o)
 .debug_abbrev  0x0000000000007892      0x19d /home/fx/Upwork/weather-node/output/core/core.a(dma.c.o)
 .debug_abbrev  0x0000000000007a2f      0x113 /home/fx/Upwork/weather-node/output/core/core.a(gpio.c.o)
 .debug_abbrev  0x0000000000007b42      0x42d /home/fx/Upwork/weather-node/output/core/core.a(i2c.c.o)

.debug_line     0x0000000000000000     0xce30
 *(.debug_line)
 .debug_line    0x0000000000000000      0x744 /home/fx/Upwork/weather-node/output/sketch/weatherSIM808.ino.cpp.o
 .debug_line    0x0000000000000744      0x2dd /home/fx/Upwork/weather-node/output/libraries/FreeRTOS821/MapleFreeRTOS821.cpp.o
 .debug_line    0x0000000000000a21       0x1d /home/fx/Upwork/weather-node/output/libraries/FreeRTOS821/utility/croutine.c.o
 .debug_line    0x0000000000000a3e      0x396 /home/fx/Upwork/weather-node/output/libraries/FreeRTOS821/utility/event_groups.c.o
 .debug_line    0x0000000000000dd4      0x265 /home/fx/Upwork/weather-node/output/libraries/FreeRTOS821/utility/heap_1.c.o
 .debug_line    0x0000000000001039      0x20d /home/fx/Upwork/weather-node/output/libraries/FreeRTOS821/utility/list.c.o
 .debug_line    0x0000000000001246      0x2af /home/fx/Upwork/weather-node/output/libraries/FreeRTOS821/utility/port.c.o
 .debug_line    0x00000000000014f5      0x586 /home/fx/Upwork/weather-node/output/libraries/FreeRTOS821/utility/queue.c.o
 .debug_line    0x0000000000001a7b      0x9fd /home/fx/Upwork/weather-node/output/libraries/FreeRTOS821/utility/tasks.c.o
 .debug_line    0x0000000000002478       0x1d /home/fx/Upwork/weather-node/output/libraries/FreeRTOS821/utility/timers.c.o
 .debug_line    0x0000000000002495      0x4ea /home/fx/Upwork/weather-node/output/libraries/DHT_sensor_library/DHT.cpp.o
 .debug_line    0x000000000000297f      0x583 /home/fx/Upwork/weather-node/output/libraries/DHT_sensor_library/DHT_U.cpp.o
 .debug_line    0x0000000000002f02      0x37c /home/fx/Upwork/weather-node/output/libraries/Adafruit_Unified_Sensor/Adafruit_Sensor.cpp.o
 .debug_line    0x000000000000327e      0x3ce /home/fx/Upwork/weather-node/output/core/board.cpp.o
 .debug_line    0x000000000000364c      0x459 /home/fx/Upwork/weather-node/output/core/wirish/boards.cpp.o
 .debug_line    0x0000000000003aa5      0x438 /home/fx/Upwork/weather-node/output/core/wirish/boards_setup.cpp.o
 .debug_line    0x0000000000003edd       0xa1 /home/fx/Upwork/weather-node/output/core/wirish/start.S.o
 .debug_line    0x0000000000003f7e       0xaf /home/fx/Upwork/weather-node/output/core/wirish/start_c.c.o
 .debug_line    0x000000000000402d      0x2d1 /home/fx/Upwork/weather-node/output/core/wirish/syscalls.c.o
 .debug_line    0x00000000000042fe      0x4e8 /home/fx/Upwork/weather-node/output/core/core.a(HardwareSerial.cpp.o)
 .debug_line    0x00000000000047e6      0x569 /home/fx/Upwork/weather-node/output/core/core.a(Print.cpp.o)
 .debug_line    0x0000000000004d4f      0x220 /home/fx/Upwork/weather-node/output/core/core.a(cxxabi-compat.cpp.o)
 .debug_line    0x0000000000004f6f      0x2e3 /home/fx/Upwork/weather-node/output/core/core.a(adc.c.o)
 .debug_line    0x0000000000005252      0x38f /home/fx/Upwork/weather-node/output/core/core.a(adc_f1.c.o)
 .debug_line    0x00000000000055e1      0x6c4 /home/fx/Upwork/weather-node/output/core/core.a(dma_f1.c.o)
 .debug_line    0x0000000000005ca5       0xa4 /home/fx/Upwork/weather-node/output/core/core.a(exc.S.o)
 .debug_line    0x0000000000005d49      0x3cd /home/fx/Upwork/weather-node/output/core/core.a(exti.c.o)
 .debug_line    0x0000000000006116      0x2d2 /home/fx/Upwork/weather-node/output/core/core.a(exti_f1.c.o)
 .debug_line    0x00000000000063e8      0x265 /home/fx/Upwork/weather-node/output/core/core.a(flash.c.o)
 .debug_line    0x000000000000664d      0x30e /home/fx/Upwork/weather-node/output/core/core.a(gpio_f1.c.o)
 .debug_line    0x000000000000695b      0x3df /home/fx/Upwork/weather-node/output/core/core.a(i2c_f1.c.o)
 .debug_line    0x0000000000006d3a      0x2cd /home/fx/Upwork/weather-node/output/core/core.a(nvic.c.o)
 .debug_line    0x0000000000007007      0x353 /home/fx/Upwork/weather-node/output/core/core.a(rcc.c.o)
 .debug_line    0x000000000000735a      0x3c6 /home/fx/Upwork/weather-node/output/core/core.a(rcc_f1.c.o)
 .debug_line    0x0000000000007720       0xa1 /home/fx/Upwork/weather-node/output/core/core.a(isrs.S.o)
 .debug_line    0x00000000000077c1      0x24a /home/fx/Upwork/weather-node/output/core/core.a(systick.c.o)
 .debug_line    0x0000000000007a0b      0x5e0 /home/fx/Upwork/weather-node/output/core/core.a(timer.c.o)
 .debug_line    0x0000000000007feb      0x3fb /home/fx/Upwork/weather-node/output/core/core.a(usart.c.o)
 .debug_line    0x00000000000083e6      0x402 /home/fx/Upwork/weather-node/output/core/core.a(usart_f1.c.o)
 .debug_line    0x00000000000087e8      0x2a1 /home/fx/Upwork/weather-node/output/core/core.a(usart_private.c.o)
 .debug_line    0x0000000000008a89      0x4ca /home/fx/Upwork/weather-node/output/core/core.a(usb.c.o)
 .debug_line    0x0000000000008f53      0x8bd /home/fx/Upwork/weather-node/output/core/core.a(usb_cdcacm.c.o)
 .debug_line    0x0000000000009810      0x298 /home/fx/Upwork/weather-node/output/core/core.a(usb_reg_map.c.o)
 .debug_line    0x0000000000009aa8      0x40b /home/fx/Upwork/weather-node/output/core/core.a(usb_core.c.o)
 .debug_line    0x0000000000009eb3      0x120 /home/fx/Upwork/weather-node/output/core/core.a(usb_init.c.o)
 .debug_line    0x0000000000009fd3      0x15a /home/fx/Upwork/weather-node/output/core/core.a(usb_mem.c.o)
 .debug_line    0x000000000000a12d      0x584 /home/fx/Upwork/weather-node/output/core/core.a(usb_regs.c.o)
 .debug_line    0x000000000000a6b1      0x369 /home/fx/Upwork/weather-node/output/core/core.a(util.c.o)
 .debug_line    0x000000000000aa1a       0x9c /home/fx/Upwork/weather-node/output/core/core.a(main.cpp.o)
 .debug_line    0x000000000000aab6      0x19c /home/fx/Upwork/weather-node/output/core/core.a(new.cpp.o)
 .debug_line    0x000000000000ac52      0x391 /home/fx/Upwork/weather-node/output/core/core.a(wirish_digital_f1.cpp.o)
 .debug_line    0x000000000000afe3      0x651 /home/fx/Upwork/weather-node/output/core/core.a(usb_serial.cpp.o)
 .debug_line    0x000000000000b634      0x317 /home/fx/Upwork/weather-node/output/core/core.a(wirish_digital.cpp.o)
 .debug_line    0x000000000000b94b      0x2fb /home/fx/Upwork/weather-node/output/core/core.a(wirish_time.cpp.o)
 .debug_line    0x000000000000bc46       0x85 /home/fx/Upwork/weather-node/output/core/core.a(hooks.c.o)
 .debug_line    0x000000000000bccb      0x2f7 /home/fx/Upwork/weather-node/output/core/core.a(bkp_f1.c.o)
 .debug_line    0x000000000000bfc2      0x32c /home/fx/Upwork/weather-node/output/core/core.a(dma.c.o)
 .debug_line    0x000000000000c2ee      0x28a /home/fx/Upwork/weather-node/output/core/core.a(gpio.c.o)
 .debug_line    0x000000000000c578      0x8b8 /home/fx/Upwork/weather-node/output/core/core.a(i2c.c.o)

.debug_frame    0x0000000000000000     0x3a90
 *(.debug_frame)
 .debug_frame   0x0000000000000000      0x230 /home/fx/Upwork/weather-node/output/sketch/weatherSIM808.ino.cpp.o
 .debug_frame   0x0000000000000230       0x20 /home/fx/Upwork/weather-node/output/libraries/FreeRTOS821/MapleFreeRTOS821.cpp.o
 .debug_frame   0x0000000000000250      0x108 /home/fx/Upwork/weather-node/output/libraries/FreeRTOS821/utility/event_groups.c.o
 .debug_frame   0x0000000000000358       0x5c /home/fx/Upwork/weather-node/output/libraries/FreeRTOS821/utility/heap_1.c.o
 .debug_frame   0x00000000000003b4       0x6c /home/fx/Upwork/weather-node/output/libraries/FreeRTOS821/utility/list.c.o
 .debug_frame   0x0000000000000420      0x110 /home/fx/Upwork/weather-node/output/libraries/FreeRTOS821/utility/port.c.o
 .debug_frame   0x0000000000000530      0x274 /home/fx/Upwork/weather-node/output/libraries/FreeRTOS821/utility/queue.c.o
 .debug_frame   0x00000000000007a4      0x478 /home/fx/Upwork/weather-node/output/libraries/FreeRTOS821/utility/tasks.c.o
 .debug_frame   0x0000000000000c1c      0x128 /home/fx/Upwork/weather-node/output/libraries/DHT_sensor_library/DHT.cpp.o
 .debug_frame   0x0000000000000d44      0x18c /home/fx/Upwork/weather-node/output/libraries/DHT_sensor_library/DHT_U.cpp.o
 .debug_frame   0x0000000000000ed0       0x2c /home/fx/Upwork/weather-node/output/libraries/Adafruit_Unified_Sensor/Adafruit_Sensor.cpp.o
 .debug_frame   0x0000000000000efc       0x38 /home/fx/Upwork/weather-node/output/core/board.cpp.o
 .debug_frame   0x0000000000000f34       0x84 /home/fx/Upwork/weather-node/output/core/wirish/boards.cpp.o
 .debug_frame   0x0000000000000fb8       0x74 /home/fx/Upwork/weather-node/output/core/wirish/boards_setup.cpp.o
 .debug_frame   0x000000000000102c       0x28 /home/fx/Upwork/weather-node/output/core/wirish/start_c.c.o
 .debug_frame   0x0000000000001054      0x130 /home/fx/Upwork/weather-node/output/core/wirish/syscalls.c.o
 .debug_frame   0x0000000000001184      0x10c /home/fx/Upwork/weather-node/output/core/core.a(HardwareSerial.cpp.o)
 .debug_frame   0x0000000000001290      0x378 /home/fx/Upwork/weather-node/output/core/core.a(Print.cpp.o)
 .debug_frame   0x0000000000001608       0x38 /home/fx/Upwork/weather-node/output/core/core.a(cxxabi-compat.cpp.o)
 .debug_frame   0x0000000000001640       0x64 /home/fx/Upwork/weather-node/output/core/core.a(adc.c.o)
 .debug_frame   0x00000000000016a4       0xb4 /home/fx/Upwork/weather-node/output/core/core.a(adc_f1.c.o)
 .debug_frame   0x0000000000001758      0x1c4 /home/fx/Upwork/weather-node/output/core/core.a(dma_f1.c.o)
 .debug_frame   0x000000000000191c      0x120 /home/fx/Upwork/weather-node/output/core/core.a(exti.c.o)
 .debug_frame   0x0000000000001a3c       0x20 /home/fx/Upwork/weather-node/output/core/core.a(exti_f1.c.o)
 .debug_frame   0x0000000000001a5c       0x20 /home/fx/Upwork/weather-node/output/core/core.a(flash.c.o)
 .debug_frame   0x0000000000001a7c       0x8c /home/fx/Upwork/weather-node/output/core/core.a(gpio_f1.c.o)
 .debug_frame   0x0000000000001b08       0x94 /home/fx/Upwork/weather-node/output/core/core.a(i2c_f1.c.o)
 .debug_frame   0x0000000000001b9c       0x5c /home/fx/Upwork/weather-node/output/core/core.a(nvic.c.o)
 .debug_frame   0x0000000000001bf8       0x70 /home/fx/Upwork/weather-node/output/core/core.a(rcc.c.o)
 .debug_frame   0x0000000000001c68       0xa8 /home/fx/Upwork/weather-node/output/core/core.a(rcc_f1.c.o)
 .debug_frame   0x0000000000001d10       0x68 /home/fx/Upwork/weather-node/output/core/core.a(systick.c.o)
 .debug_frame   0x0000000000001d78      0x1d0 /home/fx/Upwork/weather-node/output/core/core.a(timer.c.o)
 .debug_frame   0x0000000000001f48       0xb4 /home/fx/Upwork/weather-node/output/core/core.a(usart.c.o)
 .debug_frame   0x0000000000001ffc       0xac /home/fx/Upwork/weather-node/output/core/core.a(usart_f1.c.o)
 .debug_frame   0x00000000000020a8       0x28 /home/fx/Upwork/weather-node/output/core/core.a(usart_private.c.o)
 .debug_frame   0x00000000000020d0       0x6c /home/fx/Upwork/weather-node/output/core/core.a(usb.c.o)
 .debug_frame   0x000000000000213c      0x2c8 /home/fx/Upwork/weather-node/output/core/core.a(usb_cdcacm.c.o)
 .debug_frame   0x0000000000002404       0x20 /home/fx/Upwork/weather-node/output/core/core.a(usb_reg_map.c.o)
 .debug_frame   0x0000000000002424      0x1ac /home/fx/Upwork/weather-node/output/core/core.a(usb_core.c.o)
 .debug_frame   0x00000000000025d0       0x28 /home/fx/Upwork/weather-node/output/core/core.a(usb_init.c.o)
 .debug_frame   0x00000000000025f8       0x4c /home/fx/Upwork/weather-node/output/core/core.a(usb_mem.c.o)
 .debug_frame   0x0000000000002644      0x3d0 /home/fx/Upwork/weather-node/output/core/core.a(usb_regs.c.o)
 .debug_frame   0x0000000000002a14       0xc8 /home/fx/Upwork/weather-node/output/core/core.a(util.c.o)
 .debug_frame   0x0000000000002adc       0x38 /home/fx/Upwork/weather-node/output/core/core.a(main.cpp.o)
 .debug_frame   0x0000000000002b14       0x50 /home/fx/Upwork/weather-node/output/core/core.a(new.cpp.o)
 .debug_frame   0x0000000000002b64       0x2c /home/fx/Upwork/weather-node/output/core/core.a(wirish_digital_f1.cpp.o)
 .debug_frame   0x0000000000002b90      0x244 /home/fx/Upwork/weather-node/output/core/core.a(usb_serial.cpp.o)
 .debug_frame   0x0000000000002dd4       0x30 /home/fx/Upwork/weather-node/output/core/core.a(wirish_digital.cpp.o)
 .debug_frame   0x0000000000002e04       0x4c /home/fx/Upwork/weather-node/output/core/core.a(wirish_time.cpp.o)
 .debug_frame   0x0000000000002e50       0x20 /home/fx/Upwork/weather-node/output/core/core.a(hooks.c.o)
 .debug_frame   0x0000000000002e70       0x70 /home/fx/Upwork/weather-node/output/core/core.a(bkp_f1.c.o)
 .debug_frame   0x0000000000002ee0       0x38 /home/fx/Upwork/weather-node/output/core/core.a(dma.c.o)
 .debug_frame   0x0000000000002f18       0x28 /home/fx/Upwork/weather-node/output/core/core.a(gpio.c.o)
 .debug_frame   0x0000000000002f40      0x14c /home/fx/Upwork/weather-node/output/core/core.a(i2c.c.o)
 .debug_frame   0x000000000000308c       0x38 /home/fx/.arduino15/packages/arduino/tools/arm-none-eabi-gcc/4.8.3-2014q1/bin/../lib/gcc/arm-none-eabi/4.8.3/../../../../arm-none-eabi/lib/armv7-m/libm.a(lib_a-w_sqrt.o)
 .debug_frame   0x00000000000030c4       0x34 /home/fx/.arduino15/packages/arduino/tools/arm-none-eabi-gcc/4.8.3-2014q1/bin/../lib/gcc/arm-none-eabi/4.8.3/../../../../arm-none-eabi/lib/armv7-m/libm.a(lib_a-e_sqrt.o)
 .debug_frame   0x00000000000030f8       0x28 /home/fx/.arduino15/packages/arduino/tools/arm-none-eabi-gcc/4.8.3-2014q1/bin/../lib/gcc/arm-none-eabi/4.8.3/../../../../arm-none-eabi/lib/armv7-m/libm.a(lib_a-s_fpclassify.o)
 .debug_frame   0x0000000000003120       0x20 /home/fx/.arduino15/packages/arduino/tools/arm-none-eabi-gcc/4.8.3-2014q1/bin/../lib/gcc/arm-none-eabi/4.8.3/../../../../arm-none-eabi/lib/armv7-m/libm.a(lib_a-s_matherr.o)
 .debug_frame   0x0000000000003140       0x2c /home/fx/.arduino15/packages/arduino/tools/arm-none-eabi-gcc/4.8.3-2014q1/bin/../lib/gcc/arm-none-eabi/4.8.3/armv7-m/libgcc.a(_fixdfdi.o)
 .debug_frame   0x000000000000316c       0x2c /home/fx/.arduino15/packages/arduino/tools/arm-none-eabi-gcc/4.8.3-2014q1/bin/../lib/gcc/arm-none-eabi/4.8.3/armv7-m/libgcc.a(_fixunsdfdi.o)
 .debug_frame   0x0000000000003198       0x58 /home/fx/.arduino15/packages/arduino/tools/arm-none-eabi-gcc/4.8.3-2014q1/bin/../lib/gcc/arm-none-eabi/4.8.3/armv7-m/libgcc.a(bpabi.o)
 .debug_frame   0x00000000000031f0       0x34 /home/fx/.arduino15/packages/arduino/tools/arm-none-eabi-gcc/4.8.3-2014q1/bin/../lib/gcc/arm-none-eabi/4.8.3/armv7-m/libgcc.a(_divdi3.o)
 .debug_frame   0x0000000000003224       0x34 /home/fx/.arduino15/packages/arduino/tools/arm-none-eabi-gcc/4.8.3-2014q1/bin/../lib/gcc/arm-none-eabi/4.8.3/armv7-m/libgcc.a(_udivdi3.o)
 .debug_frame   0x0000000000003258       0x20 /home/fx/.arduino15/packages/arduino/tools/arm-none-eabi-gcc/4.8.3-2014q1/bin/../lib/gcc/arm-none-eabi/4.8.3/../../../../arm-none-eabi/lib/armv7-m/libc.a(lib_a-errno.o)
 .debug_frame   0x0000000000003278       0x28 /home/fx/.arduino15/packages/arduino/tools/arm-none-eabi-gcc/4.8.3-2014q1/bin/../lib/gcc/arm-none-eabi/4.8.3/../../../../arm-none-eabi/lib/armv7-m/libc.a(lib_a-exit.o)
 .debug_frame   0x00000000000032a0       0x2c /home/fx/.arduino15/packages/arduino/tools/arm-none-eabi-gcc/4.8.3-2014q1/bin/../lib/gcc/arm-none-eabi/4.8.3/../../../../arm-none-eabi/lib/armv7-m/libc.a(lib_a-init.o)
 .debug_frame   0x00000000000032cc       0x30 /home/fx/.arduino15/packages/arduino/tools/arm-none-eabi-gcc/4.8.3-2014q1/bin/../lib/gcc/arm-none-eabi/4.8.3/../../../../arm-none-eabi/lib/armv7-m/libc.a(lib_a-malloc.o)
 .debug_frame   0x00000000000032fc       0x38 /home/fx/.arduino15/packages/arduino/tools/arm-none-eabi-gcc/4.8.3-2014q1/bin/../lib/gcc/arm-none-eabi/4.8.3/../../../../arm-none-eabi/lib/armv7-m/libc.a(lib_a-mallocr.o)
 .debug_frame   0x0000000000003334       0x2c /home/fx/.arduino15/packages/arduino/tools/arm-none-eabi-gcc/4.8.3-2014q1/bin/../lib/gcc/arm-none-eabi/4.8.3/../../../../arm-none-eabi/lib/armv7-m/libc.a(lib_a-memchr-stub.o)
 .debug_frame   0x0000000000003360       0x2c /home/fx/.arduino15/packages/arduino/tools/arm-none-eabi-gcc/4.8.3-2014q1/bin/../lib/gcc/arm-none-eabi/4.8.3/../../../../arm-none-eabi/lib/armv7-m/libc.a(lib_a-memcmp.o)
 .debug_frame   0x000000000000338c       0x2c /home/fx/.arduino15/packages/arduino/tools/arm-none-eabi-gcc/4.8.3-2014q1/bin/../lib/gcc/arm-none-eabi/4.8.3/../../../../arm-none-eabi/lib/armv7-m/libc.a(lib_a-memset.o)
 .debug_frame   0x00000000000033b8       0x30 /home/fx/.arduino15/packages/arduino/tools/arm-none-eabi-gcc/4.8.3-2014q1/bin/../lib/gcc/arm-none-eabi/4.8.3/../../../../arm-none-eabi/lib/armv7-m/libc.a(lib_a-mlock.o)
 .debug_frame   0x00000000000033e8       0x2c /home/fx/.arduino15/packages/arduino/tools/arm-none-eabi-gcc/4.8.3-2014q1/bin/../lib/gcc/arm-none-eabi/4.8.3/../../../../arm-none-eabi/lib/armv7-m/libc.a(lib_a-sbrkr.o)
 .debug_frame   0x0000000000003414       0x64 /home/fx/.arduino15/packages/arduino/tools/arm-none-eabi-gcc/4.8.3-2014q1/bin/../lib/gcc/arm-none-eabi/4.8.3/../../../../arm-none-eabi/lib/armv7-m/libc.a(lib_a-sprintf.o)
 .debug_frame   0x0000000000003478       0x20 /home/fx/.arduino15/packages/arduino/tools/arm-none-eabi-gcc/4.8.3-2014q1/bin/../lib/gcc/arm-none-eabi/4.8.3/../../../../arm-none-eabi/lib/armv7-m/libc.a(lib_a-strcpy.o)
 .debug_frame   0x0000000000003498       0x20 /home/fx/.arduino15/packages/arduino/tools/arm-none-eabi-gcc/4.8.3-2014q1/bin/../lib/gcc/arm-none-eabi/4.8.3/../../../../arm-none-eabi/lib/armv7-m/libc.a(lib_a-strlen.o)
 .debug_frame   0x00000000000034b8       0x2c /home/fx/.arduino15/packages/arduino/tools/arm-none-eabi-gcc/4.8.3-2014q1/bin/../lib/gcc/arm-none-eabi/4.8.3/../../../../arm-none-eabi/lib/armv7-m/libc.a(lib_a-strncpy.o)
 .debug_frame   0x00000000000034e4       0x3c /home/fx/.arduino15/packages/arduino/tools/arm-none-eabi-gcc/4.8.3-2014q1/bin/../lib/gcc/arm-none-eabi/4.8.3/../../../../arm-none-eabi/lib/armv7-m/libc.a(lib_a-svfprintf.o)
 .debug_frame   0x0000000000003520       0x48 /home/fx/.arduino15/packages/arduino/tools/arm-none-eabi-gcc/4.8.3-2014q1/bin/../lib/gcc/arm-none-eabi/4.8.3/../../../../arm-none-eabi/lib/armv7-m/libc.a(lib_a-__call_atexit.o)
 .debug_frame   0x0000000000003568       0x20 /home/fx/.arduino15/packages/arduino/tools/arm-none-eabi-gcc/4.8.3-2014q1/bin/../lib/gcc/arm-none-eabi/4.8.3/../../../../arm-none-eabi/lib/armv7-m/libc.a(lib_a-atexit.o)
 .debug_frame   0x0000000000003588       0x64 /home/fx/.arduino15/packages/arduino/tools/arm-none-eabi-gcc/4.8.3-2014q1/bin/../lib/gcc/arm-none-eabi/4.8.3/../../../../arm-none-eabi/lib/armv7-m/libc.a(lib_a-dtoa.o)
 .debug_frame   0x00000000000035ec       0x2c /home/fx/.arduino15/packages/arduino/tools/arm-none-eabi-gcc/4.8.3-2014q1/bin/../lib/gcc/arm-none-eabi/4.8.3/../../../../arm-none-eabi/lib/armv7-m/libc.a(lib_a-fini.o)
 .debug_frame   0x0000000000003618       0x50 /home/fx/.arduino15/packages/arduino/tools/arm-none-eabi-gcc/4.8.3-2014q1/bin/../lib/gcc/arm-none-eabi/4.8.3/../../../../arm-none-eabi/lib/armv7-m/libc.a(lib_a-freer.o)
 .debug_frame   0x0000000000003668       0x98 /home/fx/.arduino15/packages/arduino/tools/arm-none-eabi-gcc/4.8.3-2014q1/bin/../lib/gcc/arm-none-eabi/4.8.3/../../../../arm-none-eabi/lib/armv7-m/libc.a(lib_a-locale.o)
 .debug_frame   0x0000000000003700      0x228 /home/fx/.arduino15/packages/arduino/tools/arm-none-eabi-gcc/4.8.3-2014q1/bin/../lib/gcc/arm-none-eabi/4.8.3/../../../../arm-none-eabi/lib/armv7-m/libc.a(lib_a-mprec.o)
 .debug_frame   0x0000000000003928       0x48 /home/fx/.arduino15/packages/arduino/tools/arm-none-eabi-gcc/4.8.3-2014q1/bin/../lib/gcc/arm-none-eabi/4.8.3/../../../../arm-none-eabi/lib/armv7-m/libc.a(lib_a-reent.o)
 .debug_frame   0x0000000000003970       0x64 /home/fx/.arduino15/packages/arduino/tools/arm-none-eabi-gcc/4.8.3-2014q1/bin/../lib/gcc/arm-none-eabi/4.8.3/../../../../arm-none-eabi/lib/armv7-m/libc.a(lib_a-svfiprintf.o)
 .debug_frame   0x00000000000039d4       0x30 /home/fx/.arduino15/packages/arduino/tools/arm-none-eabi-gcc/4.8.3-2014q1/bin/../lib/gcc/arm-none-eabi/4.8.3/../../../../arm-none-eabi/lib/armv7-m/libc.a(lib_a-__atexit.o)
 .debug_frame   0x0000000000003a04       0x28 /home/fx/.arduino15/packages/arduino/tools/arm-none-eabi-gcc/4.8.3-2014q1/bin/../lib/gcc/arm-none-eabi/4.8.3/../../../../arm-none-eabi/lib/armv7-m/libc.a(lib_a-callocr.o)
 .debug_frame   0x0000000000003a2c       0x2c /home/fx/.arduino15/packages/arduino/tools/arm-none-eabi-gcc/4.8.3-2014q1/bin/../lib/gcc/arm-none-eabi/4.8.3/../../../../arm-none-eabi/lib/armv7-m/libc.a(lib_a-memmove.o)
 .debug_frame   0x0000000000003a58       0x38 /home/fx/.arduino15/packages/arduino/tools/arm-none-eabi-gcc/4.8.3-2014q1/bin/../lib/gcc/arm-none-eabi/4.8.3/../../../../arm-none-eabi/lib/armv7-m/libc.a(lib_a-reallocr.o)

.debug_str      0x0000000000000000     0x9ff9
 *(.debug_str)
 .debug_str     0x0000000000000000      0x9fd /home/fx/Upwork/weather-node/output/sketch/weatherSIM808.ino.cpp.o
                                        0xb17 (size before relaxing)
 .debug_str     0x00000000000009fd       0x9d /home/fx/Upwork/weather-node/output/libraries/FreeRTOS821/MapleFreeRTOS821.cpp.o
                                        0x313 (size before relaxing)
 .debug_str     0x0000000000000a9a      0x135 /home/fx/Upwork/weather-node/output/libraries/FreeRTOS821/utility/croutine.c.o
                                        0x1d3 (size before relaxing)
 .debug_str     0x0000000000000bcf      0x498 /home/fx/Upwork/weather-node/output/libraries/FreeRTOS821/utility/event_groups.c.o
                                        0x67b (size before relaxing)
 .debug_str     0x0000000000001067       0xcd /home/fx/Upwork/weather-node/output/libraries/FreeRTOS821/utility/heap_1.c.o
                                        0x2a3 (size before relaxing)
 .debug_str     0x0000000000001134       0xe4 /home/fx/Upwork/weather-node/output/libraries/FreeRTOS821/utility/list.c.o
                                        0x322 (size before relaxing)
 .debug_str     0x0000000000001218      0x16e /home/fx/Upwork/weather-node/output/libraries/FreeRTOS821/utility/port.c.o
                                        0x393 (size before relaxing)
 .debug_str     0x0000000000001386      0x56e /home/fx/Upwork/weather-node/output/libraries/FreeRTOS821/utility/queue.c.o
                                        0x8d0 (size before relaxing)
 .debug_str     0x00000000000018f4      0x92c /home/fx/Upwork/weather-node/output/libraries/FreeRTOS821/utility/tasks.c.o
                                        0xfbc (size before relaxing)
 .debug_str     0x0000000000002220       0x69 /home/fx/Upwork/weather-node/output/libraries/FreeRTOS821/utility/timers.c.o
                                        0x1d1 (size before relaxing)
 .debug_str     0x0000000000002289      0x15f /home/fx/Upwork/weather-node/output/libraries/DHT_sensor_library/DHT.cpp.o
                                        0x630 (size before relaxing)
 .debug_str     0x00000000000023e8      0x704 /home/fx/Upwork/weather-node/output/libraries/DHT_sensor_library/DHT_U.cpp.o
                                        0xbff (size before relaxing)
 .debug_str     0x0000000000002aec       0xd7 /home/fx/Upwork/weather-node/output/libraries/Adafruit_Unified_Sensor/Adafruit_Sensor.cpp.o
                                        0x834 (size before relaxing)
 .debug_str     0x0000000000002bc3      0x9f7 /home/fx/Upwork/weather-node/output/core/board.cpp.o
                                        0xd35 (size before relaxing)
 .debug_str     0x00000000000035ba      0x765 /home/fx/Upwork/weather-node/output/core/wirish/boards.cpp.o
                                       0x1143 (size before relaxing)
 .debug_str     0x0000000000003d1f      0x518 /home/fx/Upwork/weather-node/output/core/wirish/boards_setup.cpp.o
                                       0x12b4 (size before relaxing)
 .debug_str     0x0000000000004237       0xe6 /home/fx/Upwork/weather-node/output/core/wirish/start_c.c.o
                                        0x1e9 (size before relaxing)
 .debug_str     0x000000000000431d      0x1cc /home/fx/Upwork/weather-node/output/core/wirish/syscalls.c.o
                                        0x37a (size before relaxing)
 .debug_str     0x00000000000044e9     0x100f /home/fx/Upwork/weather-node/output/core/core.a(HardwareSerial.cpp.o)
                                       0x1c12 (size before relaxing)
 .debug_str     0x00000000000054f8      0x327 /home/fx/Upwork/weather-node/output/core/core.a(Print.cpp.o)
                                        0xfe0 (size before relaxing)
 .debug_str     0x000000000000581f      0x167 /home/fx/Upwork/weather-node/output/core/core.a(cxxabi-compat.cpp.o)
                                        0x39f (size before relaxing)
 .debug_str     0x0000000000005986      0x21e /home/fx/Upwork/weather-node/output/core/core.a(adc.c.o)
                                        0xac2 (size before relaxing)
 .debug_str     0x0000000000005ba4      0x164 /home/fx/Upwork/weather-node/output/core/core.a(adc_f1.c.o)
                                        0xddd (size before relaxing)
 .debug_str     0x0000000000005d08      0xaf0 /home/fx/Upwork/weather-node/output/core/core.a(dma_f1.c.o)
                                       0x13ba (size before relaxing)
 .debug_str     0x00000000000067f8      0x226 /home/fx/Upwork/weather-node/output/core/core.a(exti.c.o)
                                        0x92c (size before relaxing)
 .debug_str     0x0000000000006a1e       0x9e /home/fx/Upwork/weather-node/output/core/core.a(exti_f1.c.o)
                                        0x2e7 (size before relaxing)
 .debug_str     0x0000000000006abc       0x6b /home/fx/Upwork/weather-node/output/core/core.a(flash.c.o)
                                        0x206 (size before relaxing)
 .debug_str     0x0000000000006b27      0x2b6 /home/fx/Upwork/weather-node/output/core/core.a(gpio_f1.c.o)
                                        0x7df (size before relaxing)
 .debug_str     0x0000000000006ddd      0x2bd /home/fx/Upwork/weather-node/output/core/core.a(i2c_f1.c.o)
                                        0xdb8 (size before relaxing)
 .debug_str     0x000000000000709a       0xda /home/fx/Upwork/weather-node/output/core/core.a(nvic.c.o)
                                        0x70f (size before relaxing)
 .debug_str     0x0000000000007174       0xfe /home/fx/Upwork/weather-node/output/core/core.a(rcc.c.o)
                                        0x55b (size before relaxing)
 .debug_str     0x0000000000007272       0xf2 /home/fx/Upwork/weather-node/output/core/core.a(rcc_f1.c.o)
                                        0x815 (size before relaxing)
 .debug_str     0x0000000000007364       0xbf /home/fx/Upwork/weather-node/output/core/core.a(systick.c.o)
                                        0x26c (size before relaxing)
 .debug_str     0x0000000000007423      0x35d /home/fx/Upwork/weather-node/output/core/core.a(timer.c.o)
                                        0xec0 (size before relaxing)
 .debug_str     0x0000000000007780       0xdb /home/fx/Upwork/weather-node/output/core/core.a(usart.c.o)
                                        0x9d2 (size before relaxing)
 .debug_str     0x000000000000785b      0x13a /home/fx/Upwork/weather-node/output/core/core.a(usart_f1.c.o)
                                        0xad1 (size before relaxing)
 .debug_str     0x0000000000007995       0x67 /home/fx/Upwork/weather-node/output/core/core.a(usart_private.c.o)
                                        0x891 (size before relaxing)
 .debug_str     0x00000000000079fc      0x609 /home/fx/Upwork/weather-node/output/core/core.a(usb.c.o)
                                        0xa74 (size before relaxing)
 .debug_str     0x0000000000008005      0x986 /home/fx/Upwork/weather-node/output/core/core.a(usb_cdcacm.c.o)
                                       0x183a (size before relaxing)
 .debug_str     0x000000000000898b       0x94 /home/fx/Upwork/weather-node/output/core/core.a(usb_reg_map.c.o)
                                        0x28f (size before relaxing)
 .debug_str     0x0000000000008a1f      0x494 /home/fx/Upwork/weather-node/output/core/core.a(usb_core.c.o)
                                        0xac7 (size before relaxing)
 .debug_str     0x0000000000008eb3       0x99 /home/fx/Upwork/weather-node/output/core/core.a(usb_init.c.o)
                                        0x52b (size before relaxing)
 .debug_str     0x0000000000008f4c       0xa5 /home/fx/Upwork/weather-node/output/core/core.a(usb_mem.c.o)
                                        0x1e9 (size before relaxing)
 .debug_str     0x0000000000008ff1      0x3d7 /home/fx/Upwork/weather-node/output/core/core.a(usb_regs.c.o)
                                        0x569 (size before relaxing)
 .debug_str     0x00000000000093c8       0xdf /home/fx/Upwork/weather-node/output/core/core.a(util.c.o)
                                        0xa3e (size before relaxing)
 .debug_str     0x00000000000094a7       0x6b /home/fx/Upwork/weather-node/output/core/core.a(main.cpp.o)
                                        0x1af (size before relaxing)
 .debug_str     0x0000000000009512       0xa5 /home/fx/Upwork/weather-node/output/core/core.a(new.cpp.o)
                                        0x28b (size before relaxing)
 .debug_str     0x00000000000095b7       0x77 /home/fx/Upwork/weather-node/output/core/core.a(wirish_digital_f1.cpp.o)
                                        0xc69 (size before relaxing)
 .debug_str     0x000000000000962e      0x416 /home/fx/Upwork/weather-node/output/core/core.a(usb_serial.cpp.o)
                                       0x1d7b (size before relaxing)
 .debug_str     0x0000000000009a44       0x6f /home/fx/Upwork/weather-node/output/core/core.a(wirish_digital.cpp.o)
                                        0xacf (size before relaxing)
 .debug_str     0x0000000000009ab3       0x90 /home/fx/Upwork/weather-node/output/core/core.a(wirish_time.cpp.o)
                                        0x35e (size before relaxing)
 .debug_str     0x0000000000009b43       0x5e /home/fx/Upwork/weather-node/output/core/core.a(hooks.c.o)
                                        0x128 (size before relaxing)
 .debug_str     0x0000000000009ba1       0xa2 /home/fx/Upwork/weather-node/output/core/core.a(bkp_f1.c.o)
                                        0x486 (size before relaxing)
 .debug_str     0x0000000000009c43      0x135 /home/fx/Upwork/weather-node/output/core/core.a(dma.c.o)
                                        0xa45 (size before relaxing)
 .debug_str     0x0000000000009d78       0x5e /home/fx/Upwork/weather-node/output/core/core.a(gpio.c.o)
                                        0x44a (size before relaxing)
 .debug_str     0x0000000000009dd6      0x223 /home/fx/Upwork/weather-node/output/core/core.a(i2c.c.o)
                                        0xfc1 (size before relaxing)

.debug_loc      0x0000000000000000     0xca97
 *(.debug_loc)
 .debug_loc     0x0000000000000000      0x2c4 /home/fx/Upwork/weather-node/output/sketch/weatherSIM808.ino.cpp.o
 .debug_loc     0x00000000000002c4      0x6f1 /home/fx/Upwork/weather-node/output/libraries/FreeRTOS821/utility/event_groups.c.o
 .debug_loc     0x00000000000009b5       0xa2 /home/fx/Upwork/weather-node/output/libraries/FreeRTOS821/utility/heap_1.c.o
 .debug_loc     0x0000000000000a57       0x75 /home/fx/Upwork/weather-node/output/libraries/FreeRTOS821/utility/list.c.o
 .debug_loc     0x0000000000000acc       0x66 /home/fx/Upwork/weather-node/output/libraries/FreeRTOS821/utility/port.c.o
 .debug_loc     0x0000000000000b32      0xcef /home/fx/Upwork/weather-node/output/libraries/FreeRTOS821/utility/queue.c.o
 .debug_loc     0x0000000000001821     0x16e7 /home/fx/Upwork/weather-node/output/libraries/FreeRTOS821/utility/tasks.c.o
 .debug_loc     0x0000000000002f08      0x6d4 /home/fx/Upwork/weather-node/output/libraries/DHT_sensor_library/DHT.cpp.o
 .debug_loc     0x00000000000035dc      0x40c /home/fx/Upwork/weather-node/output/libraries/DHT_sensor_library/DHT_U.cpp.o
 .debug_loc     0x00000000000039e8       0x21 /home/fx/Upwork/weather-node/output/libraries/Adafruit_Unified_Sensor/Adafruit_Sensor.cpp.o
 .debug_loc     0x0000000000003a09      0x246 /home/fx/Upwork/weather-node/output/core/wirish/boards.cpp.o
 .debug_loc     0x0000000000003c4f       0x13 /home/fx/Upwork/weather-node/output/core/wirish/boards_setup.cpp.o
 .debug_loc     0x0000000000003c62       0x87 /home/fx/Upwork/weather-node/output/core/wirish/start_c.c.o
 .debug_loc     0x0000000000003ce9      0x38a /home/fx/Upwork/weather-node/output/core/wirish/syscalls.c.o
 .debug_loc     0x0000000000004073      0x39a /home/fx/Upwork/weather-node/output/core/core.a(HardwareSerial.cpp.o)
 .debug_loc     0x000000000000440d     0x10a7 /home/fx/Upwork/weather-node/output/core/core.a(Print.cpp.o)
 .debug_loc     0x00000000000054b4       0x81 /home/fx/Upwork/weather-node/output/core/core.a(cxxabi-compat.cpp.o)
 .debug_loc     0x0000000000005535      0x145 /home/fx/Upwork/weather-node/output/core/core.a(adc.c.o)
 .debug_loc     0x000000000000567a      0x2c7 /home/fx/Upwork/weather-node/output/core/core.a(adc_f1.c.o)
 .debug_loc     0x0000000000005941      0xdcb /home/fx/Upwork/weather-node/output/core/core.a(dma_f1.c.o)
 .debug_loc     0x000000000000670c      0x5c0 /home/fx/Upwork/weather-node/output/core/core.a(exti.c.o)
 .debug_loc     0x0000000000006ccc       0x42 /home/fx/Upwork/weather-node/output/core/core.a(exti_f1.c.o)
 .debug_loc     0x0000000000006d0e       0x3f /home/fx/Upwork/weather-node/output/core/core.a(flash.c.o)
 .debug_loc     0x0000000000006d4d      0x2ba /home/fx/Upwork/weather-node/output/core/core.a(gpio_f1.c.o)
 .debug_loc     0x0000000000007007      0x1b9 /home/fx/Upwork/weather-node/output/core/core.a(i2c_f1.c.o)
 .debug_loc     0x00000000000071c0      0x121 /home/fx/Upwork/weather-node/output/core/core.a(nvic.c.o)
 .debug_loc     0x00000000000072e1      0x131 /home/fx/Upwork/weather-node/output/core/core.a(rcc.c.o)
 .debug_loc     0x0000000000007412      0x34b /home/fx/Upwork/weather-node/output/core/core.a(rcc_f1.c.o)
 .debug_loc     0x000000000000775d      0xbc7 /home/fx/Upwork/weather-node/output/core/core.a(timer.c.o)
 .debug_loc     0x0000000000008324      0x3af /home/fx/Upwork/weather-node/output/core/core.a(usart.c.o)
 .debug_loc     0x00000000000086d3      0x2e8 /home/fx/Upwork/weather-node/output/core/core.a(usart_f1.c.o)
 .debug_loc     0x00000000000089bb       0x3f /home/fx/Upwork/weather-node/output/core/core.a(usart_private.c.o)
 .debug_loc     0x00000000000089fa      0x4fc /home/fx/Upwork/weather-node/output/core/core.a(usb.c.o)
 .debug_loc     0x0000000000008ef6      0xaab /home/fx/Upwork/weather-node/output/core/core.a(usb_cdcacm.c.o)
 .debug_loc     0x00000000000099a1      0x119 /home/fx/Upwork/weather-node/output/core/core.a(usb_reg_map.c.o)
 .debug_loc     0x0000000000009aba      0x7a1 /home/fx/Upwork/weather-node/output/core/core.a(usb_core.c.o)
 .debug_loc     0x000000000000a25b      0x260 /home/fx/Upwork/weather-node/output/core/core.a(usb_mem.c.o)
 .debug_loc     0x000000000000a4bb      0xbab /home/fx/Upwork/weather-node/output/core/core.a(usb_regs.c.o)
 .debug_loc     0x000000000000b066      0x27f /home/fx/Upwork/weather-node/output/core/core.a(util.c.o)
 .debug_loc     0x000000000000b2e5       0x84 /home/fx/Upwork/weather-node/output/core/core.a(new.cpp.o)
 .debug_loc     0x000000000000b369      0x169 /home/fx/Upwork/weather-node/output/core/core.a(wirish_digital_f1.cpp.o)
 .debug_loc     0x000000000000b4d2      0x743 /home/fx/Upwork/weather-node/output/core/core.a(usb_serial.cpp.o)
 .debug_loc     0x000000000000bc15       0x7c /home/fx/Upwork/weather-node/output/core/core.a(wirish_digital.cpp.o)
 .debug_loc     0x000000000000bc91       0x82 /home/fx/Upwork/weather-node/output/core/core.a(wirish_time.cpp.o)
 .debug_loc     0x000000000000bd13       0xc8 /home/fx/Upwork/weather-node/output/core/core.a(bkp_f1.c.o)
 .debug_loc     0x000000000000bddb       0x42 /home/fx/Upwork/weather-node/output/core/core.a(dma.c.o)
 .debug_loc     0x000000000000be1d       0x2c /home/fx/Upwork/weather-node/output/core/core.a(gpio.c.o)
 .debug_loc     0x000000000000be49      0xc4e /home/fx/Upwork/weather-node/output/core/core.a(i2c.c.o)

.debug_macinfo
 *(.debug_macinfo)

.debug_weaknames
 *(.debug_weaknames)

.debug_funcnames
 *(.debug_funcnames)

.debug_typenames
 *(.debug_typenames)

.debug_varnames
 *(.debug_varnames)

.note.gnu.arm.ident
 *(.note.gnu.arm.ident)

.ARM.attributes
                0x0000000000000000       0x29
 *(.ARM.attributes)
 .ARM.attributes
                0x0000000000000000       0x1d /home/fx/.arduino15/packages/arduino/tools/arm-none-eabi-gcc/4.8.3-2014q1/bin/../lib/gcc/arm-none-eabi/4.8.3/armv7-m/crti.o
 .ARM.attributes
                0x000000000000001d       0x2d /home/fx/.arduino15/packages/arduino/tools/arm-none-eabi-gcc/4.8.3-2014q1/bin/../lib/gcc/arm-none-eabi/4.8.3/armv7-m/crtbegin.o
 .ARM.attributes
                0x000000000000004a       0x1b /home/fx/.arduino15/packages/arduino/tools/arm-none-eabi-gcc/4.8.3-2014q1/bin/../lib/gcc/arm-none-eabi/4.8.3/../../../../arm-none-eabi/lib/armv7-m/crt0.o
 .ARM.attributes
                0x0000000000000065       0x33 /home/fx/Upwork/weather-node/output/sketch/weatherSIM808.ino.cpp.o
 .ARM.attributes
                0x0000000000000098       0x33 /home/fx/Upwork/weather-node/output/libraries/FreeRTOS821/MapleFreeRTOS821.cpp.o
 .ARM.attributes
                0x00000000000000cb       0x33 /home/fx/Upwork/weather-node/output/libraries/FreeRTOS821/utility/croutine.c.o
 .ARM.attributes
                0x00000000000000fe       0x33 /home/fx/Upwork/weather-node/output/libraries/FreeRTOS821/utility/event_groups.c.o
 .ARM.attributes
                0x0000000000000131       0x33 /home/fx/Upwork/weather-node/output/libraries/FreeRTOS821/utility/heap_1.c.o
 .ARM.attributes
                0x0000000000000164       0x33 /home/fx/Upwork/weather-node/output/libraries/FreeRTOS821/utility/list.c.o
 .ARM.attributes
                0x0000000000000197       0x33 /home/fx/Upwork/weather-node/output/libraries/FreeRTOS821/utility/port.c.o
 .ARM.attributes
                0x00000000000001ca       0x33 /home/fx/Upwork/weather-node/output/libraries/FreeRTOS821/utility/queue.c.o
 .ARM.attributes
                0x00000000000001fd       0x33 /home/fx/Upwork/weather-node/output/libraries/FreeRTOS821/utility/tasks.c.o
 .ARM.attributes
                0x0000000000000230       0x33 /home/fx/Upwork/weather-node/output/libraries/FreeRTOS821/utility/timers.c.o
 .ARM.attributes
                0x0000000000000263       0x33 /home/fx/Upwork/weather-node/output/libraries/DHT_sensor_library/DHT.cpp.o
 .ARM.attributes
                0x0000000000000296       0x33 /home/fx/Upwork/weather-node/output/libraries/DHT_sensor_library/DHT_U.cpp.o
 .ARM.attributes
                0x00000000000002c9       0x33 /home/fx/Upwork/weather-node/output/libraries/Adafruit_Unified_Sensor/Adafruit_Sensor.cpp.o
 .ARM.attributes
                0x00000000000002fc       0x33 /home/fx/Upwork/weather-node/output/core/board.cpp.o
 .ARM.attributes
                0x000000000000032f       0x33 /home/fx/Upwork/weather-node/output/core/wirish/boards.cpp.o
 .ARM.attributes
                0x0000000000000362       0x33 /home/fx/Upwork/weather-node/output/core/wirish/boards_setup.cpp.o
 .ARM.attributes
                0x0000000000000395       0x1b /home/fx/Upwork/weather-node/output/core/wirish/start.S.o
 .ARM.attributes
                0x00000000000003b0       0x33 /home/fx/Upwork/weather-node/output/core/wirish/start_c.c.o
 .ARM.attributes
                0x00000000000003e3       0x33 /home/fx/Upwork/weather-node/output/core/wirish/syscalls.c.o
 .ARM.attributes
                0x0000000000000416       0x33 /home/fx/Upwork/weather-node/output/core/core.a(HardwareSerial.cpp.o)
 .ARM.attributes
                0x0000000000000449       0x33 /home/fx/Upwork/weather-node/output/core/core.a(Print.cpp.o)
 .ARM.attributes
                0x000000000000047c       0x33 /home/fx/Upwork/weather-node/output/core/core.a(cxxabi-compat.cpp.o)
 .ARM.attributes
                0x00000000000004af       0x33 /home/fx/Upwork/weather-node/output/core/core.a(adc.c.o)
 .ARM.attributes
                0x00000000000004e2       0x33 /home/fx/Upwork/weather-node/output/core/core.a(adc_f1.c.o)
 .ARM.attributes
                0x0000000000000515       0x33 /home/fx/Upwork/weather-node/output/core/core.a(dma_f1.c.o)
 .ARM.attributes
                0x0000000000000548       0x1b /home/fx/Upwork/weather-node/output/core/core.a(exc.S.o)
 .ARM.attributes
                0x0000000000000563       0x33 /home/fx/Upwork/weather-node/output/core/core.a(exti.c.o)
 .ARM.attributes
                0x0000000000000596       0x33 /home/fx/Upwork/weather-node/output/core/core.a(exti_f1.c.o)
 .ARM.attributes
                0x00000000000005c9       0x33 /home/fx/Upwork/weather-node/output/core/core.a(flash.c.o)
 .ARM.attributes
                0x00000000000005fc       0x33 /home/fx/Upwork/weather-node/output/core/core.a(gpio_f1.c.o)
 .ARM.attributes
                0x000000000000062f       0x33 /home/fx/Upwork/weather-node/output/core/core.a(i2c_f1.c.o)
 .ARM.attributes
                0x0000000000000662       0x33 /home/fx/Upwork/weather-node/output/core/core.a(nvic.c.o)
 .ARM.attributes
                0x0000000000000695       0x33 /home/fx/Upwork/weather-node/output/core/core.a(rcc.c.o)
 .ARM.attributes
                0x00000000000006c8       0x33 /home/fx/Upwork/weather-node/output/core/core.a(rcc_f1.c.o)
 .ARM.attributes
                0x00000000000006fb       0x1b /home/fx/Upwork/weather-node/output/core/core.a(isrs.S.o)
 .ARM.attributes
                0x0000000000000716       0x1b /home/fx/Upwork/weather-node/output/core/core.a(vector_table.S.o)
 .ARM.attributes
                0x0000000000000731       0x33 /home/fx/Upwork/weather-node/output/core/core.a(systick.c.o)
 .ARM.attributes
                0x0000000000000764       0x33 /home/fx/Upwork/weather-node/output/core/core.a(timer.c.o)
 .ARM.attributes
                0x0000000000000797       0x33 /home/fx/Upwork/weather-node/output/core/core.a(usart.c.o)
 .ARM.attributes
                0x00000000000007ca       0x33 /home/fx/Upwork/weather-node/output/core/core.a(usart_f1.c.o)
 .ARM.attributes
                0x00000000000007fd       0x33 /home/fx/Upwork/weather-node/output/core/core.a(usart_private.c.o)
 .ARM.attributes
                0x0000000000000830       0x33 /home/fx/Upwork/weather-node/output/core/core.a(usb.c.o)
 .ARM.attributes
                0x0000000000000863       0x33 /home/fx/Upwork/weather-node/output/core/core.a(usb_cdcacm.c.o)
 .ARM.attributes
                0x0000000000000896       0x33 /home/fx/Upwork/weather-node/output/core/core.a(usb_reg_map.c.o)
 .ARM.attributes
                0x00000000000008c9       0x33 /home/fx/Upwork/weather-node/output/core/core.a(usb_core.c.o)
 .ARM.attributes
                0x00000000000008fc       0x33 /home/fx/Upwork/weather-node/output/core/core.a(usb_init.c.o)
 .ARM.attributes
                0x000000000000092f       0x33 /home/fx/Upwork/weather-node/output/core/core.a(usb_mem.c.o)
 .ARM.attributes
                0x0000000000000962       0x33 /home/fx/Upwork/weather-node/output/core/core.a(usb_regs.c.o)
 .ARM.attributes
                0x0000000000000995       0x33 /home/fx/Upwork/weather-node/output/core/core.a(util.c.o)
 .ARM.attributes
                0x00000000000009c8       0x33 /home/fx/Upwork/weather-node/output/core/core.a(main.cpp.o)
 .ARM.attributes
                0x00000000000009fb       0x33 /home/fx/Upwork/weather-node/output/core/core.a(new.cpp.o)
 .ARM.attributes
                0x0000000000000a2e       0x33 /home/fx/Upwork/weather-node/output/core/core.a(wirish_digital_f1.cpp.o)
 .ARM.attributes
                0x0000000000000a61       0x33 /home/fx/Upwork/weather-node/output/core/core.a(usb_serial.cpp.o)
 .ARM.attributes
                0x0000000000000a94       0x33 /home/fx/Upwork/weather-node/output/core/core.a(wirish_digital.cpp.o)
 .ARM.attributes
                0x0000000000000ac7       0x33 /home/fx/Upwork/weather-node/output/core/core.a(wirish_time.cpp.o)
 .ARM.attributes
                0x0000000000000afa       0x33 /home/fx/Upwork/weather-node/output/core/core.a(hooks.c.o)
 .ARM.attributes
                0x0000000000000b2d       0x33 /home/fx/Upwork/weather-node/output/core/core.a(bkp_f1.c.o)
 .ARM.attributes
                0x0000000000000b60       0x33 /home/fx/Upwork/weather-node/output/core/core.a(dma.c.o)
 .ARM.attributes
                0x0000000000000b93       0x33 /home/fx/Upwork/weather-node/output/core/core.a(gpio.c.o)
 .ARM.attributes
                0x0000000000000bc6       0x33 /home/fx/Upwork/weather-node/output/core/core.a(i2c.c.o)
 .ARM.attributes
                0x0000000000000bf9       0x2d /home/fx/.arduino15/packages/arduino/tools/arm-none-eabi-gcc/4.8.3-2014q1/bin/../lib/gcc/arm-none-eabi/4.8.3/../../../../arm-none-eabi/lib/armv7-m/libm.a(lib_a-w_sqrt.o)
 .ARM.attributes
                0x0000000000000c26       0x2d /home/fx/.arduino15/packages/arduino/tools/arm-none-eabi-gcc/4.8.3-2014q1/bin/../lib/gcc/arm-none-eabi/4.8.3/../../../../arm-none-eabi/lib/armv7-m/libm.a(lib_a-e_sqrt.o)
 .ARM.attributes
                0x0000000000000c53       0x2d /home/fx/.arduino15/packages/arduino/tools/arm-none-eabi-gcc/4.8.3-2014q1/bin/../lib/gcc/arm-none-eabi/4.8.3/../../../../arm-none-eabi/lib/armv7-m/libm.a(lib_a-s_fpclassify.o)
 .ARM.attributes
                0x0000000000000c80       0x2d /home/fx/.arduino15/packages/arduino/tools/arm-none-eabi-gcc/4.8.3-2014q1/bin/../lib/gcc/arm-none-eabi/4.8.3/../../../../arm-none-eabi/lib/armv7-m/libm.a(lib_a-s_lib_ver.o)
 .ARM.attributes
                0x0000000000000cad       0x2d /home/fx/.arduino15/packages/arduino/tools/arm-none-eabi-gcc/4.8.3-2014q1/bin/../lib/gcc/arm-none-eabi/4.8.3/../../../../arm-none-eabi/lib/armv7-m/libm.a(lib_a-s_matherr.o)
 .ARM.attributes
                0x0000000000000cda       0x1d /home/fx/.arduino15/packages/arduino/tools/arm-none-eabi-gcc/4.8.3-2014q1/bin/../lib/gcc/arm-none-eabi/4.8.3/armv7-m/libgcc.a(_arm_addsubdf3.o)
 .ARM.attributes
                0x0000000000000cf7       0x1d /home/fx/.arduino15/packages/arduino/tools/arm-none-eabi-gcc/4.8.3-2014q1/bin/../lib/gcc/arm-none-eabi/4.8.3/armv7-m/libgcc.a(_arm_muldivdf3.o)
 .ARM.attributes
                0x0000000000000d14       0x1d /home/fx/.arduino15/packages/arduino/tools/arm-none-eabi-gcc/4.8.3-2014q1/bin/../lib/gcc/arm-none-eabi/4.8.3/armv7-m/libgcc.a(_arm_cmpdf2.o)
 .ARM.attributes
                0x0000000000000d31       0x1d /home/fx/.arduino15/packages/arduino/tools/arm-none-eabi-gcc/4.8.3-2014q1/bin/../lib/gcc/arm-none-eabi/4.8.3/armv7-m/libgcc.a(_arm_fixdfsi.o)
 .ARM.attributes
                0x0000000000000d4e       0x1d /home/fx/.arduino15/packages/arduino/tools/arm-none-eabi-gcc/4.8.3-2014q1/bin/../lib/gcc/arm-none-eabi/4.8.3/armv7-m/libgcc.a(_arm_truncdfsf2.o)
 .ARM.attributes
                0x0000000000000d6b       0x1d /home/fx/.arduino15/packages/arduino/tools/arm-none-eabi-gcc/4.8.3-2014q1/bin/../lib/gcc/arm-none-eabi/4.8.3/armv7-m/libgcc.a(_arm_addsubsf3.o)
 .ARM.attributes
                0x0000000000000d88       0x1d /home/fx/.arduino15/packages/arduino/tools/arm-none-eabi-gcc/4.8.3-2014q1/bin/../lib/gcc/arm-none-eabi/4.8.3/armv7-m/libgcc.a(_arm_cmpsf2.o)
 .ARM.attributes
                0x0000000000000da5       0x1d /home/fx/.arduino15/packages/arduino/tools/arm-none-eabi-gcc/4.8.3-2014q1/bin/../lib/gcc/arm-none-eabi/4.8.3/armv7-m/libgcc.a(_aeabi_uldivmod.o)
 .ARM.attributes
                0x0000000000000dc2       0x2d /home/fx/.arduino15/packages/arduino/tools/arm-none-eabi-gcc/4.8.3-2014q1/bin/../lib/gcc/arm-none-eabi/4.8.3/armv7-m/libgcc.a(_fixdfdi.o)
 .ARM.attributes
                0x0000000000000def       0x2d /home/fx/.arduino15/packages/arduino/tools/arm-none-eabi-gcc/4.8.3-2014q1/bin/../lib/gcc/arm-none-eabi/4.8.3/armv7-m/libgcc.a(_fixunsdfdi.o)
 .ARM.attributes
                0x0000000000000e1c       0x2d /home/fx/.arduino15/packages/arduino/tools/arm-none-eabi-gcc/4.8.3-2014q1/bin/../lib/gcc/arm-none-eabi/4.8.3/armv7-m/libgcc.a(bpabi.o)
 .ARM.attributes
                0x0000000000000e49       0x1d /home/fx/.arduino15/packages/arduino/tools/arm-none-eabi-gcc/4.8.3-2014q1/bin/../lib/gcc/arm-none-eabi/4.8.3/armv7-m/libgcc.a(_dvmd_tls.o)
 .ARM.attributes
                0x0000000000000e66       0x1d /home/fx/.arduino15/packages/arduino/tools/arm-none-eabi-gcc/4.8.3-2014q1/bin/../lib/gcc/arm-none-eabi/4.8.3/armv7-m/libgcc.a(_arm_fixunsdfsi.o)
 .ARM.attributes
                0x0000000000000e83       0x2d /home/fx/.arduino15/packages/arduino/tools/arm-none-eabi-gcc/4.8.3-2014q1/bin/../lib/gcc/arm-none-eabi/4.8.3/armv7-m/libgcc.a(_divdi3.o)
 .ARM.attributes
                0x0000000000000eb0       0x2d /home/fx/.arduino15/packages/arduino/tools/arm-none-eabi-gcc/4.8.3-2014q1/bin/../lib/gcc/arm-none-eabi/4.8.3/armv7-m/libgcc.a(_udivdi3.o)
 .ARM.attributes
                0x0000000000000edd       0x2d /home/fx/.arduino15/packages/arduino/tools/arm-none-eabi-gcc/4.8.3-2014q1/bin/../lib/gcc/arm-none-eabi/4.8.3/../../../../arm-none-eabi/lib/armv7-m/libc.a(lib_a-errno.o)
 .ARM.attributes
                0x0000000000000f0a       0x2d /home/fx/.arduino15/packages/arduino/tools/arm-none-eabi-gcc/4.8.3-2014q1/bin/../lib/gcc/arm-none-eabi/4.8.3/../../../../arm-none-eabi/lib/armv7-m/libc.a(lib_a-exit.o)
 .ARM.attributes
                0x0000000000000f37       0x2d /home/fx/.arduino15/packages/arduino/tools/arm-none-eabi-gcc/4.8.3-2014q1/bin/../lib/gcc/arm-none-eabi/4.8.3/../../../../arm-none-eabi/lib/armv7-m/libc.a(lib_a-impure.o)
 .ARM.attributes
                0x0000000000000f64       0x2d /home/fx/.arduino15/packages/arduino/tools/arm-none-eabi-gcc/4.8.3-2014q1/bin/../lib/gcc/arm-none-eabi/4.8.3/../../../../arm-none-eabi/lib/armv7-m/libc.a(lib_a-init.o)
 .ARM.attributes
                0x0000000000000f91       0x2d /home/fx/.arduino15/packages/arduino/tools/arm-none-eabi-gcc/4.8.3-2014q1/bin/../lib/gcc/arm-none-eabi/4.8.3/../../../../arm-none-eabi/lib/armv7-m/libc.a(lib_a-malloc.o)
 .ARM.attributes
                0x0000000000000fbe       0x2d /home/fx/.arduino15/packages/arduino/tools/arm-none-eabi-gcc/4.8.3-2014q1/bin/../lib/gcc/arm-none-eabi/4.8.3/../../../../arm-none-eabi/lib/armv7-m/libc.a(lib_a-mallocr.o)
 .ARM.attributes
                0x0000000000000feb       0x2d /home/fx/.arduino15/packages/arduino/tools/arm-none-eabi-gcc/4.8.3-2014q1/bin/../lib/gcc/arm-none-eabi/4.8.3/../../../../arm-none-eabi/lib/armv7-m/libc.a(lib_a-memchr-stub.o)
 .ARM.attributes
                0x0000000000001018       0x2d /home/fx/.arduino15/packages/arduino/tools/arm-none-eabi-gcc/4.8.3-2014q1/bin/../lib/gcc/arm-none-eabi/4.8.3/../../../../arm-none-eabi/lib/armv7-m/libc.a(lib_a-memcmp.o)
 .ARM.attributes
                0x0000000000001045       0x1b /home/fx/.arduino15/packages/arduino/tools/arm-none-eabi-gcc/4.8.3-2014q1/bin/../lib/gcc/arm-none-eabi/4.8.3/../../../../arm-none-eabi/lib/armv7-m/libc.a(lib_a-memcpy.o)
 .ARM.attributes
                0x0000000000001060       0x2d /home/fx/.arduino15/packages/arduino/tools/arm-none-eabi-gcc/4.8.3-2014q1/bin/../lib/gcc/arm-none-eabi/4.8.3/../../../../arm-none-eabi/lib/armv7-m/libc.a(lib_a-memset.o)
 .ARM.attributes
                0x000000000000108d       0x2d /home/fx/.arduino15/packages/arduino/tools/arm-none-eabi-gcc/4.8.3-2014q1/bin/../lib/gcc/arm-none-eabi/4.8.3/../../../../arm-none-eabi/lib/armv7-m/libc.a(lib_a-mlock.o)
 .ARM.attributes
                0x00000000000010ba       0x2d /home/fx/.arduino15/packages/arduino/tools/arm-none-eabi-gcc/4.8.3-2014q1/bin/../lib/gcc/arm-none-eabi/4.8.3/../../../../arm-none-eabi/lib/armv7-m/libc.a(lib_a-sbrkr.o)
 .ARM.attributes
                0x00000000000010e7       0x2d /home/fx/.arduino15/packages/arduino/tools/arm-none-eabi-gcc/4.8.3-2014q1/bin/../lib/gcc/arm-none-eabi/4.8.3/../../../../arm-none-eabi/lib/armv7-m/libc.a(lib_a-sprintf.o)
 .ARM.attributes
                0x0000000000001114       0x2d /home/fx/.arduino15/packages/arduino/tools/arm-none-eabi-gcc/4.8.3-2014q1/bin/../lib/gcc/arm-none-eabi/4.8.3/../../../../arm-none-eabi/lib/armv7-m/libc.a(lib_a-strcpy.o)
 .ARM.attributes
                0x0000000000001141       0x2d /home/fx/.arduino15/packages/arduino/tools/arm-none-eabi-gcc/4.8.3-2014q1/bin/../lib/gcc/arm-none-eabi/4.8.3/../../../../arm-none-eabi/lib/armv7-m/libc.a(lib_a-strlen.o)
 .ARM.attributes
                0x000000000000116e       0x2d /home/fx/.arduino15/packages/arduino/tools/arm-none-eabi-gcc/4.8.3-2014q1/bin/../lib/gcc/arm-none-eabi/4.8.3/../../../../arm-none-eabi/lib/armv7-m/libc.a(lib_a-strncpy.o)
 .ARM.attributes
                0x000000000000119b       0x2d /home/fx/.arduino15/packages/arduino/tools/arm-none-eabi-gcc/4.8.3-2014q1/bin/../lib/gcc/arm-none-eabi/4.8.3/../../../../arm-none-eabi/lib/armv7-m/libc.a(lib_a-svfprintf.o)
 .ARM.attributes
                0x00000000000011c8       0x2d /home/fx/.arduino15/packages/arduino/tools/arm-none-eabi-gcc/4.8.3-2014q1/bin/../lib/gcc/arm-none-eabi/4.8.3/../../../../arm-none-eabi/lib/armv7-m/libc.a(lib_a-__call_atexit.o)
 .ARM.attributes
                0x00000000000011f5       0x2d /home/fx/.arduino15/packages/arduino/tools/arm-none-eabi-gcc/4.8.3-2014q1/bin/../lib/gcc/arm-none-eabi/4.8.3/../../../../arm-none-eabi/lib/armv7-m/libc.a(lib_a-atexit.o)
 .ARM.attributes
                0x0000000000001222       0x2d /home/fx/.arduino15/packages/arduino/tools/arm-none-eabi-gcc/4.8.3-2014q1/bin/../lib/gcc/arm-none-eabi/4.8.3/../../../../arm-none-eabi/lib/armv7-m/libc.a(lib_a-dtoa.o)
 .ARM.attributes
                0x000000000000124f       0x2d /home/fx/.arduino15/packages/arduino/tools/arm-none-eabi-gcc/4.8.3-2014q1/bin/../lib/gcc/arm-none-eabi/4.8.3/../../../../arm-none-eabi/lib/armv7-m/libc.a(lib_a-fini.o)
 .ARM.attributes
                0x000000000000127c       0x2d /home/fx/.arduino15/packages/arduino/tools/arm-none-eabi-gcc/4.8.3-2014q1/bin/../lib/gcc/arm-none-eabi/4.8.3/../../../../arm-none-eabi/lib/armv7-m/libc.a(lib_a-freer.o)
 .ARM.attributes
                0x00000000000012a9       0x2d /home/fx/.arduino15/packages/arduino/tools/arm-none-eabi-gcc/4.8.3-2014q1/bin/../lib/gcc/arm-none-eabi/4.8.3/../../../../arm-none-eabi/lib/armv7-m/libc.a(lib_a-locale.o)
 .ARM.attributes
                0x00000000000012d6       0x2d /home/fx/.arduino15/packages/arduino/tools/arm-none-eabi-gcc/4.8.3-2014q1/bin/../lib/gcc/arm-none-eabi/4.8.3/../../../../arm-none-eabi/lib/armv7-m/libc.a(lib_a-mprec.o)
 .ARM.attributes
                0x0000000000001303       0x2d /home/fx/.arduino15/packages/arduino/tools/arm-none-eabi-gcc/4.8.3-2014q1/bin/../lib/gcc/arm-none-eabi/4.8.3/../../../../arm-none-eabi/lib/armv7-m/libc.a(lib_a-reent.o)
 .ARM.attributes
                0x0000000000001330       0x1b /home/fx/.arduino15/packages/arduino/tools/arm-none-eabi-gcc/4.8.3-2014q1/bin/../lib/gcc/arm-none-eabi/4.8.3/../../../../arm-none-eabi/lib/armv7-m/libc.a(lib_a-strcmp.o)
 .ARM.attributes
                0x000000000000134b       0x2d /home/fx/.arduino15/packages/arduino/tools/arm-none-eabi-gcc/4.8.3-2014q1/bin/../lib/gcc/arm-none-eabi/4.8.3/../../../../arm-none-eabi/lib/armv7-m/libc.a(lib_a-svfiprintf.o)
 .ARM.attributes
                0x0000000000001378       0x2d /home/fx/.arduino15/packages/arduino/tools/arm-none-eabi-gcc/4.8.3-2014q1/bin/../lib/gcc/arm-none-eabi/4.8.3/../../../../arm-none-eabi/lib/armv7-m/libc.a(lib_a-__atexit.o)
 .ARM.attributes
                0x00000000000013a5       0x2d /home/fx/.arduino15/packages/arduino/tools/arm-none-eabi-gcc/4.8.3-2014q1/bin/../lib/gcc/arm-none-eabi/4.8.3/../../../../arm-none-eabi/lib/armv7-m/libc.a(lib_a-callocr.o)
 .ARM.attributes
                0x00000000000013d2       0x2d /home/fx/.arduino15/packages/arduino/tools/arm-none-eabi-gcc/4.8.3-2014q1/bin/../lib/gcc/arm-none-eabi/4.8.3/../../../../arm-none-eabi/lib/armv7-m/libc.a(lib_a-memmove.o)
 .ARM.attributes
                0x00000000000013ff       0x2d /home/fx/.arduino15/packages/arduino/tools/arm-none-eabi-gcc/4.8.3-2014q1/bin/../lib/gcc/arm-none-eabi/4.8.3/../../../../arm-none-eabi/lib/armv7-m/libc.a(lib_a-reallocr.o)
 .ARM.attributes
                0x000000000000142c       0x2d /home/fx/.arduino15/packages/arduino/tools/arm-none-eabi-gcc/4.8.3-2014q1/bin/../lib/gcc/arm-none-eabi/4.8.3/armv7-m/crtend.o
 .ARM.attributes
                0x0000000000001459       0x1d /home/fx/.arduino15/packages/arduino/tools/arm-none-eabi-gcc/4.8.3-2014q1/bin/../lib/gcc/arm-none-eabi/4.8.3/armv7-m/crtn.o

/DISCARD/
 *(.note.GNU-stack)
OUTPUT(/home/fx/Upwork/weather-node/output/weatherSIM808.ino.elf elf32-littlearm)

.debug_ranges   0x0000000000000000     0x2430
 .debug_ranges  0x0000000000000000       0xd0 /home/fx/Upwork/weather-node/output/sketch/weatherSIM808.ino.cpp.o
 .debug_ranges  0x00000000000000d0       0x10 /home/fx/Upwork/weather-node/output/libraries/FreeRTOS821/MapleFreeRTOS821.cpp.o
 .debug_ranges  0x00000000000000e0       0x78 /home/fx/Upwork/weather-node/output/libraries/FreeRTOS821/utility/event_groups.c.o
 .debug_ranges  0x0000000000000158       0x28 /home/fx/Upwork/weather-node/output/libraries/FreeRTOS821/utility/heap_1.c.o
 .debug_ranges  0x0000000000000180       0x30 /home/fx/Upwork/weather-node/output/libraries/FreeRTOS821/utility/list.c.o
 .debug_ranges  0x00000000000001b0       0x78 /home/fx/Upwork/weather-node/output/libraries/FreeRTOS821/utility/port.c.o
 .debug_ranges  0x0000000000000228       0xc8 /home/fx/Upwork/weather-node/output/libraries/FreeRTOS821/utility/queue.c.o
 .debug_ranges  0x00000000000002f0      0x268 /home/fx/Upwork/weather-node/output/libraries/FreeRTOS821/utility/tasks.c.o
 .debug_ranges  0x0000000000000558      0x130 /home/fx/Upwork/weather-node/output/libraries/DHT_sensor_library/DHT.cpp.o
 .debug_ranges  0x0000000000000688      0x168 /home/fx/Upwork/weather-node/output/libraries/DHT_sensor_library/DHT_U.cpp.o
 .debug_ranges  0x00000000000007f0       0x28 /home/fx/Upwork/weather-node/output/libraries/Adafruit_Unified_Sensor/Adafruit_Sensor.cpp.o
 .debug_ranges  0x0000000000000818       0x38 /home/fx/Upwork/weather-node/output/core/board.cpp.o
 .debug_ranges  0x0000000000000850      0x160 /home/fx/Upwork/weather-node/output/core/wirish/boards.cpp.o
 .debug_ranges  0x00000000000009b0       0x48 /home/fx/Upwork/weather-node/output/core/wirish/boards_setup.cpp.o
 .debug_ranges  0x00000000000009f8       0x10 /home/fx/Upwork/weather-node/output/core/wirish/start_c.c.o
 .debug_ranges  0x0000000000000a08       0x78 /home/fx/Upwork/weather-node/output/core/wirish/syscalls.c.o
 .debug_ranges  0x0000000000000a80       0x90 /home/fx/Upwork/weather-node/output/core/core.a(HardwareSerial.cpp.o)
 .debug_ranges  0x0000000000000b10      0x230 /home/fx/Upwork/weather-node/output/core/core.a(Print.cpp.o)
 .debug_ranges  0x0000000000000d40       0x18 /home/fx/Upwork/weather-node/output/core/core.a(cxxabi-compat.cpp.o)
 .debug_ranges  0x0000000000000d58       0x28 /home/fx/Upwork/weather-node/output/core/core.a(adc.c.o)
 .debug_ranges  0x0000000000000d80       0xb8 /home/fx/Upwork/weather-node/output/core/core.a(adc_f1.c.o)
 .debug_ranges  0x0000000000000e38      0x2c0 /home/fx/Upwork/weather-node/output/core/core.a(dma_f1.c.o)
 .debug_ranges  0x00000000000010f8       0xb8 /home/fx/Upwork/weather-node/output/core/core.a(exti.c.o)
 .debug_ranges  0x00000000000011b0       0x10 /home/fx/Upwork/weather-node/output/core/core.a(exti_f1.c.o)
 .debug_ranges  0x00000000000011c0       0x10 /home/fx/Upwork/weather-node/output/core/core.a(flash.c.o)
 .debug_ranges  0x00000000000011d0       0x38 /home/fx/Upwork/weather-node/output/core/core.a(gpio_f1.c.o)
 .debug_ranges  0x0000000000001208       0x90 /home/fx/Upwork/weather-node/output/core/core.a(i2c_f1.c.o)
 .debug_ranges  0x0000000000001298       0x40 /home/fx/Upwork/weather-node/output/core/core.a(nvic.c.o)
 .debug_ranges  0x00000000000012d8       0x98 /home/fx/Upwork/weather-node/output/core/core.a(rcc.c.o)
 .debug_ranges  0x0000000000001370       0xc8 /home/fx/Upwork/weather-node/output/core/core.a(rcc_f1.c.o)
 .debug_ranges  0x0000000000001438       0x48 /home/fx/Upwork/weather-node/output/core/core.a(systick.c.o)
 .debug_ranges  0x0000000000001480      0x118 /home/fx/Upwork/weather-node/output/core/core.a(timer.c.o)
 .debug_ranges  0x0000000000001598       0xd0 /home/fx/Upwork/weather-node/output/core/core.a(usart.c.o)
 .debug_ranges  0x0000000000001668       0x90 /home/fx/Upwork/weather-node/output/core/core.a(usart_f1.c.o)
 .debug_ranges  0x00000000000016f8       0x10 /home/fx/Upwork/weather-node/output/core/core.a(usart_private.c.o)
 .debug_ranges  0x0000000000001708       0xa8 /home/fx/Upwork/weather-node/output/core/core.a(usb.c.o)
 .debug_ranges  0x00000000000017b0      0x238 /home/fx/Upwork/weather-node/output/core/core.a(usb_cdcacm.c.o)
 .debug_ranges  0x00000000000019e8       0x60 /home/fx/Upwork/weather-node/output/core/core.a(usb_reg_map.c.o)
 .debug_ranges  0x0000000000001a48       0xc0 /home/fx/Upwork/weather-node/output/core/core.a(usb_core.c.o)
 .debug_ranges  0x0000000000001b08       0x10 /home/fx/Upwork/weather-node/output/core/core.a(usb_init.c.o)
 .debug_ranges  0x0000000000001b18       0x38 /home/fx/Upwork/weather-node/output/core/core.a(usb_mem.c.o)
 .debug_ranges  0x0000000000001b50      0x290 /home/fx/Upwork/weather-node/output/core/core.a(usb_regs.c.o)
 .debug_ranges  0x0000000000001de0       0x58 /home/fx/Upwork/weather-node/output/core/core.a(util.c.o)
 .debug_ranges  0x0000000000001e38       0x18 /home/fx/Upwork/weather-node/output/core/core.a(main.cpp.o)
 .debug_ranges  0x0000000000001e50       0x28 /home/fx/Upwork/weather-node/output/core/core.a(new.cpp.o)
 .debug_ranges  0x0000000000001e78       0x38 /home/fx/Upwork/weather-node/output/core/core.a(wirish_digital_f1.cpp.o)
 .debug_ranges  0x0000000000001eb0      0x168 /home/fx/Upwork/weather-node/output/core/core.a(usb_serial.cpp.o)
 .debug_ranges  0x0000000000002018       0x50 /home/fx/Upwork/weather-node/output/core/core.a(wirish_digital.cpp.o)
 .debug_ranges  0x0000000000002068       0x20 /home/fx/Upwork/weather-node/output/core/core.a(wirish_time.cpp.o)
 .debug_ranges  0x0000000000002088       0x10 /home/fx/Upwork/weather-node/output/core/core.a(hooks.c.o)
 .debug_ranges  0x0000000000002098       0x30 /home/fx/Upwork/weather-node/output/core/core.a(bkp_f1.c.o)
 .debug_ranges  0x00000000000020c8       0x18 /home/fx/Upwork/weather-node/output/core/core.a(dma.c.o)
 .debug_ranges  0x00000000000020e0       0x10 /home/fx/Upwork/weather-node/output/core/core.a(gpio.c.o)
 .debug_ranges  0x00000000000020f0      0x340 /home/fx/Upwork/weather-node/output/core/core.a(i2c.c.o)

.comment        0x0000000000000000       0x80
 .comment       0x0000000000000000       0x80 /home/fx/Upwork/weather-node/output/sketch/weatherSIM808.ino.cpp.o
                                         0x81 (size before relaxing)
 .comment       0x0000000000000000       0x81 /home/fx/Upwork/weather-node/output/libraries/FreeRTOS821/MapleFreeRTOS821.cpp.o
 .comment       0x0000000000000000       0x81 /home/fx/Upwork/weather-node/output/libraries/FreeRTOS821/utility/croutine.c.o
 .comment       0x0000000000000000       0x81 /home/fx/Upwork/weather-node/output/libraries/FreeRTOS821/utility/event_groups.c.o
 .comment       0x0000000000000000       0x81 /home/fx/Upwork/weather-node/output/libraries/FreeRTOS821/utility/heap_1.c.o
 .comment       0x0000000000000000       0x81 /home/fx/Upwork/weather-node/output/libraries/FreeRTOS821/utility/list.c.o
 .comment       0x0000000000000000       0x81 /home/fx/Upwork/weather-node/output/libraries/FreeRTOS821/utility/port.c.o
 .comment       0x0000000000000000       0x81 /home/fx/Upwork/weather-node/output/libraries/FreeRTOS821/utility/queue.c.o
 .comment       0x0000000000000000       0x81 /home/fx/Upwork/weather-node/output/libraries/FreeRTOS821/utility/tasks.c.o
 .comment       0x0000000000000000       0x81 /home/fx/Upwork/weather-node/output/libraries/FreeRTOS821/utility/timers.c.o
 .comment       0x0000000000000000       0x81 /home/fx/Upwork/weather-node/output/libraries/DHT_sensor_library/DHT.cpp.o
 .comment       0x0000000000000000       0x81 /home/fx/Upwork/weather-node/output/libraries/DHT_sensor_library/DHT_U.cpp.o
 .comment       0x0000000000000000       0x81 /home/fx/Upwork/weather-node/output/libraries/Adafruit_Unified_Sensor/Adafruit_Sensor.cpp.o
 .comment       0x0000000000000000       0x81 /home/fx/Upwork/weather-node/output/core/board.cpp.o
 .comment       0x0000000000000000       0x81 /home/fx/Upwork/weather-node/output/core/wirish/boards.cpp.o
 .comment       0x0000000000000000       0x81 /home/fx/Upwork/weather-node/output/core/wirish/boards_setup.cpp.o
 .comment       0x0000000000000000       0x81 /home/fx/Upwork/weather-node/output/core/wirish/start_c.c.o
 .comment       0x0000000000000000       0x81 /home/fx/Upwork/weather-node/output/core/wirish/syscalls.c.o
 .comment       0x0000000000000000       0x81 /home/fx/Upwork/weather-node/output/core/core.a(HardwareSerial.cpp.o)
 .comment       0x0000000000000000       0x81 /home/fx/Upwork/weather-node/output/core/core.a(Print.cpp.o)
 .comment       0x0000000000000000       0x81 /home/fx/Upwork/weather-node/output/core/core.a(cxxabi-compat.cpp.o)
 .comment       0x0000000000000000       0x81 /home/fx/Upwork/weather-node/output/core/core.a(adc.c.o)
 .comment       0x0000000000000000       0x81 /home/fx/Upwork/weather-node/output/core/core.a(adc_f1.c.o)
 .comment       0x0000000000000000       0x81 /home/fx/Upwork/weather-node/output/core/core.a(dma_f1.c.o)
 .comment       0x0000000000000000       0x81 /home/fx/Upwork/weather-node/output/core/core.a(exti.c.o)
 .comment       0x0000000000000000       0x81 /home/fx/Upwork/weather-node/output/core/core.a(exti_f1.c.o)
 .comment       0x0000000000000000       0x81 /home/fx/Upwork/weather-node/output/core/core.a(flash.c.o)
 .comment       0x0000000000000000       0x81 /home/fx/Upwork/weather-node/output/core/core.a(gpio_f1.c.o)
 .comment       0x0000000000000000       0x81 /home/fx/Upwork/weather-node/output/core/core.a(i2c_f1.c.o)
 .comment       0x0000000000000000       0x81 /home/fx/Upwork/weather-node/output/core/core.a(nvic.c.o)
 .comment       0x0000000000000000       0x81 /home/fx/Upwork/weather-node/output/core/core.a(rcc.c.o)
 .comment       0x0000000000000000       0x81 /home/fx/Upwork/weather-node/output/core/core.a(rcc_f1.c.o)
 .comment       0x0000000000000000       0x81 /home/fx/Upwork/weather-node/output/core/core.a(systick.c.o)
 .comment       0x0000000000000000       0x81 /home/fx/Upwork/weather-node/output/core/core.a(timer.c.o)
 .comment       0x0000000000000000       0x81 /home/fx/Upwork/weather-node/output/core/core.a(usart.c.o)
 .comment       0x0000000000000000       0x81 /home/fx/Upwork/weather-node/output/core/core.a(usart_f1.c.o)
 .comment       0x0000000000000000       0x81 /home/fx/Upwork/weather-node/output/core/core.a(usart_private.c.o)
 .comment       0x0000000000000000       0x81 /home/fx/Upwork/weather-node/output/core/core.a(usb.c.o)
 .comment       0x0000000000000000       0x81 /home/fx/Upwork/weather-node/output/core/core.a(usb_cdcacm.c.o)
 .comment       0x0000000000000000       0x81 /home/fx/Upwork/weather-node/output/core/core.a(usb_reg_map.c.o)
 .comment       0x0000000000000000       0x81 /home/fx/Upwork/weather-node/output/core/core.a(usb_core.c.o)
 .comment       0x0000000000000000       0x81 /home/fx/Upwork/weather-node/output/core/core.a(usb_init.c.o)
 .comment       0x0000000000000000       0x81 /home/fx/Upwork/weather-node/output/core/core.a(usb_mem.c.o)
 .comment       0x0000000000000000       0x81 /home/fx/Upwork/weather-node/output/core/core.a(usb_regs.c.o)
 .comment       0x0000000000000000       0x81 /home/fx/Upwork/weather-node/output/core/core.a(util.c.o)
 .comment       0x0000000000000000       0x81 /home/fx/Upwork/weather-node/output/core/core.a(main.cpp.o)
 .comment       0x0000000000000000       0x81 /home/fx/Upwork/weather-node/output/core/core.a(new.cpp.o)
 .comment       0x0000000000000000       0x81 /home/fx/Upwork/weather-node/output/core/core.a(wirish_digital_f1.cpp.o)
 .comment       0x0000000000000000       0x81 /home/fx/Upwork/weather-node/output/core/core.a(usb_serial.cpp.o)
 .comment       0x0000000000000000       0x81 /home/fx/Upwork/weather-node/output/core/core.a(wirish_digital.cpp.o)
 .comment       0x0000000000000000       0x81 /home/fx/Upwork/weather-node/output/core/core.a(wirish_time.cpp.o)
 .comment       0x0000000000000000       0x81 /home/fx/Upwork/weather-node/output/core/core.a(hooks.c.o)
 .comment       0x0000000000000000       0x81 /home/fx/Upwork/weather-node/output/core/core.a(bkp_f1.c.o)
 .comment       0x0000000000000000       0x81 /home/fx/Upwork/weather-node/output/core/core.a(dma.c.o)
 .comment       0x0000000000000000       0x81 /home/fx/Upwork/weather-node/output/core/core.a(gpio.c.o)
 .comment       0x0000000000000000       0x81 /home/fx/Upwork/weather-node/output/core/core.a(i2c.c.o)

Cross Reference Table

Symbol                                            File
ADC1                                              /home/fx/Upwork/weather-node/output/core/core.a(adc_f1.c.o)
ADC2                                              /home/fx/Upwork/weather-node/output/core/core.a(adc_f1.c.o)
Adafruit_Sensor::enableAutoRange(bool)            /home/fx/Upwork/weather-node/output/libraries/DHT_sensor_library/DHT_U.cpp.o
Adafruit_Sensor::printSensorDetails()             /home/fx/Upwork/weather-node/output/libraries/Adafruit_Unified_Sensor/Adafruit_Sensor.cpp.o
Adafruit_Sensor::~Adafruit_Sensor()               /home/fx/Upwork/weather-node/output/libraries/DHT_sensor_library/DHT_U.cpp.o
Adafruit_Sensor::~Adafruit_Sensor()               /home/fx/Upwork/weather-node/output/libraries/DHT_sensor_library/DHT_U.cpp.o
Adafruit_Sensor::~Adafruit_Sensor()               /home/fx/Upwork/weather-node/output/libraries/DHT_sensor_library/DHT_U.cpp.o
BKP                                               /home/fx/Upwork/weather-node/output/core/core.a(bkp_f1.c.o)
ByteSwap                                          /home/fx/Upwork/weather-node/output/core/core.a(usb_regs.c.o)
ClearDTOG_RX                                      /home/fx/Upwork/weather-node/output/core/core.a(usb_regs.c.o)
                                                  /home/fx/Upwork/weather-node/output/core/core.a(usb_core.c.o)
ClearDTOG_TX                                      /home/fx/Upwork/weather-node/output/core/core.a(usb_regs.c.o)
                                                  /home/fx/Upwork/weather-node/output/core/core.a(usb_core.c.o)
ClearEPDoubleBuff                                 /home/fx/Upwork/weather-node/output/core/core.a(usb_regs.c.o)
ClearEP_CTR_RX                                    /home/fx/Upwork/weather-node/output/core/core.a(usb_regs.c.o)
ClearEP_CTR_TX                                    /home/fx/Upwork/weather-node/output/core/core.a(usb_regs.c.o)
ClearEP_KIND                                      /home/fx/Upwork/weather-node/output/core/core.a(usb_regs.c.o)
Clear_Status_Out                                  /home/fx/Upwork/weather-node/output/core/core.a(usb_regs.c.o)
DHT::DHT(unsigned char, unsigned char, unsigned char) /home/fx/Upwork/weather-node/output/libraries/DHT_sensor_library/DHT.cpp.o
DHT::DHT(unsigned char, unsigned char, unsigned char) /home/fx/Upwork/weather-node/output/libraries/DHT_sensor_library/DHT.cpp.o
                                                  /home/fx/Upwork/weather-node/output/libraries/DHT_sensor_library/DHT_U.cpp.o
                                                  /home/fx/Upwork/weather-node/output/sketch/weatherSIM808.ino.cpp.o
DHT::begin(unsigned char)                         /home/fx/Upwork/weather-node/output/libraries/DHT_sensor_library/DHT.cpp.o
                                                  /home/fx/Upwork/weather-node/output/libraries/DHT_sensor_library/DHT_U.cpp.o
                                                  /home/fx/Upwork/weather-node/output/sketch/weatherSIM808.ino.cpp.o
DHT::computeHeatIndex(bool)                       /home/fx/Upwork/weather-node/output/libraries/DHT_sensor_library/DHT.cpp.o
DHT::computeHeatIndex(float, float, bool)         /home/fx/Upwork/weather-node/output/libraries/DHT_sensor_library/DHT.cpp.o
DHT::convertCtoF(float)                           /home/fx/Upwork/weather-node/output/libraries/DHT_sensor_library/DHT.cpp.o
DHT::convertFtoC(float)                           /home/fx/Upwork/weather-node/output/libraries/DHT_sensor_library/DHT.cpp.o
DHT::expectPulse(bool)                            /home/fx/Upwork/weather-node/output/libraries/DHT_sensor_library/DHT.cpp.o
DHT::read(bool)                                   /home/fx/Upwork/weather-node/output/libraries/DHT_sensor_library/DHT.cpp.o
DHT::readHumidity(bool)                           /home/fx/Upwork/weather-node/output/libraries/DHT_sensor_library/DHT.cpp.o
                                                  /home/fx/Upwork/weather-node/output/libraries/DHT_sensor_library/DHT_U.cpp.o
                                                  /home/fx/Upwork/weather-node/output/sketch/weatherSIM808.ino.cpp.o
DHT::readTemperature(bool, bool)                  /home/fx/Upwork/weather-node/output/libraries/DHT_sensor_library/DHT.cpp.o
                                                  /home/fx/Upwork/weather-node/output/libraries/DHT_sensor_library/DHT_U.cpp.o
                                                  /home/fx/Upwork/weather-node/output/sketch/weatherSIM808.ino.cpp.o
DHT_Unified::DHT_Unified(unsigned char, unsigned char, unsigned char, long, long) /home/fx/Upwork/weather-node/output/libraries/DHT_sensor_library/DHT_U.cpp.o
DHT_Unified::DHT_Unified(unsigned char, unsigned char, unsigned char, long, long) /home/fx/Upwork/weather-node/output/libraries/DHT_sensor_library/DHT_U.cpp.o
DHT_Unified::Humidity::Humidity(DHT_Unified*, long) /home/fx/Upwork/weather-node/output/libraries/DHT_sensor_library/DHT_U.cpp.o
DHT_Unified::Humidity::Humidity(DHT_Unified*, long) /home/fx/Upwork/weather-node/output/libraries/DHT_sensor_library/DHT_U.cpp.o
DHT_Unified::Humidity::getEvent(sensors_event_t*) /home/fx/Upwork/weather-node/output/libraries/DHT_sensor_library/DHT_U.cpp.o
DHT_Unified::Humidity::getSensor(sensor_t*)       /home/fx/Upwork/weather-node/output/libraries/DHT_sensor_library/DHT_U.cpp.o
DHT_Unified::Humidity::~Humidity()                /home/fx/Upwork/weather-node/output/libraries/DHT_sensor_library/DHT_U.cpp.o
DHT_Unified::Humidity::~Humidity()                /home/fx/Upwork/weather-node/output/libraries/DHT_sensor_library/DHT_U.cpp.o
DHT_Unified::Humidity::~Humidity()                /home/fx/Upwork/weather-node/output/libraries/DHT_sensor_library/DHT_U.cpp.o
DHT_Unified::Temperature::Temperature(DHT_Unified*, long) /home/fx/Upwork/weather-node/output/libraries/DHT_sensor_library/DHT_U.cpp.o
DHT_Unified::Temperature::Temperature(DHT_Unified*, long) /home/fx/Upwork/weather-node/output/libraries/DHT_sensor_library/DHT_U.cpp.o
DHT_Unified::Temperature::getEvent(sensors_event_t*) /home/fx/Upwork/weather-node/output/libraries/DHT_sensor_library/DHT_U.cpp.o
DHT_Unified::Temperature::getSensor(sensor_t*)    /home/fx/Upwork/weather-node/output/libraries/DHT_sensor_library/DHT_U.cpp.o
DHT_Unified::Temperature::~Temperature()          /home/fx/Upwork/weather-node/output/libraries/DHT_sensor_library/DHT_U.cpp.o
DHT_Unified::Temperature::~Temperature()          /home/fx/Upwork/weather-node/output/libraries/DHT_sensor_library/DHT_U.cpp.o
DHT_Unified::Temperature::~Temperature()          /home/fx/Upwork/weather-node/output/libraries/DHT_sensor_library/DHT_U.cpp.o
DHT_Unified::begin()                              /home/fx/Upwork/weather-node/output/libraries/DHT_sensor_library/DHT_U.cpp.o
DHT_Unified::setMinDelay(sensor_t*)               /home/fx/Upwork/weather-node/output/libraries/DHT_sensor_library/DHT_U.cpp.o
DHT_Unified::setName(sensor_t*)                   /home/fx/Upwork/weather-node/output/libraries/DHT_sensor_library/DHT_U.cpp.o
DMA1                                              /home/fx/Upwork/weather-node/output/core/core.a(dma_f1.c.o)
Data_Mul_MaxPacketSize                            /home/fx/Upwork/weather-node/output/core/core.a(usb_core.c.o)
Device_Info                                       /home/fx/Upwork/weather-node/output/core/core.a(usb_init.c.o)
                                                  /home/fx/Upwork/weather-node/output/core/core.a(usb.c.o)
Device_Property                                   /home/fx/Upwork/weather-node/output/core/core.a(usb_cdcacm.c.o)
                                                  /home/fx/Upwork/weather-node/output/core/core.a(usb_init.c.o)
                                                  /home/fx/Upwork/weather-node/output/core/core.a(usb_core.c.o)
                                                  /home/fx/Upwork/weather-node/output/core/core.a(usb.c.o)
Device_Table                                      /home/fx/Upwork/weather-node/output/core/core.a(usb_cdcacm.c.o)
                                                  /home/fx/Upwork/weather-node/output/core/core.a(usb_core.c.o)
EPindex                                           /home/fx/Upwork/weather-node/output/core/core.a(usb_init.c.o)
FreeUserBuffer                                    /home/fx/Upwork/weather-node/output/core/core.a(usb_regs.c.o)
GPIOA                                             /home/fx/Upwork/weather-node/output/core/core.a(gpio_f1.c.o)
GPIOB                                             /home/fx/Upwork/weather-node/output/core/core.a(gpio_f1.c.o)
GPIOC                                             /home/fx/Upwork/weather-node/output/core/core.a(gpio_f1.c.o)
                                                  /home/fx/Upwork/weather-node/output/core/core.a(util.c.o)
GPIOD                                             /home/fx/Upwork/weather-node/output/core/core.a(gpio_f1.c.o)
GetBTABLE                                         /home/fx/Upwork/weather-node/output/core/core.a(usb_regs.c.o)
GetCNTR                                           /home/fx/Upwork/weather-node/output/core/core.a(usb_regs.c.o)
GetDADDR                                          /home/fx/Upwork/weather-node/output/core/core.a(usb_regs.c.o)
GetENDPOINT                                       /home/fx/Upwork/weather-node/output/core/core.a(usb_regs.c.o)
GetEPAddress                                      /home/fx/Upwork/weather-node/output/core/core.a(usb_regs.c.o)
GetEPDblBuf0Addr                                  /home/fx/Upwork/weather-node/output/core/core.a(usb_regs.c.o)
GetEPDblBuf0Count                                 /home/fx/Upwork/weather-node/output/core/core.a(usb_regs.c.o)
GetEPDblBuf1Addr                                  /home/fx/Upwork/weather-node/output/core/core.a(usb_regs.c.o)
GetEPDblBuf1Count                                 /home/fx/Upwork/weather-node/output/core/core.a(usb_regs.c.o)
GetEPDblBufDir                                    /home/fx/Upwork/weather-node/output/core/core.a(usb_regs.c.o)
GetEPRxAddr                                       /home/fx/Upwork/weather-node/output/core/core.a(usb_regs.c.o)
                                                  /home/fx/Upwork/weather-node/output/core/core.a(usb_core.c.o)
GetEPRxCount                                      /home/fx/Upwork/weather-node/output/core/core.a(usb_regs.c.o)
GetEPRxStatus                                     /home/fx/Upwork/weather-node/output/core/core.a(usb_regs.c.o)
GetEPTxAddr                                       /home/fx/Upwork/weather-node/output/core/core.a(usb_regs.c.o)
                                                  /home/fx/Upwork/weather-node/output/core/core.a(usb_core.c.o)
GetEPTxCount                                      /home/fx/Upwork/weather-node/output/core/core.a(usb_regs.c.o)
GetEPTxStatus                                     /home/fx/Upwork/weather-node/output/core/core.a(usb_regs.c.o)
GetEPType                                         /home/fx/Upwork/weather-node/output/core/core.a(usb_regs.c.o)
GetFNR                                            /home/fx/Upwork/weather-node/output/core/core.a(usb_regs.c.o)
GetISTR                                           /home/fx/Upwork/weather-node/output/core/core.a(usb_regs.c.o)
GetRxStallStatus                                  /home/fx/Upwork/weather-node/output/core/core.a(usb_regs.c.o)
GetTxStallStatus                                  /home/fx/Upwork/weather-node/output/core/core.a(usb_regs.c.o)
HardwareSerial::HardwareSerial(usart_dev*, unsigned char, unsigned char) /home/fx/Upwork/weather-node/output/core/core.a(HardwareSerial.cpp.o)
HardwareSerial::HardwareSerial(usart_dev*, unsigned char, unsigned char) /home/fx/Upwork/weather-node/output/core/core.a(HardwareSerial.cpp.o)
                                                  /home/fx/Upwork/weather-node/output/core/board.cpp.o
HardwareSerial::available()                       /home/fx/Upwork/weather-node/output/core/core.a(HardwareSerial.cpp.o)
                                                  /home/fx/Upwork/weather-node/output/sketch/weatherSIM808.ino.cpp.o
HardwareSerial::availableForWrite()               /home/fx/Upwork/weather-node/output/core/core.a(HardwareSerial.cpp.o)
HardwareSerial::begin(unsigned long)              /home/fx/Upwork/weather-node/output/core/core.a(HardwareSerial.cpp.o)
                                                  /home/fx/Upwork/weather-node/output/sketch/weatherSIM808.ino.cpp.o
HardwareSerial::begin(unsigned long, unsigned char) /home/fx/Upwork/weather-node/output/core/core.a(HardwareSerial.cpp.o)
HardwareSerial::end()                             /home/fx/Upwork/weather-node/output/core/core.a(HardwareSerial.cpp.o)
HardwareSerial::flush()                           /home/fx/Upwork/weather-node/output/core/core.a(HardwareSerial.cpp.o)
HardwareSerial::peek()                            /home/fx/Upwork/weather-node/output/core/core.a(HardwareSerial.cpp.o)
HardwareSerial::read()                            /home/fx/Upwork/weather-node/output/core/core.a(HardwareSerial.cpp.o)
                                                  /home/fx/Upwork/weather-node/output/sketch/weatherSIM808.ino.cpp.o
HardwareSerial::write(unsigned char)              /home/fx/Upwork/weather-node/output/core/core.a(HardwareSerial.cpp.o)
I2C1                                              /home/fx/Upwork/weather-node/output/core/core.a(i2c_f1.c.o)
                                                  /home/fx/Upwork/weather-node/output/core/core.a(i2c.c.o)
I2C2                                              /home/fx/Upwork/weather-node/output/core/core.a(i2c_f1.c.o)
In0_Process                                       /home/fx/Upwork/weather-node/output/core/core.a(usb_core.c.o)
                                                  /home/fx/Upwork/weather-node/output/core/core.a(usb.c.o)
NOP_Process                                       /home/fx/Upwork/weather-node/output/core/core.a(usb_core.c.o)
                                                  /home/fx/Upwork/weather-node/output/core/core.a(usb_cdcacm.c.o)
Out0_Process                                      /home/fx/Upwork/weather-node/output/core/core.a(usb_core.c.o)
                                                  /home/fx/Upwork/weather-node/output/core/core.a(usb.c.o)
PIN_MAP                                           /home/fx/Upwork/weather-node/output/core/board.cpp.o
                                                  /home/fx/Upwork/weather-node/output/core/core.a(wirish_digital.cpp.o)
                                                  /home/fx/Upwork/weather-node/output/core/core.a(wirish_digital_f1.cpp.o)
                                                  /home/fx/Upwork/weather-node/output/core/core.a(HardwareSerial.cpp.o)
                                                  /home/fx/Upwork/weather-node/output/core/wirish/boards_setup.cpp.o
PMAToUserBufferCopy                               /home/fx/Upwork/weather-node/output/core/core.a(usb_mem.c.o)
                                                  /home/fx/Upwork/weather-node/output/core/core.a(usb_core.c.o)
Post0_Process                                     /home/fx/Upwork/weather-node/output/core/core.a(usb_core.c.o)
Print::print(Printable const&)                    /home/fx/Upwork/weather-node/output/core/core.a(Print.cpp.o)
Print::print(String const&)                       /home/fx/Upwork/weather-node/output/core/core.a(Print.cpp.o)
Print::print(__FlashStringHelper const*)          /home/fx/Upwork/weather-node/output/core/core.a(Print.cpp.o)
                                                  /home/fx/Upwork/weather-node/output/libraries/Adafruit_Unified_Sensor/Adafruit_Sensor.cpp.o
Print::print(char const*)                         /home/fx/Upwork/weather-node/output/core/core.a(Print.cpp.o)
                                                  /home/fx/Upwork/weather-node/output/sketch/weatherSIM808.ino.cpp.o
Print::print(char)                                /home/fx/Upwork/weather-node/output/core/core.a(Print.cpp.o)
                                                  /home/fx/Upwork/weather-node/output/sketch/weatherSIM808.ino.cpp.o
Print::print(double, int)                         /home/fx/Upwork/weather-node/output/core/core.a(Print.cpp.o)
Print::print(int, int)                            /home/fx/Upwork/weather-node/output/core/core.a(Print.cpp.o)
                                                  /home/fx/Upwork/weather-node/output/sketch/weatherSIM808.ino.cpp.o
Print::print(long long, int)                      /home/fx/Upwork/weather-node/output/core/core.a(Print.cpp.o)
Print::print(long, int)                           /home/fx/Upwork/weather-node/output/core/core.a(Print.cpp.o)
Print::print(unsigned char, int)                  /home/fx/Upwork/weather-node/output/core/core.a(Print.cpp.o)
Print::print(unsigned int, int)                   /home/fx/Upwork/weather-node/output/core/core.a(Print.cpp.o)
Print::print(unsigned long long, int)             /home/fx/Upwork/weather-node/output/core/core.a(Print.cpp.o)
Print::print(unsigned long, int)                  /home/fx/Upwork/weather-node/output/core/core.a(Print.cpp.o)
Print::printFloat(double, unsigned char)          /home/fx/Upwork/weather-node/output/core/core.a(Print.cpp.o)
Print::printNumber(unsigned long long, unsigned char) /home/fx/Upwork/weather-node/output/core/core.a(Print.cpp.o)
Print::println()                                  /home/fx/Upwork/weather-node/output/core/core.a(Print.cpp.o)
                                                  /home/fx/Upwork/weather-node/output/libraries/Adafruit_Unified_Sensor/Adafruit_Sensor.cpp.o
Print::println(Printable const&)                  /home/fx/Upwork/weather-node/output/core/core.a(Print.cpp.o)
Print::println(String const&)                     /home/fx/Upwork/weather-node/output/core/core.a(Print.cpp.o)
Print::println(__FlashStringHelper const*)        /home/fx/Upwork/weather-node/output/core/core.a(Print.cpp.o)
                                                  /home/fx/Upwork/weather-node/output/libraries/Adafruit_Unified_Sensor/Adafruit_Sensor.cpp.o
Print::println(char const*)                       /home/fx/Upwork/weather-node/output/core/core.a(Print.cpp.o)
                                                  /home/fx/Upwork/weather-node/output/libraries/Adafruit_Unified_Sensor/Adafruit_Sensor.cpp.o
                                                  /home/fx/Upwork/weather-node/output/sketch/weatherSIM808.ino.cpp.o
Print::println(char)                              /home/fx/Upwork/weather-node/output/core/core.a(Print.cpp.o)
Print::println(double, int)                       /home/fx/Upwork/weather-node/output/core/core.a(Print.cpp.o)
                                                  /home/fx/Upwork/weather-node/output/libraries/Adafruit_Unified_Sensor/Adafruit_Sensor.cpp.o
Print::println(int, int)                          /home/fx/Upwork/weather-node/output/core/core.a(Print.cpp.o)
Print::println(long long, int)                    /home/fx/Upwork/weather-node/output/core/core.a(Print.cpp.o)
Print::println(long, int)                         /home/fx/Upwork/weather-node/output/core/core.a(Print.cpp.o)
                                                  /home/fx/Upwork/weather-node/output/libraries/Adafruit_Unified_Sensor/Adafruit_Sensor.cpp.o
Print::println(unsigned char, int)                /home/fx/Upwork/weather-node/output/core/core.a(Print.cpp.o)
Print::println(unsigned int, int)                 /home/fx/Upwork/weather-node/output/core/core.a(Print.cpp.o)
Print::println(unsigned long long, int)           /home/fx/Upwork/weather-node/output/core/core.a(Print.cpp.o)
Print::println(unsigned long, int)                /home/fx/Upwork/weather-node/output/core/core.a(Print.cpp.o)
Print::write(char const*)                         /home/fx/Upwork/weather-node/output/core/core.a(Print.cpp.o)
                                                  /home/fx/Upwork/weather-node/output/core/core.a(usb_serial.cpp.o)
                                                  /home/fx/Upwork/weather-node/output/core/core.a(HardwareSerial.cpp.o)
Print::write(void const*, unsigned long)          /home/fx/Upwork/weather-node/output/core/core.a(Print.cpp.o)
                                                  /home/fx/Upwork/weather-node/output/core/core.a(usb_serial.cpp.o)
                                                  /home/fx/Upwork/weather-node/output/core/core.a(HardwareSerial.cpp.o)
ResumeS                                           /home/fx/Upwork/weather-node/output/core/core.a(usb.c.o)
SaveRState                                        /home/fx/Upwork/weather-node/output/core/core.a(usb_core.c.o)
                                                  /home/fx/Upwork/weather-node/output/core/core.a(usb.c.o)
SaveState                                         /home/fx/Upwork/weather-node/output/core/core.a(usb_init.c.o)
SaveTState                                        /home/fx/Upwork/weather-node/output/core/core.a(usb_core.c.o)
                                                  /home/fx/Upwork/weather-node/output/core/core.a(usb.c.o)
Serial                                            /home/fx/Upwork/weather-node/output/core/core.a(usb_serial.cpp.o)
                                                  /home/fx/Upwork/weather-node/output/core/wirish/boards_setup.cpp.o
                                                  /home/fx/Upwork/weather-node/output/libraries/Adafruit_Unified_Sensor/Adafruit_Sensor.cpp.o
                                                  /home/fx/Upwork/weather-node/output/sketch/weatherSIM808.ino.cpp.o
Serial1                                           /home/fx/Upwork/weather-node/output/core/board.cpp.o
                                                  /home/fx/Upwork/weather-node/output/sketch/weatherSIM808.ino.cpp.o
Serial2                                           /home/fx/Upwork/weather-node/output/core/board.cpp.o
                                                  /home/fx/Upwork/weather-node/output/sketch/weatherSIM808.ino.cpp.o
Serial3                                           /home/fx/Upwork/weather-node/output/core/board.cpp.o
                                                  /home/fx/Upwork/weather-node/output/sketch/weatherSIM808.ino.cpp.o
SetBTABLE                                         /home/fx/Upwork/weather-node/output/core/core.a(usb_regs.c.o)
SetCNTR                                           /home/fx/Upwork/weather-node/output/core/core.a(usb_regs.c.o)
SetDADDR                                          /home/fx/Upwork/weather-node/output/core/core.a(usb_regs.c.o)
SetDeviceAddress                                  /home/fx/Upwork/weather-node/output/core/core.a(usb_core.c.o)
                                                  /home/fx/Upwork/weather-node/output/core/core.a(usb_cdcacm.c.o)
SetDouBleBuffEPStall                              /home/fx/Upwork/weather-node/output/core/core.a(usb_regs.c.o)
SetENDPOINT                                       /home/fx/Upwork/weather-node/output/core/core.a(usb_regs.c.o)
SetEPAddress                                      /home/fx/Upwork/weather-node/output/core/core.a(usb_regs.c.o)
SetEPCountRxReg                                   /home/fx/Upwork/weather-node/output/core/core.a(usb_regs.c.o)
SetEPDblBuf0Addr                                  /home/fx/Upwork/weather-node/output/core/core.a(usb_regs.c.o)
SetEPDblBuf0Count                                 /home/fx/Upwork/weather-node/output/core/core.a(usb_regs.c.o)
SetEPDblBuf1Addr                                  /home/fx/Upwork/weather-node/output/core/core.a(usb_regs.c.o)
SetEPDblBuf1Count                                 /home/fx/Upwork/weather-node/output/core/core.a(usb_regs.c.o)
SetEPDblBuffAddr                                  /home/fx/Upwork/weather-node/output/core/core.a(usb_regs.c.o)
SetEPDblBuffCount                                 /home/fx/Upwork/weather-node/output/core/core.a(usb_regs.c.o)
SetEPDoubleBuff                                   /home/fx/Upwork/weather-node/output/core/core.a(usb_regs.c.o)
SetEPRxAddr                                       /home/fx/Upwork/weather-node/output/core/core.a(usb_regs.c.o)
SetEPRxCount                                      /home/fx/Upwork/weather-node/output/core/core.a(usb_regs.c.o)
                                                  /home/fx/Upwork/weather-node/output/core/core.a(usb_core.c.o)
SetEPRxStatus                                     /home/fx/Upwork/weather-node/output/core/core.a(usb_regs.c.o)
SetEPRxValid                                      /home/fx/Upwork/weather-node/output/core/core.a(usb_regs.c.o)
SetEPTxAddr                                       /home/fx/Upwork/weather-node/output/core/core.a(usb_regs.c.o)
SetEPTxCount                                      /home/fx/Upwork/weather-node/output/core/core.a(usb_regs.c.o)
                                                  /home/fx/Upwork/weather-node/output/core/core.a(usb_core.c.o)
SetEPTxStatus                                     /home/fx/Upwork/weather-node/output/core/core.a(usb_regs.c.o)
                                                  /home/fx/Upwork/weather-node/output/core/core.a(usb_core.c.o)
SetEPTxValid                                      /home/fx/Upwork/weather-node/output/core/core.a(usb_regs.c.o)
SetEPType                                         /home/fx/Upwork/weather-node/output/core/core.a(usb_regs.c.o)
SetEP_KIND                                        /home/fx/Upwork/weather-node/output/core/core.a(usb_regs.c.o)
SetISTR                                           /home/fx/Upwork/weather-node/output/core/core.a(usb_regs.c.o)
Set_Status_Out                                    /home/fx/Upwork/weather-node/output/core/core.a(usb_regs.c.o)
Setup0_Process                                    /home/fx/Upwork/weather-node/output/core/core.a(usb_core.c.o)
                                                  /home/fx/Upwork/weather-node/output/core/core.a(usb.c.o)
Standard_ClearFeature                             /home/fx/Upwork/weather-node/output/core/core.a(usb_core.c.o)
Standard_GetConfiguration                         /home/fx/Upwork/weather-node/output/core/core.a(usb_core.c.o)
Standard_GetDescriptorData                        /home/fx/Upwork/weather-node/output/core/core.a(usb_core.c.o)
                                                  /home/fx/Upwork/weather-node/output/core/core.a(usb_cdcacm.c.o)
Standard_GetInterface                             /home/fx/Upwork/weather-node/output/core/core.a(usb_core.c.o)
Standard_GetStatus                                /home/fx/Upwork/weather-node/output/core/core.a(usb_core.c.o)
Standard_SetConfiguration                         /home/fx/Upwork/weather-node/output/core/core.a(usb_core.c.o)
Standard_SetDeviceFeature                         /home/fx/Upwork/weather-node/output/core/core.a(usb_core.c.o)
Standard_SetEndPointFeature                       /home/fx/Upwork/weather-node/output/core/core.a(usb_core.c.o)
Standard_SetInterface                             /home/fx/Upwork/weather-node/output/core/core.a(usb_core.c.o)
StatusInfo                                        /home/fx/Upwork/weather-node/output/core/core.a(usb_core.c.o)
TIMER1                                            /home/fx/Upwork/weather-node/output/core/core.a(timer.c.o)
TIMER2                                            /home/fx/Upwork/weather-node/output/core/core.a(timer.c.o)
TIMER3                                            /home/fx/Upwork/weather-node/output/core/core.a(timer.c.o)
TIMER4                                            /home/fx/Upwork/weather-node/output/core/core.a(timer.c.o)
ToWord                                            /home/fx/Upwork/weather-node/output/core/core.a(usb_regs.c.o)
ToggleDTOG_RX                                     /home/fx/Upwork/weather-node/output/core/core.a(usb_regs.c.o)
ToggleDTOG_TX                                     /home/fx/Upwork/weather-node/output/core/core.a(usb_regs.c.o)
USART1                                            /home/fx/Upwork/weather-node/output/core/core.a(usart_f1.c.o)
                                                  /home/fx/Upwork/weather-node/output/core/board.cpp.o
USART2                                            /home/fx/Upwork/weather-node/output/core/core.a(usart_f1.c.o)
                                                  /home/fx/Upwork/weather-node/output/core/board.cpp.o
USART3                                            /home/fx/Upwork/weather-node/output/core/core.a(usart_f1.c.o)
                                                  /home/fx/Upwork/weather-node/output/core/board.cpp.o
USBLIB                                            /home/fx/Upwork/weather-node/output/core/core.a(usb.c.o)
                                                  /home/fx/Upwork/weather-node/output/core/core.a(usb_serial.cpp.o)
                                                  /home/fx/Upwork/weather-node/output/core/core.a(usb_cdcacm.c.o)
USBSerial::USBSerial()                            /home/fx/Upwork/weather-node/output/core/core.a(usb_serial.cpp.o)
USBSerial::USBSerial()                            /home/fx/Upwork/weather-node/output/core/core.a(usb_serial.cpp.o)
USBSerial::_hasBegun                              /home/fx/Upwork/weather-node/output/core/core.a(usb_serial.cpp.o)
USBSerial::_isBlocking                            /home/fx/Upwork/weather-node/output/core/core.a(usb_serial.cpp.o)
USBSerial::available()                            /home/fx/Upwork/weather-node/output/core/core.a(usb_serial.cpp.o)
USBSerial::availableForWrite()                    /home/fx/Upwork/weather-node/output/core/core.a(usb_serial.cpp.o)
USBSerial::begin()                                /home/fx/Upwork/weather-node/output/core/core.a(usb_serial.cpp.o)
                                                  /home/fx/Upwork/weather-node/output/core/wirish/boards_setup.cpp.o
USBSerial::begin(unsigned long)                   /home/fx/Upwork/weather-node/output/core/core.a(usb_serial.cpp.o)
                                                  /home/fx/Upwork/weather-node/output/sketch/weatherSIM808.ino.cpp.o
USBSerial::begin(unsigned long, unsigned char)    /home/fx/Upwork/weather-node/output/core/core.a(usb_serial.cpp.o)
USBSerial::disableBlockingTx()                    /home/fx/Upwork/weather-node/output/core/core.a(usb_serial.cpp.o)
USBSerial::enableBlockingTx()                     /home/fx/Upwork/weather-node/output/core/core.a(usb_serial.cpp.o)
USBSerial::end()                                  /home/fx/Upwork/weather-node/output/core/core.a(usb_serial.cpp.o)
USBSerial::flush()                                /home/fx/Upwork/weather-node/output/core/core.a(usb_serial.cpp.o)
USBSerial::getDTR()                               /home/fx/Upwork/weather-node/output/core/core.a(usb_serial.cpp.o)
USBSerial::getRTS()                               /home/fx/Upwork/weather-node/output/core/core.a(usb_serial.cpp.o)
USBSerial::operator bool()                        /home/fx/Upwork/weather-node/output/core/core.a(usb_serial.cpp.o)
USBSerial::peek()                                 /home/fx/Upwork/weather-node/output/core/core.a(usb_serial.cpp.o)
USBSerial::pending()                              /home/fx/Upwork/weather-node/output/core/core.a(usb_serial.cpp.o)
USBSerial::read()                                 /home/fx/Upwork/weather-node/output/core/core.a(usb_serial.cpp.o)
USBSerial::read(unsigned char*, unsigned long)    /home/fx/Upwork/weather-node/output/core/core.a(usb_serial.cpp.o)
USBSerial::readBytes(char*, unsigned int const&)  /home/fx/Upwork/weather-node/output/core/core.a(usb_serial.cpp.o)
USBSerial::write(char const*)                     /home/fx/Upwork/weather-node/output/core/core.a(usb_serial.cpp.o)
USBSerial::write(unsigned char const*, unsigned long) /home/fx/Upwork/weather-node/output/core/core.a(usb_serial.cpp.o)
USBSerial::write(unsigned char)                   /home/fx/Upwork/weather-node/output/core/core.a(usb_serial.cpp.o)
USB_Init                                          /home/fx/Upwork/weather-node/output/core/core.a(usb_init.c.o)
UserToPMABufferCopy                               /home/fx/Upwork/weather-node/output/core/core.a(usb_mem.c.o)
                                                  /home/fx/Upwork/weather-node/output/core/core.a(usb_core.c.o)
User_Standard_Requests                            /home/fx/Upwork/weather-node/output/core/core.a(usb_cdcacm.c.o)
                                                  /home/fx/Upwork/weather-node/output/core/core.a(usb_init.c.o)
                                                  /home/fx/Upwork/weather-node/output/core/core.a(usb.c.o)
_Balloc                                           /home/fx/.arduino15/packages/arduino/tools/arm-none-eabi-gcc/4.8.3-2014q1/bin/../lib/gcc/arm-none-eabi/4.8.3/../../../../arm-none-eabi/lib/armv7-m/libc.a(lib_a-mprec.o)
                                                  /home/fx/.arduino15/packages/arduino/tools/arm-none-eabi-gcc/4.8.3-2014q1/bin/../lib/gcc/arm-none-eabi/4.8.3/../../../../arm-none-eabi/lib/armv7-m/libc.a(lib_a-dtoa.o)
_Bfree                                            /home/fx/.arduino15/packages/arduino/tools/arm-none-eabi-gcc/4.8.3-2014q1/bin/../lib/gcc/arm-none-eabi/4.8.3/../../../../arm-none-eabi/lib/armv7-m/libc.a(lib_a-mprec.o)
                                                  /home/fx/.arduino15/packages/arduino/tools/arm-none-eabi-gcc/4.8.3-2014q1/bin/../lib/gcc/arm-none-eabi/4.8.3/../../../../arm-none-eabi/lib/armv7-m/libc.a(lib_a-dtoa.o)
_Jv_RegisterClasses                               /home/fx/.arduino15/packages/arduino/tools/arm-none-eabi-gcc/4.8.3-2014q1/bin/../lib/gcc/arm-none-eabi/4.8.3/armv7-m/crtbegin.o
_PathLocale                                       /home/fx/.arduino15/packages/arduino/tools/arm-none-eabi-gcc/4.8.3-2014q1/bin/../lib/gcc/arm-none-eabi/4.8.3/../../../../arm-none-eabi/lib/armv7-m/libc.a(lib_a-locale.o)
__adddf3                                          /home/fx/.arduino15/packages/arduino/tools/arm-none-eabi-gcc/4.8.3-2014q1/bin/../lib/gcc/arm-none-eabi/4.8.3/armv7-m/libgcc.a(_arm_addsubdf3.o)
__addsf3                                          /home/fx/.arduino15/packages/arduino/tools/arm-none-eabi-gcc/4.8.3-2014q1/bin/../lib/gcc/arm-none-eabi/4.8.3/armv7-m/libgcc.a(_arm_addsubsf3.o)
__aeabi_cdcmpeq                                   /home/fx/.arduino15/packages/arduino/tools/arm-none-eabi-gcc/4.8.3-2014q1/bin/../lib/gcc/arm-none-eabi/4.8.3/armv7-m/libgcc.a(_arm_cmpdf2.o)
__aeabi_cdcmple                                   /home/fx/.arduino15/packages/arduino/tools/arm-none-eabi-gcc/4.8.3-2014q1/bin/../lib/gcc/arm-none-eabi/4.8.3/armv7-m/libgcc.a(_arm_cmpdf2.o)
__aeabi_cdrcmple                                  /home/fx/.arduino15/packages/arduino/tools/arm-none-eabi-gcc/4.8.3-2014q1/bin/../lib/gcc/arm-none-eabi/4.8.3/armv7-m/libgcc.a(_arm_cmpdf2.o)
__aeabi_cfcmpeq                                   /home/fx/.arduino15/packages/arduino/tools/arm-none-eabi-gcc/4.8.3-2014q1/bin/../lib/gcc/arm-none-eabi/4.8.3/armv7-m/libgcc.a(_arm_cmpsf2.o)
__aeabi_cfcmple                                   /home/fx/.arduino15/packages/arduino/tools/arm-none-eabi-gcc/4.8.3-2014q1/bin/../lib/gcc/arm-none-eabi/4.8.3/armv7-m/libgcc.a(_arm_cmpsf2.o)
__aeabi_cfrcmple                                  /home/fx/.arduino15/packages/arduino/tools/arm-none-eabi-gcc/4.8.3-2014q1/bin/../lib/gcc/arm-none-eabi/4.8.3/armv7-m/libgcc.a(_arm_cmpsf2.o)
__aeabi_d2f                                       /home/fx/.arduino15/packages/arduino/tools/arm-none-eabi-gcc/4.8.3-2014q1/bin/../lib/gcc/arm-none-eabi/4.8.3/armv7-m/libgcc.a(_arm_truncdfsf2.o)
                                                  /home/fx/Upwork/weather-node/output/libraries/DHT_sensor_library/DHT.cpp.o
__aeabi_d2iz                                      /home/fx/.arduino15/packages/arduino/tools/arm-none-eabi-gcc/4.8.3-2014q1/bin/../lib/gcc/arm-none-eabi/4.8.3/armv7-m/libgcc.a(_arm_fixdfsi.o)
                                                  /home/fx/.arduino15/packages/arduino/tools/arm-none-eabi-gcc/4.8.3-2014q1/bin/../lib/gcc/arm-none-eabi/4.8.3/../../../../arm-none-eabi/lib/armv7-m/libc.a(lib_a-dtoa.o)
                                                  /home/fx/Upwork/weather-node/output/core/core.a(Print.cpp.o)
__aeabi_d2lz                                      /home/fx/.arduino15/packages/arduino/tools/arm-none-eabi-gcc/4.8.3-2014q1/bin/../lib/gcc/arm-none-eabi/4.8.3/armv7-m/libgcc.a(_fixdfdi.o)
                                                  /home/fx/Upwork/weather-node/output/core/core.a(Print.cpp.o)
__aeabi_d2uiz                                     /home/fx/.arduino15/packages/arduino/tools/arm-none-eabi-gcc/4.8.3-2014q1/bin/../lib/gcc/arm-none-eabi/4.8.3/armv7-m/libgcc.a(_arm_fixunsdfsi.o)
                                                  /home/fx/.arduino15/packages/arduino/tools/arm-none-eabi-gcc/4.8.3-2014q1/bin/../lib/gcc/arm-none-eabi/4.8.3/armv7-m/libgcc.a(_fixunsdfdi.o)
__aeabi_d2ulz                                     /home/fx/.arduino15/packages/arduino/tools/arm-none-eabi-gcc/4.8.3-2014q1/bin/../lib/gcc/arm-none-eabi/4.8.3/armv7-m/libgcc.a(_fixunsdfdi.o)
                                                  /home/fx/.arduino15/packages/arduino/tools/arm-none-eabi-gcc/4.8.3-2014q1/bin/../lib/gcc/arm-none-eabi/4.8.3/armv7-m/libgcc.a(_fixdfdi.o)
__aeabi_dadd                                      /home/fx/.arduino15/packages/arduino/tools/arm-none-eabi-gcc/4.8.3-2014q1/bin/../lib/gcc/arm-none-eabi/4.8.3/armv7-m/libgcc.a(_arm_addsubdf3.o)
                                                  /home/fx/.arduino15/packages/arduino/tools/arm-none-eabi-gcc/4.8.3-2014q1/bin/../lib/gcc/arm-none-eabi/4.8.3/../../../../arm-none-eabi/lib/armv7-m/libc.a(lib_a-dtoa.o)
                                                  /home/fx/.arduino15/packages/arduino/tools/arm-none-eabi-gcc/4.8.3-2014q1/bin/../lib/gcc/arm-none-eabi/4.8.3/../../../../arm-none-eabi/lib/armv7-m/libm.a(lib_a-e_sqrt.o)
                                                  /home/fx/Upwork/weather-node/output/core/core.a(Print.cpp.o)
                                                  /home/fx/Upwork/weather-node/output/libraries/DHT_sensor_library/DHT.cpp.o
__aeabi_dcmpeq                                    /home/fx/.arduino15/packages/arduino/tools/arm-none-eabi-gcc/4.8.3-2014q1/bin/../lib/gcc/arm-none-eabi/4.8.3/armv7-m/libgcc.a(_arm_cmpdf2.o)
                                                  /home/fx/.arduino15/packages/arduino/tools/arm-none-eabi-gcc/4.8.3-2014q1/bin/../lib/gcc/arm-none-eabi/4.8.3/../../../../arm-none-eabi/lib/armv7-m/libc.a(lib_a-dtoa.o)
                                                  /home/fx/.arduino15/packages/arduino/tools/arm-none-eabi-gcc/4.8.3-2014q1/bin/../lib/gcc/arm-none-eabi/4.8.3/../../../../arm-none-eabi/lib/armv7-m/libc.a(lib_a-svfprintf.o)
__aeabi_dcmpge                                    /home/fx/.arduino15/packages/arduino/tools/arm-none-eabi-gcc/4.8.3-2014q1/bin/../lib/gcc/arm-none-eabi/4.8.3/armv7-m/libgcc.a(_arm_cmpdf2.o)
                                                  /home/fx/.arduino15/packages/arduino/tools/arm-none-eabi-gcc/4.8.3-2014q1/bin/../lib/gcc/arm-none-eabi/4.8.3/../../../../arm-none-eabi/lib/armv7-m/libc.a(lib_a-dtoa.o)
                                                  /home/fx/Upwork/weather-node/output/core/core.a(Print.cpp.o)
__aeabi_dcmpgt                                    /home/fx/.arduino15/packages/arduino/tools/arm-none-eabi-gcc/4.8.3-2014q1/bin/../lib/gcc/arm-none-eabi/4.8.3/armv7-m/libgcc.a(_arm_cmpdf2.o)
                                                  /home/fx/.arduino15/packages/arduino/tools/arm-none-eabi-gcc/4.8.3-2014q1/bin/../lib/gcc/arm-none-eabi/4.8.3/../../../../arm-none-eabi/lib/armv7-m/libc.a(lib_a-dtoa.o)
                                                  /home/fx/Upwork/weather-node/output/core/core.a(Print.cpp.o)
                                                  /home/fx/Upwork/weather-node/output/libraries/DHT_sensor_library/DHT.cpp.o
__aeabi_dcmple                                    /home/fx/.arduino15/packages/arduino/tools/arm-none-eabi-gcc/4.8.3-2014q1/bin/../lib/gcc/arm-none-eabi/4.8.3/armv7-m/libgcc.a(_arm_cmpdf2.o)
                                                  /home/fx/Upwork/weather-node/output/core/core.a(Print.cpp.o)
__aeabi_dcmplt                                    /home/fx/.arduino15/packages/arduino/tools/arm-none-eabi-gcc/4.8.3-2014q1/bin/../lib/gcc/arm-none-eabi/4.8.3/armv7-m/libgcc.a(_arm_cmpdf2.o)
                                                  /home/fx/.arduino15/packages/arduino/tools/arm-none-eabi-gcc/4.8.3-2014q1/bin/../lib/gcc/arm-none-eabi/4.8.3/../../../../arm-none-eabi/lib/armv7-m/libc.a(lib_a-dtoa.o)
                                                  /home/fx/.arduino15/packages/arduino/tools/arm-none-eabi-gcc/4.8.3-2014q1/bin/../lib/gcc/arm-none-eabi/4.8.3/../../../../arm-none-eabi/lib/armv7-m/libc.a(lib_a-svfprintf.o)
                                                  /home/fx/.arduino15/packages/arduino/tools/arm-none-eabi-gcc/4.8.3-2014q1/bin/../lib/gcc/arm-none-eabi/4.8.3/armv7-m/libgcc.a(_fixdfdi.o)
                                                  /home/fx/.arduino15/packages/arduino/tools/arm-none-eabi-gcc/4.8.3-2014q1/bin/../lib/gcc/arm-none-eabi/4.8.3/../../../../arm-none-eabi/lib/armv7-m/libm.a(lib_a-w_sqrt.o)
                                                  /home/fx/Upwork/weather-node/output/core/core.a(Print.cpp.o)
__aeabi_ddiv                                      /home/fx/.arduino15/packages/arduino/tools/arm-none-eabi-gcc/4.8.3-2014q1/bin/../lib/gcc/arm-none-eabi/4.8.3/armv7-m/libgcc.a(_arm_muldivdf3.o)
                                                  /home/fx/.arduino15/packages/arduino/tools/arm-none-eabi-gcc/4.8.3-2014q1/bin/../lib/gcc/arm-none-eabi/4.8.3/../../../../arm-none-eabi/lib/armv7-m/libc.a(lib_a-mprec.o)
                                                  /home/fx/.arduino15/packages/arduino/tools/arm-none-eabi-gcc/4.8.3-2014q1/bin/../lib/gcc/arm-none-eabi/4.8.3/../../../../arm-none-eabi/lib/armv7-m/libc.a(lib_a-dtoa.o)
                                                  /home/fx/.arduino15/packages/arduino/tools/arm-none-eabi-gcc/4.8.3-2014q1/bin/../lib/gcc/arm-none-eabi/4.8.3/../../../../arm-none-eabi/lib/armv7-m/libm.a(lib_a-e_sqrt.o)
                                                  /home/fx/.arduino15/packages/arduino/tools/arm-none-eabi-gcc/4.8.3-2014q1/bin/../lib/gcc/arm-none-eabi/4.8.3/../../../../arm-none-eabi/lib/armv7-m/libm.a(lib_a-w_sqrt.o)
                                                  /home/fx/Upwork/weather-node/output/core/core.a(Print.cpp.o)
__aeabi_dmul                                      /home/fx/.arduino15/packages/arduino/tools/arm-none-eabi-gcc/4.8.3-2014q1/bin/../lib/gcc/arm-none-eabi/4.8.3/armv7-m/libgcc.a(_arm_muldivdf3.o)
                                                  /home/fx/.arduino15/packages/arduino/tools/arm-none-eabi-gcc/4.8.3-2014q1/bin/../lib/gcc/arm-none-eabi/4.8.3/../../../../arm-none-eabi/lib/armv7-m/libc.a(lib_a-mprec.o)
                                                  /home/fx/.arduino15/packages/arduino/tools/arm-none-eabi-gcc/4.8.3-2014q1/bin/../lib/gcc/arm-none-eabi/4.8.3/../../../../arm-none-eabi/lib/armv7-m/libc.a(lib_a-dtoa.o)
                                                  /home/fx/.arduino15/packages/arduino/tools/arm-none-eabi-gcc/4.8.3-2014q1/bin/../lib/gcc/arm-none-eabi/4.8.3/armv7-m/libgcc.a(_fixunsdfdi.o)
                                                  /home/fx/.arduino15/packages/arduino/tools/arm-none-eabi-gcc/4.8.3-2014q1/bin/../lib/gcc/arm-none-eabi/4.8.3/../../../../arm-none-eabi/lib/armv7-m/libm.a(lib_a-e_sqrt.o)
                                                  /home/fx/Upwork/weather-node/output/core/core.a(Print.cpp.o)
                                                  /home/fx/Upwork/weather-node/output/libraries/DHT_sensor_library/DHT.cpp.o
__aeabi_drsub                                     /home/fx/.arduino15/packages/arduino/tools/arm-none-eabi-gcc/4.8.3-2014q1/bin/../lib/gcc/arm-none-eabi/4.8.3/armv7-m/libgcc.a(_arm_addsubdf3.o)
__aeabi_dsub                                      /home/fx/.arduino15/packages/arduino/tools/arm-none-eabi-gcc/4.8.3-2014q1/bin/../lib/gcc/arm-none-eabi/4.8.3/armv7-m/libgcc.a(_arm_addsubdf3.o)
                                                  /home/fx/.arduino15/packages/arduino/tools/arm-none-eabi-gcc/4.8.3-2014q1/bin/../lib/gcc/arm-none-eabi/4.8.3/../../../../arm-none-eabi/lib/armv7-m/libc.a(lib_a-dtoa.o)
                                                  /home/fx/.arduino15/packages/arduino/tools/arm-none-eabi-gcc/4.8.3-2014q1/bin/../lib/gcc/arm-none-eabi/4.8.3/armv7-m/libgcc.a(_fixunsdfdi.o)
                                                  /home/fx/.arduino15/packages/arduino/tools/arm-none-eabi-gcc/4.8.3-2014q1/bin/../lib/gcc/arm-none-eabi/4.8.3/../../../../arm-none-eabi/lib/armv7-m/libm.a(lib_a-e_sqrt.o)
                                                  /home/fx/Upwork/weather-node/output/core/core.a(Print.cpp.o)
                                                  /home/fx/Upwork/weather-node/output/libraries/DHT_sensor_library/DHT.cpp.o
__aeabi_f2d                                       /home/fx/.arduino15/packages/arduino/tools/arm-none-eabi-gcc/4.8.3-2014q1/bin/../lib/gcc/arm-none-eabi/4.8.3/armv7-m/libgcc.a(_arm_addsubdf3.o)
                                                  /home/fx/Upwork/weather-node/output/libraries/Adafruit_Unified_Sensor/Adafruit_Sensor.cpp.o
                                                  /home/fx/Upwork/weather-node/output/libraries/DHT_sensor_library/DHT.cpp.o
                                                  /home/fx/Upwork/weather-node/output/sketch/weatherSIM808.ino.cpp.o
__aeabi_fadd                                      /home/fx/.arduino15/packages/arduino/tools/arm-none-eabi-gcc/4.8.3-2014q1/bin/../lib/gcc/arm-none-eabi/4.8.3/armv7-m/libgcc.a(_arm_addsubsf3.o)
__aeabi_fcmpeq                                    /home/fx/.arduino15/packages/arduino/tools/arm-none-eabi-gcc/4.8.3-2014q1/bin/../lib/gcc/arm-none-eabi/4.8.3/armv7-m/libgcc.a(_arm_cmpsf2.o)
__aeabi_fcmpge                                    /home/fx/.arduino15/packages/arduino/tools/arm-none-eabi-gcc/4.8.3-2014q1/bin/../lib/gcc/arm-none-eabi/4.8.3/armv7-m/libgcc.a(_arm_cmpsf2.o)
                                                  /home/fx/Upwork/weather-node/output/libraries/DHT_sensor_library/DHT.cpp.o
__aeabi_fcmpgt                                    /home/fx/.arduino15/packages/arduino/tools/arm-none-eabi-gcc/4.8.3-2014q1/bin/../lib/gcc/arm-none-eabi/4.8.3/armv7-m/libgcc.a(_arm_cmpsf2.o)
                                                  /home/fx/Upwork/weather-node/output/libraries/DHT_sensor_library/DHT.cpp.o
__aeabi_fcmple                                    /home/fx/.arduino15/packages/arduino/tools/arm-none-eabi-gcc/4.8.3-2014q1/bin/../lib/gcc/arm-none-eabi/4.8.3/armv7-m/libgcc.a(_arm_cmpsf2.o)
                                                  /home/fx/Upwork/weather-node/output/libraries/DHT_sensor_library/DHT.cpp.o
__aeabi_fcmplt                                    /home/fx/.arduino15/packages/arduino/tools/arm-none-eabi-gcc/4.8.3-2014q1/bin/../lib/gcc/arm-none-eabi/4.8.3/armv7-m/libgcc.a(_arm_cmpsf2.o)
                                                  /home/fx/Upwork/weather-node/output/libraries/DHT_sensor_library/DHT.cpp.o
__aeabi_frsub                                     /home/fx/.arduino15/packages/arduino/tools/arm-none-eabi-gcc/4.8.3-2014q1/bin/../lib/gcc/arm-none-eabi/4.8.3/armv7-m/libgcc.a(_arm_addsubsf3.o)
__aeabi_fsub                                      /home/fx/.arduino15/packages/arduino/tools/arm-none-eabi-gcc/4.8.3-2014q1/bin/../lib/gcc/arm-none-eabi/4.8.3/armv7-m/libgcc.a(_arm_addsubsf3.o)
                                                  /home/fx/Upwork/weather-node/output/libraries/DHT_sensor_library/DHT.cpp.o
__aeabi_i2d                                       /home/fx/.arduino15/packages/arduino/tools/arm-none-eabi-gcc/4.8.3-2014q1/bin/../lib/gcc/arm-none-eabi/4.8.3/armv7-m/libgcc.a(_arm_addsubdf3.o)
                                                  /home/fx/.arduino15/packages/arduino/tools/arm-none-eabi-gcc/4.8.3-2014q1/bin/../lib/gcc/arm-none-eabi/4.8.3/../../../../arm-none-eabi/lib/armv7-m/libc.a(lib_a-dtoa.o)
                                                  /home/fx/Upwork/weather-node/output/core/core.a(Print.cpp.o)
                                                  /home/fx/Upwork/weather-node/output/libraries/DHT_sensor_library/DHT.cpp.o
__aeabi_i2f                                       /home/fx/.arduino15/packages/arduino/tools/arm-none-eabi-gcc/4.8.3-2014q1/bin/../lib/gcc/arm-none-eabi/4.8.3/armv7-m/libgcc.a(_arm_addsubsf3.o)
                                                  /home/fx/Upwork/weather-node/output/sketch/weatherSIM808.ino.cpp.o
__aeabi_idiv0                                     /home/fx/.arduino15/packages/arduino/tools/arm-none-eabi-gcc/4.8.3-2014q1/bin/../lib/gcc/arm-none-eabi/4.8.3/armv7-m/libgcc.a(_dvmd_tls.o)
__aeabi_l2d                                       /home/fx/.arduino15/packages/arduino/tools/arm-none-eabi-gcc/4.8.3-2014q1/bin/../lib/gcc/arm-none-eabi/4.8.3/armv7-m/libgcc.a(_arm_addsubdf3.o)
                                                  /home/fx/Upwork/weather-node/output/core/core.a(Print.cpp.o)
__aeabi_l2f                                       /home/fx/.arduino15/packages/arduino/tools/arm-none-eabi-gcc/4.8.3-2014q1/bin/../lib/gcc/arm-none-eabi/4.8.3/armv7-m/libgcc.a(_arm_addsubsf3.o)
__aeabi_ldiv0                                     /home/fx/.arduino15/packages/arduino/tools/arm-none-eabi-gcc/4.8.3-2014q1/bin/../lib/gcc/arm-none-eabi/4.8.3/armv7-m/libgcc.a(_dvmd_tls.o)
                                                  /home/fx/.arduino15/packages/arduino/tools/arm-none-eabi-gcc/4.8.3-2014q1/bin/../lib/gcc/arm-none-eabi/4.8.3/armv7-m/libgcc.a(_aeabi_uldivmod.o)
__aeabi_ui2d                                      /home/fx/.arduino15/packages/arduino/tools/arm-none-eabi-gcc/4.8.3-2014q1/bin/../lib/gcc/arm-none-eabi/4.8.3/armv7-m/libgcc.a(_arm_addsubdf3.o)
                                                  /home/fx/.arduino15/packages/arduino/tools/arm-none-eabi-gcc/4.8.3-2014q1/bin/../lib/gcc/arm-none-eabi/4.8.3/../../../../arm-none-eabi/lib/armv7-m/libc.a(lib_a-dtoa.o)
                                                  /home/fx/.arduino15/packages/arduino/tools/arm-none-eabi-gcc/4.8.3-2014q1/bin/../lib/gcc/arm-none-eabi/4.8.3/armv7-m/libgcc.a(_fixunsdfdi.o)
__aeabi_ui2f                                      /home/fx/.arduino15/packages/arduino/tools/arm-none-eabi-gcc/4.8.3-2014q1/bin/../lib/gcc/arm-none-eabi/4.8.3/armv7-m/libgcc.a(_arm_addsubsf3.o)
                                                  /home/fx/Upwork/weather-node/output/libraries/DHT_sensor_library/DHT.cpp.o
__aeabi_ul2d                                      /home/fx/.arduino15/packages/arduino/tools/arm-none-eabi-gcc/4.8.3-2014q1/bin/../lib/gcc/arm-none-eabi/4.8.3/armv7-m/libgcc.a(_arm_addsubdf3.o)
__aeabi_ul2f                                      /home/fx/.arduino15/packages/arduino/tools/arm-none-eabi-gcc/4.8.3-2014q1/bin/../lib/gcc/arm-none-eabi/4.8.3/armv7-m/libgcc.a(_arm_addsubsf3.o)
__aeabi_uldivmod                                  /home/fx/.arduino15/packages/arduino/tools/arm-none-eabi-gcc/4.8.3-2014q1/bin/../lib/gcc/arm-none-eabi/4.8.3/armv7-m/libgcc.a(_aeabi_uldivmod.o)
                                                  /home/fx/.arduino15/packages/arduino/tools/arm-none-eabi-gcc/4.8.3-2014q1/bin/../lib/gcc/arm-none-eabi/4.8.3/../../../../arm-none-eabi/lib/armv7-m/libc.a(lib_a-svfiprintf.o)
                                                  /home/fx/.arduino15/packages/arduino/tools/arm-none-eabi-gcc/4.8.3-2014q1/bin/../lib/gcc/arm-none-eabi/4.8.3/../../../../arm-none-eabi/lib/armv7-m/libc.a(lib_a-svfprintf.o)
                                                  /home/fx/Upwork/weather-node/output/core/core.a(Print.cpp.o)
__any_on                                          /home/fx/.arduino15/packages/arduino/tools/arm-none-eabi-gcc/4.8.3-2014q1/bin/../lib/gcc/arm-none-eabi/4.8.3/../../../../arm-none-eabi/lib/armv7-m/libc.a(lib_a-mprec.o)
__assert_func                                     /home/fx/Upwork/weather-node/output/core/core.a(util.c.o)
__b2d                                             /home/fx/.arduino15/packages/arduino/tools/arm-none-eabi-gcc/4.8.3-2014q1/bin/../lib/gcc/arm-none-eabi/4.8.3/../../../../arm-none-eabi/lib/armv7-m/libc.a(lib_a-mprec.o)
__bss_end__                                       /home/fx/Upwork/weather-node/output/core/wirish/start_c.c.o
                                                  /home/fx/.arduino15/packages/arduino/tools/arm-none-eabi-gcc/4.8.3-2014q1/bin/../lib/gcc/arm-none-eabi/4.8.3/../../../../arm-none-eabi/lib/armv7-m/crt0.o
__bss_start__                                     /home/fx/Upwork/weather-node/output/core/wirish/start_c.c.o
                                                  /home/fx/.arduino15/packages/arduino/tools/arm-none-eabi-gcc/4.8.3-2014q1/bin/../lib/gcc/arm-none-eabi/4.8.3/../../../../arm-none-eabi/lib/armv7-m/crt0.o
__call_exitprocs                                  /home/fx/.arduino15/packages/arduino/tools/arm-none-eabi-gcc/4.8.3-2014q1/bin/../lib/gcc/arm-none-eabi/4.8.3/../../../../arm-none-eabi/lib/armv7-m/libc.a(lib_a-__call_atexit.o)
                                                  /home/fx/.arduino15/packages/arduino/tools/arm-none-eabi-gcc/4.8.3-2014q1/bin/../lib/gcc/arm-none-eabi/4.8.3/../../../../arm-none-eabi/lib/armv7-m/libc.a(lib_a-exit.o)
__cmpdf2                                          /home/fx/.arduino15/packages/arduino/tools/arm-none-eabi-gcc/4.8.3-2014q1/bin/../lib/gcc/arm-none-eabi/4.8.3/armv7-m/libgcc.a(_arm_cmpdf2.o)
__cmpsf2                                          /home/fx/.arduino15/packages/arduino/tools/arm-none-eabi-gcc/4.8.3-2014q1/bin/../lib/gcc/arm-none-eabi/4.8.3/armv7-m/libgcc.a(_arm_cmpsf2.o)
__copybits                                        /home/fx/.arduino15/packages/arduino/tools/arm-none-eabi-gcc/4.8.3-2014q1/bin/../lib/gcc/arm-none-eabi/4.8.3/../../../../arm-none-eabi/lib/armv7-m/libc.a(lib_a-mprec.o)
__cxa_demangle                                    /home/fx/Upwork/weather-node/output/core/core.a(cxxabi-compat.cpp.o)
__cxa_pure_virtual                                /home/fx/Upwork/weather-node/output/core/core.a(cxxabi-compat.cpp.o)
                                                  /home/fx/Upwork/weather-node/output/core/core.a(usb_serial.cpp.o)
                                                  /home/fx/Upwork/weather-node/output/core/core.a(Print.cpp.o)
                                                  /home/fx/Upwork/weather-node/output/core/core.a(HardwareSerial.cpp.o)
                                                  /home/fx/Upwork/weather-node/output/libraries/DHT_sensor_library/DHT_U.cpp.o
__d2b                                             /home/fx/.arduino15/packages/arduino/tools/arm-none-eabi-gcc/4.8.3-2014q1/bin/../lib/gcc/arm-none-eabi/4.8.3/../../../../arm-none-eabi/lib/armv7-m/libc.a(lib_a-mprec.o)
                                                  /home/fx/.arduino15/packages/arduino/tools/arm-none-eabi-gcc/4.8.3-2014q1/bin/../lib/gcc/arm-none-eabi/4.8.3/../../../../arm-none-eabi/lib/armv7-m/libc.a(lib_a-dtoa.o)
__data_end__                                      /home/fx/Upwork/weather-node/output/core/wirish/start_c.c.o
__data_start__                                    /home/fx/Upwork/weather-node/output/core/wirish/start_c.c.o
__default_handler                                 /home/fx/Upwork/weather-node/output/core/core.a(isrs.S.o)
__deregister_frame_info                           /home/fx/.arduino15/packages/arduino/tools/arm-none-eabi-gcc/4.8.3-2014q1/bin/../lib/gcc/arm-none-eabi/4.8.3/armv7-m/crtbegin.o
__divdf3                                          /home/fx/.arduino15/packages/arduino/tools/arm-none-eabi-gcc/4.8.3-2014q1/bin/../lib/gcc/arm-none-eabi/4.8.3/armv7-m/libgcc.a(_arm_muldivdf3.o)
__divdi3                                          /home/fx/.arduino15/packages/arduino/tools/arm-none-eabi-gcc/4.8.3-2014q1/bin/../lib/gcc/arm-none-eabi/4.8.3/armv7-m/libgcc.a(_divdi3.o)
                                                  /home/fx/.arduino15/packages/arduino/tools/arm-none-eabi-gcc/4.8.3-2014q1/bin/../lib/gcc/arm-none-eabi/4.8.3/armv7-m/libgcc.a(bpabi.o)
__dso_handle                                      /home/fx/.arduino15/packages/arduino/tools/arm-none-eabi-gcc/4.8.3-2014q1/bin/../lib/gcc/arm-none-eabi/4.8.3/armv7-m/crtbegin.o
__eqdf2                                           /home/fx/.arduino15/packages/arduino/tools/arm-none-eabi-gcc/4.8.3-2014q1/bin/../lib/gcc/arm-none-eabi/4.8.3/armv7-m/libgcc.a(_arm_cmpdf2.o)
__eqsf2                                           /home/fx/.arduino15/packages/arduino/tools/arm-none-eabi-gcc/4.8.3-2014q1/bin/../lib/gcc/arm-none-eabi/4.8.3/armv7-m/libgcc.a(_arm_cmpsf2.o)
__errno                                           /home/fx/.arduino15/packages/arduino/tools/arm-none-eabi-gcc/4.8.3-2014q1/bin/../lib/gcc/arm-none-eabi/4.8.3/../../../../arm-none-eabi/lib/armv7-m/libc.a(lib_a-errno.o)
                                                  /home/fx/.arduino15/packages/arduino/tools/arm-none-eabi-gcc/4.8.3-2014q1/bin/../lib/gcc/arm-none-eabi/4.8.3/../../../../arm-none-eabi/lib/armv7-m/libm.a(lib_a-w_sqrt.o)
                                                  /home/fx/Upwork/weather-node/output/core/wirish/syscalls.c.o
__error                                           /home/fx/Upwork/weather-node/output/core/core.a(util.c.o)
                                                  /home/fx/Upwork/weather-node/output/core/core.a(exc.S.o)
__exc_busfault                                    /home/fx/Upwork/weather-node/output/core/core.a(exc.S.o)
                                                  /home/fx/Upwork/weather-node/output/core/core.a(vector_table.S.o)
__exc_debug_monitor                               /home/fx/Upwork/weather-node/output/core/core.a(isrs.S.o)
                                                  /home/fx/Upwork/weather-node/output/core/core.a(vector_table.S.o)
__exc_hardfault                                   /home/fx/Upwork/weather-node/output/core/core.a(exc.S.o)
                                                  /home/fx/Upwork/weather-node/output/core/core.a(vector_table.S.o)
__exc_memmanage                                   /home/fx/Upwork/weather-node/output/core/core.a(exc.S.o)
                                                  /home/fx/Upwork/weather-node/output/core/core.a(vector_table.S.o)
__exc_nmi                                         /home/fx/Upwork/weather-node/output/core/core.a(exc.S.o)
                                                  /home/fx/Upwork/weather-node/output/core/core.a(vector_table.S.o)
__exc_pendsv                                      /home/fx/Upwork/weather-node/output/libraries/FreeRTOS821/utility/port.c.o
                                                  /home/fx/Upwork/weather-node/output/core/core.a(vector_table.S.o)
__exc_reset                                       /home/fx/Upwork/weather-node/output/core/core.a(vector_table.S.o)
__exc_svc                                         /home/fx/Upwork/weather-node/output/libraries/FreeRTOS821/utility/port.c.o
                                                  /home/fx/Upwork/weather-node/output/core/core.a(vector_table.S.o)
__exc_systick                                     /home/fx/Upwork/weather-node/output/core/core.a(systick.c.o)
                                                  /home/fx/Upwork/weather-node/output/core/core.a(vector_table.S.o)
__exc_usagefault                                  /home/fx/Upwork/weather-node/output/core/core.a(exc.S.o)
                                                  /home/fx/Upwork/weather-node/output/core/core.a(vector_table.S.o)
__extendsfdf2                                     /home/fx/.arduino15/packages/arduino/tools/arm-none-eabi-gcc/4.8.3-2014q1/bin/../lib/gcc/arm-none-eabi/4.8.3/armv7-m/libgcc.a(_arm_addsubdf3.o)
__fdlib_version                                   /home/fx/.arduino15/packages/arduino/tools/arm-none-eabi-gcc/4.8.3-2014q1/bin/../lib/gcc/arm-none-eabi/4.8.3/../../../../arm-none-eabi/lib/armv7-m/libm.a(lib_a-s_lib_ver.o)
                                                  /home/fx/.arduino15/packages/arduino/tools/arm-none-eabi-gcc/4.8.3-2014q1/bin/../lib/gcc/arm-none-eabi/4.8.3/../../../../arm-none-eabi/lib/armv7-m/libm.a(lib_a-w_sqrt.o)
__fini_array_end                                  /home/fx/.arduino15/packages/arduino/tools/arm-none-eabi-gcc/4.8.3-2014q1/bin/../lib/gcc/arm-none-eabi/4.8.3/../../../../arm-none-eabi/lib/armv7-m/libc.a(lib_a-fini.o)
__fini_array_start                                /home/fx/.arduino15/packages/arduino/tools/arm-none-eabi-gcc/4.8.3-2014q1/bin/../lib/gcc/arm-none-eabi/4.8.3/../../../../arm-none-eabi/lib/armv7-m/libc.a(lib_a-fini.o)
__fixdfdi                                         /home/fx/.arduino15/packages/arduino/tools/arm-none-eabi-gcc/4.8.3-2014q1/bin/../lib/gcc/arm-none-eabi/4.8.3/armv7-m/libgcc.a(_fixdfdi.o)
__fixdfsi                                         /home/fx/.arduino15/packages/arduino/tools/arm-none-eabi-gcc/4.8.3-2014q1/bin/../lib/gcc/arm-none-eabi/4.8.3/armv7-m/libgcc.a(_arm_fixdfsi.o)
__fixunsdfdi                                      /home/fx/.arduino15/packages/arduino/tools/arm-none-eabi-gcc/4.8.3-2014q1/bin/../lib/gcc/arm-none-eabi/4.8.3/armv7-m/libgcc.a(_fixunsdfdi.o)
__fixunsdfsi                                      /home/fx/.arduino15/packages/arduino/tools/arm-none-eabi-gcc/4.8.3-2014q1/bin/../lib/gcc/arm-none-eabi/4.8.3/armv7-m/libgcc.a(_arm_fixunsdfsi.o)
__floatdidf                                       /home/fx/.arduino15/packages/arduino/tools/arm-none-eabi-gcc/4.8.3-2014q1/bin/../lib/gcc/arm-none-eabi/4.8.3/armv7-m/libgcc.a(_arm_addsubdf3.o)
__floatdisf                                       /home/fx/.arduino15/packages/arduino/tools/arm-none-eabi-gcc/4.8.3-2014q1/bin/../lib/gcc/arm-none-eabi/4.8.3/armv7-m/libgcc.a(_arm_addsubsf3.o)
__floatsidf                                       /home/fx/.arduino15/packages/arduino/tools/arm-none-eabi-gcc/4.8.3-2014q1/bin/../lib/gcc/arm-none-eabi/4.8.3/armv7-m/libgcc.a(_arm_addsubdf3.o)
__floatsisf                                       /home/fx/.arduino15/packages/arduino/tools/arm-none-eabi-gcc/4.8.3-2014q1/bin/../lib/gcc/arm-none-eabi/4.8.3/armv7-m/libgcc.a(_arm_addsubsf3.o)
__floatundidf                                     /home/fx/.arduino15/packages/arduino/tools/arm-none-eabi-gcc/4.8.3-2014q1/bin/../lib/gcc/arm-none-eabi/4.8.3/armv7-m/libgcc.a(_arm_addsubdf3.o)
__floatundisf                                     /home/fx/.arduino15/packages/arduino/tools/arm-none-eabi-gcc/4.8.3-2014q1/bin/../lib/gcc/arm-none-eabi/4.8.3/armv7-m/libgcc.a(_arm_addsubsf3.o)
__floatunsidf                                     /home/fx/.arduino15/packages/arduino/tools/arm-none-eabi-gcc/4.8.3-2014q1/bin/../lib/gcc/arm-none-eabi/4.8.3/armv7-m/libgcc.a(_arm_addsubdf3.o)
__floatunsisf                                     /home/fx/.arduino15/packages/arduino/tools/arm-none-eabi-gcc/4.8.3-2014q1/bin/../lib/gcc/arm-none-eabi/4.8.3/armv7-m/libgcc.a(_arm_addsubsf3.o)
__fpclassifyd                                     /home/fx/.arduino15/packages/arduino/tools/arm-none-eabi-gcc/4.8.3-2014q1/bin/../lib/gcc/arm-none-eabi/4.8.3/../../../../arm-none-eabi/lib/armv7-m/libm.a(lib_a-s_fpclassify.o)
                                                  /home/fx/.arduino15/packages/arduino/tools/arm-none-eabi-gcc/4.8.3-2014q1/bin/../lib/gcc/arm-none-eabi/4.8.3/../../../../arm-none-eabi/lib/armv7-m/libc.a(lib_a-svfprintf.o)
                                                  /home/fx/.arduino15/packages/arduino/tools/arm-none-eabi-gcc/4.8.3-2014q1/bin/../lib/gcc/arm-none-eabi/4.8.3/../../../../arm-none-eabi/lib/armv7-m/libm.a(lib_a-w_sqrt.o)
__gedf2                                           /home/fx/.arduino15/packages/arduino/tools/arm-none-eabi-gcc/4.8.3-2014q1/bin/../lib/gcc/arm-none-eabi/4.8.3/armv7-m/libgcc.a(_arm_cmpdf2.o)
__gesf2                                           /home/fx/.arduino15/packages/arduino/tools/arm-none-eabi-gcc/4.8.3-2014q1/bin/../lib/gcc/arm-none-eabi/4.8.3/armv7-m/libgcc.a(_arm_cmpsf2.o)
__gnu_ldivmod_helper                              /home/fx/.arduino15/packages/arduino/tools/arm-none-eabi-gcc/4.8.3-2014q1/bin/../lib/gcc/arm-none-eabi/4.8.3/armv7-m/libgcc.a(bpabi.o)
__gnu_uldivmod_helper                             /home/fx/.arduino15/packages/arduino/tools/arm-none-eabi-gcc/4.8.3-2014q1/bin/../lib/gcc/arm-none-eabi/4.8.3/armv7-m/libgcc.a(bpabi.o)
                                                  /home/fx/.arduino15/packages/arduino/tools/arm-none-eabi-gcc/4.8.3-2014q1/bin/../lib/gcc/arm-none-eabi/4.8.3/armv7-m/libgcc.a(_aeabi_uldivmod.o)
__gtdf2                                           /home/fx/.arduino15/packages/arduino/tools/arm-none-eabi-gcc/4.8.3-2014q1/bin/../lib/gcc/arm-none-eabi/4.8.3/armv7-m/libgcc.a(_arm_cmpdf2.o)
__gtsf2                                           /home/fx/.arduino15/packages/arduino/tools/arm-none-eabi-gcc/4.8.3-2014q1/bin/../lib/gcc/arm-none-eabi/4.8.3/armv7-m/libgcc.a(_arm_cmpsf2.o)
__hi0bits                                         /home/fx/.arduino15/packages/arduino/tools/arm-none-eabi-gcc/4.8.3-2014q1/bin/../lib/gcc/arm-none-eabi/4.8.3/../../../../arm-none-eabi/lib/armv7-m/libc.a(lib_a-mprec.o)
                                                  /home/fx/.arduino15/packages/arduino/tools/arm-none-eabi-gcc/4.8.3-2014q1/bin/../lib/gcc/arm-none-eabi/4.8.3/../../../../arm-none-eabi/lib/armv7-m/libc.a(lib_a-dtoa.o)
__i2b                                             /home/fx/.arduino15/packages/arduino/tools/arm-none-eabi-gcc/4.8.3-2014q1/bin/../lib/gcc/arm-none-eabi/4.8.3/../../../../arm-none-eabi/lib/armv7-m/libc.a(lib_a-mprec.o)
                                                  /home/fx/.arduino15/packages/arduino/tools/arm-none-eabi-gcc/4.8.3-2014q1/bin/../lib/gcc/arm-none-eabi/4.8.3/../../../../arm-none-eabi/lib/armv7-m/libc.a(lib_a-dtoa.o)
__ieee754_sqrt                                    /home/fx/.arduino15/packages/arduino/tools/arm-none-eabi-gcc/4.8.3-2014q1/bin/../lib/gcc/arm-none-eabi/4.8.3/../../../../arm-none-eabi/lib/armv7-m/libm.a(lib_a-e_sqrt.o)
                                                  /home/fx/.arduino15/packages/arduino/tools/arm-none-eabi-gcc/4.8.3-2014q1/bin/../lib/gcc/arm-none-eabi/4.8.3/../../../../arm-none-eabi/lib/armv7-m/libm.a(lib_a-w_sqrt.o)
__init_array_end                                  /home/fx/.arduino15/packages/arduino/tools/arm-none-eabi-gcc/4.8.3-2014q1/bin/../lib/gcc/arm-none-eabi/4.8.3/../../../../arm-none-eabi/lib/armv7-m/libc.a(lib_a-init.o)
__init_array_start                                /home/fx/.arduino15/packages/arduino/tools/arm-none-eabi-gcc/4.8.3-2014q1/bin/../lib/gcc/arm-none-eabi/4.8.3/../../../../arm-none-eabi/lib/armv7-m/libc.a(lib_a-init.o)
__irq_adc                                         /home/fx/Upwork/weather-node/output/core/core.a(adc_f1.c.o)
                                                  /home/fx/Upwork/weather-node/output/core/core.a(vector_table.S.o)
__irq_can_rx1                                     /home/fx/Upwork/weather-node/output/core/core.a(isrs.S.o)
                                                  /home/fx/Upwork/weather-node/output/core/core.a(vector_table.S.o)
__irq_can_sce                                     /home/fx/Upwork/weather-node/output/core/core.a(isrs.S.o)
                                                  /home/fx/Upwork/weather-node/output/core/core.a(vector_table.S.o)
__irq_dma1_channel1                               /home/fx/Upwork/weather-node/output/core/core.a(dma_f1.c.o)
                                                  /home/fx/Upwork/weather-node/output/core/core.a(vector_table.S.o)
__irq_dma1_channel2                               /home/fx/Upwork/weather-node/output/core/core.a(dma_f1.c.o)
                                                  /home/fx/Upwork/weather-node/output/core/core.a(vector_table.S.o)
__irq_dma1_channel3                               /home/fx/Upwork/weather-node/output/core/core.a(dma_f1.c.o)
                                                  /home/fx/Upwork/weather-node/output/core/core.a(vector_table.S.o)
__irq_dma1_channel4                               /home/fx/Upwork/weather-node/output/core/core.a(dma_f1.c.o)
                                                  /home/fx/Upwork/weather-node/output/core/core.a(vector_table.S.o)
__irq_dma1_channel5                               /home/fx/Upwork/weather-node/output/core/core.a(dma_f1.c.o)
                                                  /home/fx/Upwork/weather-node/output/core/core.a(vector_table.S.o)
__irq_dma1_channel6                               /home/fx/Upwork/weather-node/output/core/core.a(dma_f1.c.o)
                                                  /home/fx/Upwork/weather-node/output/core/core.a(vector_table.S.o)
__irq_dma1_channel7                               /home/fx/Upwork/weather-node/output/core/core.a(dma_f1.c.o)
                                                  /home/fx/Upwork/weather-node/output/core/core.a(vector_table.S.o)
__irq_exti0                                       /home/fx/Upwork/weather-node/output/core/core.a(exti.c.o)
                                                  /home/fx/Upwork/weather-node/output/core/core.a(vector_table.S.o)
__irq_exti1                                       /home/fx/Upwork/weather-node/output/core/core.a(exti.c.o)
                                                  /home/fx/Upwork/weather-node/output/core/core.a(vector_table.S.o)
__irq_exti15_10                                   /home/fx/Upwork/weather-node/output/core/core.a(exti.c.o)
                                                  /home/fx/Upwork/weather-node/output/core/core.a(vector_table.S.o)
__irq_exti2                                       /home/fx/Upwork/weather-node/output/core/core.a(exti.c.o)
                                                  /home/fx/Upwork/weather-node/output/core/core.a(vector_table.S.o)
__irq_exti3                                       /home/fx/Upwork/weather-node/output/core/core.a(exti.c.o)
                                                  /home/fx/Upwork/weather-node/output/core/core.a(vector_table.S.o)
__irq_exti4                                       /home/fx/Upwork/weather-node/output/core/core.a(exti.c.o)
                                                  /home/fx/Upwork/weather-node/output/core/core.a(vector_table.S.o)
__irq_exti9_5                                     /home/fx/Upwork/weather-node/output/core/core.a(exti.c.o)
                                                  /home/fx/Upwork/weather-node/output/core/core.a(vector_table.S.o)
__irq_flash                                       /home/fx/Upwork/weather-node/output/core/core.a(isrs.S.o)
                                                  /home/fx/Upwork/weather-node/output/core/core.a(vector_table.S.o)
__irq_i2c1_er                                     /home/fx/Upwork/weather-node/output/core/core.a(i2c_f1.c.o)
                                                  /home/fx/Upwork/weather-node/output/core/core.a(vector_table.S.o)
__irq_i2c1_ev                                     /home/fx/Upwork/weather-node/output/core/core.a(i2c_f1.c.o)
                                                  /home/fx/Upwork/weather-node/output/core/core.a(vector_table.S.o)
__irq_i2c2_er                                     /home/fx/Upwork/weather-node/output/core/core.a(i2c_f1.c.o)
                                                  /home/fx/Upwork/weather-node/output/core/core.a(vector_table.S.o)
__irq_i2c2_ev                                     /home/fx/Upwork/weather-node/output/core/core.a(i2c_f1.c.o)
                                                  /home/fx/Upwork/weather-node/output/core/core.a(vector_table.S.o)
__irq_pvd                                         /home/fx/Upwork/weather-node/output/core/core.a(isrs.S.o)
                                                  /home/fx/Upwork/weather-node/output/core/core.a(vector_table.S.o)
__irq_rcc                                         /home/fx/Upwork/weather-node/output/core/core.a(isrs.S.o)
                                                  /home/fx/Upwork/weather-node/output/core/core.a(vector_table.S.o)
__irq_rtc                                         /home/fx/Upwork/weather-node/output/core/core.a(isrs.S.o)
                                                  /home/fx/Upwork/weather-node/output/core/core.a(vector_table.S.o)
__irq_rtcalarm                                    /home/fx/Upwork/weather-node/output/core/core.a(isrs.S.o)
                                                  /home/fx/Upwork/weather-node/output/core/core.a(vector_table.S.o)
__irq_spi1                                        /home/fx/Upwork/weather-node/output/core/core.a(isrs.S.o)
                                                  /home/fx/Upwork/weather-node/output/core/core.a(vector_table.S.o)
__irq_spi2                                        /home/fx/Upwork/weather-node/output/core/core.a(isrs.S.o)
                                                  /home/fx/Upwork/weather-node/output/core/core.a(vector_table.S.o)
__irq_tamper                                      /home/fx/Upwork/weather-node/output/core/core.a(isrs.S.o)
                                                  /home/fx/Upwork/weather-node/output/core/core.a(vector_table.S.o)
__irq_tim1_brk                                    /home/fx/Upwork/weather-node/output/core/core.a(timer.c.o)
                                                  /home/fx/Upwork/weather-node/output/core/core.a(vector_table.S.o)
__irq_tim1_cc                                     /home/fx/Upwork/weather-node/output/core/core.a(timer.c.o)
                                                  /home/fx/Upwork/weather-node/output/core/core.a(vector_table.S.o)
__irq_tim1_trg_com                                /home/fx/Upwork/weather-node/output/core/core.a(timer.c.o)
                                                  /home/fx/Upwork/weather-node/output/core/core.a(vector_table.S.o)
__irq_tim1_up                                     /home/fx/Upwork/weather-node/output/core/core.a(timer.c.o)
                                                  /home/fx/Upwork/weather-node/output/core/core.a(vector_table.S.o)
__irq_tim2                                        /home/fx/Upwork/weather-node/output/core/core.a(timer.c.o)
                                                  /home/fx/Upwork/weather-node/output/core/core.a(vector_table.S.o)
__irq_tim3                                        /home/fx/Upwork/weather-node/output/core/core.a(timer.c.o)
                                                  /home/fx/Upwork/weather-node/output/core/core.a(vector_table.S.o)
__irq_tim4                                        /home/fx/Upwork/weather-node/output/core/core.a(timer.c.o)
                                                  /home/fx/Upwork/weather-node/output/core/core.a(vector_table.S.o)
__irq_usart1                                      /home/fx/Upwork/weather-node/output/core/core.a(usart_f1.c.o)
                                                  /home/fx/Upwork/weather-node/output/core/core.a(vector_table.S.o)
__irq_usart2                                      /home/fx/Upwork/weather-node/output/core/core.a(usart_f1.c.o)
                                                  /home/fx/Upwork/weather-node/output/core/core.a(vector_table.S.o)
__irq_usart3                                      /home/fx/Upwork/weather-node/output/core/core.a(usart_f1.c.o)
                                                  /home/fx/Upwork/weather-node/output/core/core.a(vector_table.S.o)
__irq_usb_hp_can_tx                               /home/fx/Upwork/weather-node/output/core/core.a(isrs.S.o)
                                                  /home/fx/Upwork/weather-node/output/core/core.a(vector_table.S.o)
__irq_usb_lp_can_rx0                              /home/fx/Upwork/weather-node/output/core/core.a(usb.c.o)
                                                  /home/fx/Upwork/weather-node/output/core/core.a(vector_table.S.o)
__irq_usbwakeup                                   /home/fx/Upwork/weather-node/output/core/core.a(isrs.S.o)
                                                  /home/fx/Upwork/weather-node/output/core/core.a(vector_table.S.o)
__irq_wwdg                                        /home/fx/Upwork/weather-node/output/core/core.a(isrs.S.o)
                                                  /home/fx/Upwork/weather-node/output/core/core.a(vector_table.S.o)
__ledf2                                           /home/fx/.arduino15/packages/arduino/tools/arm-none-eabi-gcc/4.8.3-2014q1/bin/../lib/gcc/arm-none-eabi/4.8.3/armv7-m/libgcc.a(_arm_cmpdf2.o)
__lesf2                                           /home/fx/.arduino15/packages/arduino/tools/arm-none-eabi-gcc/4.8.3-2014q1/bin/../lib/gcc/arm-none-eabi/4.8.3/armv7-m/libgcc.a(_arm_cmpsf2.o)
__libc_fini                                       /home/fx/.arduino15/packages/arduino/tools/arm-none-eabi-gcc/4.8.3-2014q1/bin/../lib/gcc/arm-none-eabi/4.8.3/../../../../arm-none-eabi/lib/armv7-m/libc.a(lib_a-__call_atexit.o)
__libc_fini_array                                 /home/fx/.arduino15/packages/arduino/tools/arm-none-eabi-gcc/4.8.3-2014q1/bin/../lib/gcc/arm-none-eabi/4.8.3/../../../../arm-none-eabi/lib/armv7-m/libc.a(lib_a-fini.o)
                                                  /home/fx/.arduino15/packages/arduino/tools/arm-none-eabi-gcc/4.8.3-2014q1/bin/../lib/gcc/arm-none-eabi/4.8.3/../../../../arm-none-eabi/lib/armv7-m/libc.a(lib_a-__call_atexit.o)
                                                  /home/fx/.arduino15/packages/arduino/tools/arm-none-eabi-gcc/4.8.3-2014q1/bin/../lib/gcc/arm-none-eabi/4.8.3/../../../../arm-none-eabi/lib/armv7-m/crt0.o
__libc_init_array                                 /home/fx/.arduino15/packages/arduino/tools/arm-none-eabi-gcc/4.8.3-2014q1/bin/../lib/gcc/arm-none-eabi/4.8.3/../../../../arm-none-eabi/lib/armv7-m/libc.a(lib_a-init.o)
                                                  /home/fx/Upwork/weather-node/output/core/wirish/start_c.c.o
                                                  /home/fx/.arduino15/packages/arduino/tools/arm-none-eabi-gcc/4.8.3-2014q1/bin/../lib/gcc/arm-none-eabi/4.8.3/../../../../arm-none-eabi/lib/armv7-m/crt0.o
__lm_enable_error_usart                           /home/fx/Upwork/weather-node/output/core/core.a(util.c.o)
__lm_error                                        /home/fx/Upwork/weather-node/output/core/core.a(util.c.o)
__lo0bits                                         /home/fx/.arduino15/packages/arduino/tools/arm-none-eabi-gcc/4.8.3-2014q1/bin/../lib/gcc/arm-none-eabi/4.8.3/../../../../arm-none-eabi/lib/armv7-m/libc.a(lib_a-mprec.o)
__locale_charset                                  /home/fx/.arduino15/packages/arduino/tools/arm-none-eabi-gcc/4.8.3-2014q1/bin/../lib/gcc/arm-none-eabi/4.8.3/../../../../arm-none-eabi/lib/armv7-m/libc.a(lib_a-locale.o)
__locale_cjk_lang                                 /home/fx/.arduino15/packages/arduino/tools/arm-none-eabi-gcc/4.8.3-2014q1/bin/../lib/gcc/arm-none-eabi/4.8.3/../../../../arm-none-eabi/lib/armv7-m/libc.a(lib_a-locale.o)
__locale_mb_cur_max                               /home/fx/.arduino15/packages/arduino/tools/arm-none-eabi-gcc/4.8.3-2014q1/bin/../lib/gcc/arm-none-eabi/4.8.3/../../../../arm-none-eabi/lib/armv7-m/libc.a(lib_a-locale.o)
__locale_msgcharset                               /home/fx/.arduino15/packages/arduino/tools/arm-none-eabi-gcc/4.8.3-2014q1/bin/../lib/gcc/arm-none-eabi/4.8.3/../../../../arm-none-eabi/lib/armv7-m/libc.a(lib_a-locale.o)
__lshift                                          /home/fx/.arduino15/packages/arduino/tools/arm-none-eabi-gcc/4.8.3-2014q1/bin/../lib/gcc/arm-none-eabi/4.8.3/../../../../arm-none-eabi/lib/armv7-m/libc.a(lib_a-mprec.o)
                                                  /home/fx/.arduino15/packages/arduino/tools/arm-none-eabi-gcc/4.8.3-2014q1/bin/../lib/gcc/arm-none-eabi/4.8.3/../../../../arm-none-eabi/lib/armv7-m/libc.a(lib_a-dtoa.o)
__ltdf2                                           /home/fx/.arduino15/packages/arduino/tools/arm-none-eabi-gcc/4.8.3-2014q1/bin/../lib/gcc/arm-none-eabi/4.8.3/armv7-m/libgcc.a(_arm_cmpdf2.o)
__ltsf2                                           /home/fx/.arduino15/packages/arduino/tools/arm-none-eabi-gcc/4.8.3-2014q1/bin/../lib/gcc/arm-none-eabi/4.8.3/armv7-m/libgcc.a(_arm_cmpsf2.o)
__malloc_av_                                      /home/fx/.arduino15/packages/arduino/tools/arm-none-eabi-gcc/4.8.3-2014q1/bin/../lib/gcc/arm-none-eabi/4.8.3/../../../../arm-none-eabi/lib/armv7-m/libc.a(lib_a-mallocr.o)
                                                  /home/fx/.arduino15/packages/arduino/tools/arm-none-eabi-gcc/4.8.3-2014q1/bin/../lib/gcc/arm-none-eabi/4.8.3/../../../../arm-none-eabi/lib/armv7-m/libc.a(lib_a-reallocr.o)
                                                  /home/fx/.arduino15/packages/arduino/tools/arm-none-eabi-gcc/4.8.3-2014q1/bin/../lib/gcc/arm-none-eabi/4.8.3/../../../../arm-none-eabi/lib/armv7-m/libc.a(lib_a-freer.o)
__malloc_current_mallinfo                         /home/fx/.arduino15/packages/arduino/tools/arm-none-eabi-gcc/4.8.3-2014q1/bin/../lib/gcc/arm-none-eabi/4.8.3/../../../../arm-none-eabi/lib/armv7-m/libc.a(lib_a-mallocr.o)
                                                  /home/fx/.arduino15/packages/arduino/tools/arm-none-eabi-gcc/4.8.3-2014q1/bin/../lib/gcc/arm-none-eabi/4.8.3/../../../../arm-none-eabi/lib/armv7-m/libc.a(lib_a-freer.o)
__malloc_lock                                     /home/fx/.arduino15/packages/arduino/tools/arm-none-eabi-gcc/4.8.3-2014q1/bin/../lib/gcc/arm-none-eabi/4.8.3/../../../../arm-none-eabi/lib/armv7-m/libc.a(lib_a-mlock.o)
                                                  /home/fx/.arduino15/packages/arduino/tools/arm-none-eabi-gcc/4.8.3-2014q1/bin/../lib/gcc/arm-none-eabi/4.8.3/../../../../arm-none-eabi/lib/armv7-m/libc.a(lib_a-reallocr.o)
                                                  /home/fx/.arduino15/packages/arduino/tools/arm-none-eabi-gcc/4.8.3-2014q1/bin/../lib/gcc/arm-none-eabi/4.8.3/../../../../arm-none-eabi/lib/armv7-m/libc.a(lib_a-freer.o)
                                                  /home/fx/.arduino15/packages/arduino/tools/arm-none-eabi-gcc/4.8.3-2014q1/bin/../lib/gcc/arm-none-eabi/4.8.3/../../../../arm-none-eabi/lib/armv7-m/libc.a(lib_a-mallocr.o)
__malloc_max_sbrked_mem                           /home/fx/.arduino15/packages/arduino/tools/arm-none-eabi-gcc/4.8.3-2014q1/bin/../lib/gcc/arm-none-eabi/4.8.3/../../../../arm-none-eabi/lib/armv7-m/libc.a(lib_a-mallocr.o)
__malloc_max_total_mem                            /home/fx/.arduino15/packages/arduino/tools/arm-none-eabi-gcc/4.8.3-2014q1/bin/../lib/gcc/arm-none-eabi/4.8.3/../../../../arm-none-eabi/lib/armv7-m/libc.a(lib_a-mallocr.o)
__malloc_sbrk_base                                /home/fx/.arduino15/packages/arduino/tools/arm-none-eabi-gcc/4.8.3-2014q1/bin/../lib/gcc/arm-none-eabi/4.8.3/../../../../arm-none-eabi/lib/armv7-m/libc.a(lib_a-mallocr.o)
                                                  /home/fx/.arduino15/packages/arduino/tools/arm-none-eabi-gcc/4.8.3-2014q1/bin/../lib/gcc/arm-none-eabi/4.8.3/../../../../arm-none-eabi/lib/armv7-m/libc.a(lib_a-freer.o)
__malloc_top_pad                                  /home/fx/.arduino15/packages/arduino/tools/arm-none-eabi-gcc/4.8.3-2014q1/bin/../lib/gcc/arm-none-eabi/4.8.3/../../../../arm-none-eabi/lib/armv7-m/libc.a(lib_a-mallocr.o)
                                                  /home/fx/.arduino15/packages/arduino/tools/arm-none-eabi-gcc/4.8.3-2014q1/bin/../lib/gcc/arm-none-eabi/4.8.3/../../../../arm-none-eabi/lib/armv7-m/libc.a(lib_a-freer.o)
__malloc_trim_threshold                           /home/fx/.arduino15/packages/arduino/tools/arm-none-eabi-gcc/4.8.3-2014q1/bin/../lib/gcc/arm-none-eabi/4.8.3/../../../../arm-none-eabi/lib/armv7-m/libc.a(lib_a-mallocr.o)
                                                  /home/fx/.arduino15/packages/arduino/tools/arm-none-eabi-gcc/4.8.3-2014q1/bin/../lib/gcc/arm-none-eabi/4.8.3/../../../../arm-none-eabi/lib/armv7-m/libc.a(lib_a-freer.o)
__malloc_unlock                                   /home/fx/.arduino15/packages/arduino/tools/arm-none-eabi-gcc/4.8.3-2014q1/bin/../lib/gcc/arm-none-eabi/4.8.3/../../../../arm-none-eabi/lib/armv7-m/libc.a(lib_a-mlock.o)
                                                  /home/fx/.arduino15/packages/arduino/tools/arm-none-eabi-gcc/4.8.3-2014q1/bin/../lib/gcc/arm-none-eabi/4.8.3/../../../../arm-none-eabi/lib/armv7-m/libc.a(lib_a-reallocr.o)
                                                  /home/fx/.arduino15/packages/arduino/tools/arm-none-eabi-gcc/4.8.3-2014q1/bin/../lib/gcc/arm-none-eabi/4.8.3/../../../../arm-none-eabi/lib/armv7-m/libc.a(lib_a-freer.o)
                                                  /home/fx/.arduino15/packages/arduino/tools/arm-none-eabi-gcc/4.8.3-2014q1/bin/../lib/gcc/arm-none-eabi/4.8.3/../../../../arm-none-eabi/lib/armv7-m/libc.a(lib_a-mallocr.o)
__mb_cur_max                                      /home/fx/.arduino15/packages/arduino/tools/arm-none-eabi-gcc/4.8.3-2014q1/bin/../lib/gcc/arm-none-eabi/4.8.3/../../../../arm-none-eabi/lib/armv7-m/libc.a(lib_a-locale.o)
__mcmp                                            /home/fx/.arduino15/packages/arduino/tools/arm-none-eabi-gcc/4.8.3-2014q1/bin/../lib/gcc/arm-none-eabi/4.8.3/../../../../arm-none-eabi/lib/armv7-m/libc.a(lib_a-mprec.o)
                                                  /home/fx/.arduino15/packages/arduino/tools/arm-none-eabi-gcc/4.8.3-2014q1/bin/../lib/gcc/arm-none-eabi/4.8.3/../../../../arm-none-eabi/lib/armv7-m/libc.a(lib_a-dtoa.o)
__mdiff                                           /home/fx/.arduino15/packages/arduino/tools/arm-none-eabi-gcc/4.8.3-2014q1/bin/../lib/gcc/arm-none-eabi/4.8.3/../../../../arm-none-eabi/lib/armv7-m/libc.a(lib_a-mprec.o)
                                                  /home/fx/.arduino15/packages/arduino/tools/arm-none-eabi-gcc/4.8.3-2014q1/bin/../lib/gcc/arm-none-eabi/4.8.3/../../../../arm-none-eabi/lib/armv7-m/libc.a(lib_a-dtoa.o)
__mlocale_changed                                 /home/fx/.arduino15/packages/arduino/tools/arm-none-eabi-gcc/4.8.3-2014q1/bin/../lib/gcc/arm-none-eabi/4.8.3/../../../../arm-none-eabi/lib/armv7-m/libc.a(lib_a-locale.o)
__mprec_bigtens                                   /home/fx/.arduino15/packages/arduino/tools/arm-none-eabi-gcc/4.8.3-2014q1/bin/../lib/gcc/arm-none-eabi/4.8.3/../../../../arm-none-eabi/lib/armv7-m/libc.a(lib_a-mprec.o)
                                                  /home/fx/.arduino15/packages/arduino/tools/arm-none-eabi-gcc/4.8.3-2014q1/bin/../lib/gcc/arm-none-eabi/4.8.3/../../../../arm-none-eabi/lib/armv7-m/libc.a(lib_a-dtoa.o)
__mprec_tens                                      /home/fx/.arduino15/packages/arduino/tools/arm-none-eabi-gcc/4.8.3-2014q1/bin/../lib/gcc/arm-none-eabi/4.8.3/../../../../arm-none-eabi/lib/armv7-m/libc.a(lib_a-mprec.o)
                                                  /home/fx/.arduino15/packages/arduino/tools/arm-none-eabi-gcc/4.8.3-2014q1/bin/../lib/gcc/arm-none-eabi/4.8.3/../../../../arm-none-eabi/lib/armv7-m/libc.a(lib_a-dtoa.o)
__mprec_tinytens                                  /home/fx/.arduino15/packages/arduino/tools/arm-none-eabi-gcc/4.8.3-2014q1/bin/../lib/gcc/arm-none-eabi/4.8.3/../../../../arm-none-eabi/lib/armv7-m/libc.a(lib_a-mprec.o)
__msp_init                                        /home/fx/Upwork/weather-node/output/core/core.a(vector_table.S.o)
                                                  /home/fx/Upwork/weather-node/output/core/wirish/start.S.o
__muldf3                                          /home/fx/.arduino15/packages/arduino/tools/arm-none-eabi-gcc/4.8.3-2014q1/bin/../lib/gcc/arm-none-eabi/4.8.3/armv7-m/libgcc.a(_arm_muldivdf3.o)
__multadd                                         /home/fx/.arduino15/packages/arduino/tools/arm-none-eabi-gcc/4.8.3-2014q1/bin/../lib/gcc/arm-none-eabi/4.8.3/../../../../arm-none-eabi/lib/armv7-m/libc.a(lib_a-mprec.o)
                                                  /home/fx/.arduino15/packages/arduino/tools/arm-none-eabi-gcc/4.8.3-2014q1/bin/../lib/gcc/arm-none-eabi/4.8.3/../../../../arm-none-eabi/lib/armv7-m/libc.a(lib_a-dtoa.o)
__multiply                                        /home/fx/.arduino15/packages/arduino/tools/arm-none-eabi-gcc/4.8.3-2014q1/bin/../lib/gcc/arm-none-eabi/4.8.3/../../../../arm-none-eabi/lib/armv7-m/libc.a(lib_a-mprec.o)
                                                  /home/fx/.arduino15/packages/arduino/tools/arm-none-eabi-gcc/4.8.3-2014q1/bin/../lib/gcc/arm-none-eabi/4.8.3/../../../../arm-none-eabi/lib/armv7-m/libc.a(lib_a-dtoa.o)
__nedf2                                           /home/fx/.arduino15/packages/arduino/tools/arm-none-eabi-gcc/4.8.3-2014q1/bin/../lib/gcc/arm-none-eabi/4.8.3/armv7-m/libgcc.a(_arm_cmpdf2.o)
__nesf2                                           /home/fx/.arduino15/packages/arduino/tools/arm-none-eabi-gcc/4.8.3-2014q1/bin/../lib/gcc/arm-none-eabi/4.8.3/armv7-m/libgcc.a(_arm_cmpsf2.o)
__nlocale_changed                                 /home/fx/.arduino15/packages/arduino/tools/arm-none-eabi-gcc/4.8.3-2014q1/bin/../lib/gcc/arm-none-eabi/4.8.3/../../../../arm-none-eabi/lib/armv7-m/libc.a(lib_a-locale.o)
__pow5mult                                        /home/fx/.arduino15/packages/arduino/tools/arm-none-eabi-gcc/4.8.3-2014q1/bin/../lib/gcc/arm-none-eabi/4.8.3/../../../../arm-none-eabi/lib/armv7-m/libc.a(lib_a-mprec.o)
                                                  /home/fx/.arduino15/packages/arduino/tools/arm-none-eabi-gcc/4.8.3-2014q1/bin/../lib/gcc/arm-none-eabi/4.8.3/../../../../arm-none-eabi/lib/armv7-m/libc.a(lib_a-dtoa.o)
__preinit_array_end                               /home/fx/.arduino15/packages/arduino/tools/arm-none-eabi-gcc/4.8.3-2014q1/bin/../lib/gcc/arm-none-eabi/4.8.3/../../../../arm-none-eabi/lib/armv7-m/libc.a(lib_a-init.o)
__preinit_array_start                             /home/fx/.arduino15/packages/arduino/tools/arm-none-eabi-gcc/4.8.3-2014q1/bin/../lib/gcc/arm-none-eabi/4.8.3/../../../../arm-none-eabi/lib/armv7-m/libc.a(lib_a-init.o)
__ratio                                           /home/fx/.arduino15/packages/arduino/tools/arm-none-eabi-gcc/4.8.3-2014q1/bin/../lib/gcc/arm-none-eabi/4.8.3/../../../../arm-none-eabi/lib/armv7-m/libc.a(lib_a-mprec.o)
__register_exitproc                               /home/fx/.arduino15/packages/arduino/tools/arm-none-eabi-gcc/4.8.3-2014q1/bin/../lib/gcc/arm-none-eabi/4.8.3/../../../../arm-none-eabi/lib/armv7-m/libc.a(lib_a-__atexit.o)
                                                  /home/fx/.arduino15/packages/arduino/tools/arm-none-eabi-gcc/4.8.3-2014q1/bin/../lib/gcc/arm-none-eabi/4.8.3/../../../../arm-none-eabi/lib/armv7-m/libc.a(lib_a-atexit.o)
__register_frame_info                             /home/fx/.arduino15/packages/arduino/tools/arm-none-eabi-gcc/4.8.3-2014q1/bin/../lib/gcc/arm-none-eabi/4.8.3/armv7-m/crtbegin.o
__s2b                                             /home/fx/.arduino15/packages/arduino/tools/arm-none-eabi-gcc/4.8.3-2014q1/bin/../lib/gcc/arm-none-eabi/4.8.3/../../../../arm-none-eabi/lib/armv7-m/libc.a(lib_a-mprec.o)
__ssprint_r                                       /home/fx/.arduino15/packages/arduino/tools/arm-none-eabi-gcc/4.8.3-2014q1/bin/../lib/gcc/arm-none-eabi/4.8.3/../../../../arm-none-eabi/lib/armv7-m/libc.a(lib_a-svfiprintf.o)
                                                  /home/fx/.arduino15/packages/arduino/tools/arm-none-eabi-gcc/4.8.3-2014q1/bin/../lib/gcc/arm-none-eabi/4.8.3/../../../../arm-none-eabi/lib/armv7-m/libc.a(lib_a-svfprintf.o)
__stack                                           /home/fx/.arduino15/packages/arduino/tools/arm-none-eabi-gcc/4.8.3-2014q1/bin/../lib/gcc/arm-none-eabi/4.8.3/../../../../arm-none-eabi/lib/armv7-m/crt0.o
__start__                                         /home/fx/Upwork/weather-node/output/core/wirish/start.S.o
__stm32_vector_table                              /home/fx/Upwork/weather-node/output/core/core.a(vector_table.S.o)
__stm32reservedexception10                        /home/fx/Upwork/weather-node/output/core/core.a(isrs.S.o)
                                                  /home/fx/Upwork/weather-node/output/core/core.a(vector_table.S.o)
__stm32reservedexception13                        /home/fx/Upwork/weather-node/output/core/core.a(isrs.S.o)
                                                  /home/fx/Upwork/weather-node/output/core/core.a(vector_table.S.o)
__stm32reservedexception7                         /home/fx/Upwork/weather-node/output/core/core.a(isrs.S.o)
                                                  /home/fx/Upwork/weather-node/output/core/core.a(vector_table.S.o)
__stm32reservedexception8                         /home/fx/Upwork/weather-node/output/core/core.a(isrs.S.o)
                                                  /home/fx/Upwork/weather-node/output/core/core.a(vector_table.S.o)
__stm32reservedexception9                         /home/fx/Upwork/weather-node/output/core/core.a(isrs.S.o)
                                                  /home/fx/Upwork/weather-node/output/core/core.a(vector_table.S.o)
__subdf3                                          /home/fx/.arduino15/packages/arduino/tools/arm-none-eabi-gcc/4.8.3-2014q1/bin/../lib/gcc/arm-none-eabi/4.8.3/armv7-m/libgcc.a(_arm_addsubdf3.o)
__subsf3                                          /home/fx/.arduino15/packages/arduino/tools/arm-none-eabi-gcc/4.8.3-2014q1/bin/../lib/gcc/arm-none-eabi/4.8.3/armv7-m/libgcc.a(_arm_addsubsf3.o)
__truncdfsf2                                      /home/fx/.arduino15/packages/arduino/tools/arm-none-eabi-gcc/4.8.3-2014q1/bin/../lib/gcc/arm-none-eabi/4.8.3/armv7-m/libgcc.a(_arm_truncdfsf2.o)
__udivdi3                                         /home/fx/.arduino15/packages/arduino/tools/arm-none-eabi-gcc/4.8.3-2014q1/bin/../lib/gcc/arm-none-eabi/4.8.3/armv7-m/libgcc.a(_udivdi3.o)
                                                  /home/fx/.arduino15/packages/arduino/tools/arm-none-eabi-gcc/4.8.3-2014q1/bin/../lib/gcc/arm-none-eabi/4.8.3/armv7-m/libgcc.a(bpabi.o)
__ulp                                             /home/fx/.arduino15/packages/arduino/tools/arm-none-eabi-gcc/4.8.3-2014q1/bin/../lib/gcc/arm-none-eabi/4.8.3/../../../../arm-none-eabi/lib/armv7-m/libc.a(lib_a-mprec.o)
_calloc_r                                         /home/fx/.arduino15/packages/arduino/tools/arm-none-eabi-gcc/4.8.3-2014q1/bin/../lib/gcc/arm-none-eabi/4.8.3/../../../../arm-none-eabi/lib/armv7-m/libc.a(lib_a-callocr.o)
                                                  /home/fx/.arduino15/packages/arduino/tools/arm-none-eabi-gcc/4.8.3-2014q1/bin/../lib/gcc/arm-none-eabi/4.8.3/../../../../arm-none-eabi/lib/armv7-m/libc.a(lib_a-mprec.o)
_close                                            /home/fx/Upwork/weather-node/output/core/wirish/syscalls.c.o
_dma_addr_type                                    /home/fx/Upwork/weather-node/output/core/core.a(dma.c.o)
                                                  /home/fx/Upwork/weather-node/output/core/core.a(dma_f1.c.o)
_dtoa_r                                           /home/fx/.arduino15/packages/arduino/tools/arm-none-eabi-gcc/4.8.3-2014q1/bin/../lib/gcc/arm-none-eabi/4.8.3/../../../../arm-none-eabi/lib/armv7-m/libc.a(lib_a-dtoa.o)
                                                  /home/fx/.arduino15/packages/arduino/tools/arm-none-eabi-gcc/4.8.3-2014q1/bin/../lib/gcc/arm-none-eabi/4.8.3/../../../../arm-none-eabi/lib/armv7-m/libc.a(lib_a-svfprintf.o)
_exit                                             /home/fx/Upwork/weather-node/output/core/wirish/syscalls.c.o
                                                  /home/fx/.arduino15/packages/arduino/tools/arm-none-eabi-gcc/4.8.3-2014q1/bin/../lib/gcc/arm-none-eabi/4.8.3/../../../../arm-none-eabi/lib/armv7-m/libc.a(lib_a-exit.o)
_fail                                             /home/fx/Upwork/weather-node/output/core/core.a(util.c.o)
                                                  /home/fx/Upwork/weather-node/output/core/core.a(i2c.c.o)
                                                  /home/fx/Upwork/weather-node/output/core/core.a(dma.c.o)
                                                  /home/fx/Upwork/weather-node/output/core/core.a(bkp_f1.c.o)
                                                  /home/fx/Upwork/weather-node/output/core/core.a(usb_serial.cpp.o)
                                                  /home/fx/Upwork/weather-node/output/core/core.a(wirish_digital_f1.cpp.o)
                                                  /home/fx/Upwork/weather-node/output/core/core.a(usb.c.o)
                                                  /home/fx/Upwork/weather-node/output/core/core.a(usart_f1.c.o)
                                                  /home/fx/Upwork/weather-node/output/core/core.a(timer.c.o)
                                                  /home/fx/Upwork/weather-node/output/core/core.a(rcc_f1.c.o)
                                                  /home/fx/Upwork/weather-node/output/core/core.a(exti.c.o)
                                                  /home/fx/Upwork/weather-node/output/core/core.a(dma_f1.c.o)
_fini                                             /home/fx/.arduino15/packages/arduino/tools/arm-none-eabi-gcc/4.8.3-2014q1/bin/../lib/gcc/arm-none-eabi/4.8.3/armv7-m/crti.o
                                                  /home/fx/.arduino15/packages/arduino/tools/arm-none-eabi-gcc/4.8.3-2014q1/bin/../lib/gcc/arm-none-eabi/4.8.3/../../../../arm-none-eabi/lib/armv7-m/libc.a(lib_a-fini.o)
_free_r                                           /home/fx/.arduino15/packages/arduino/tools/arm-none-eabi-gcc/4.8.3-2014q1/bin/../lib/gcc/arm-none-eabi/4.8.3/../../../../arm-none-eabi/lib/armv7-m/libc.a(lib_a-freer.o)
                                                  /home/fx/.arduino15/packages/arduino/tools/arm-none-eabi-gcc/4.8.3-2014q1/bin/../lib/gcc/arm-none-eabi/4.8.3/../../../../arm-none-eabi/lib/armv7-m/libc.a(lib_a-reallocr.o)
                                                  /home/fx/.arduino15/packages/arduino/tools/arm-none-eabi-gcc/4.8.3-2014q1/bin/../lib/gcc/arm-none-eabi/4.8.3/../../../../arm-none-eabi/lib/armv7-m/libc.a(lib_a-svfiprintf.o)
                                                  /home/fx/.arduino15/packages/arduino/tools/arm-none-eabi-gcc/4.8.3-2014q1/bin/../lib/gcc/arm-none-eabi/4.8.3/../../../../arm-none-eabi/lib/armv7-m/libc.a(lib_a-reent.o)
                                                  /home/fx/.arduino15/packages/arduino/tools/arm-none-eabi-gcc/4.8.3-2014q1/bin/../lib/gcc/arm-none-eabi/4.8.3/../../../../arm-none-eabi/lib/armv7-m/libc.a(lib_a-mallocr.o)
                                                  /home/fx/.arduino15/packages/arduino/tools/arm-none-eabi-gcc/4.8.3-2014q1/bin/../lib/gcc/arm-none-eabi/4.8.3/../../../../arm-none-eabi/lib/armv7-m/libc.a(lib_a-malloc.o)
_fstat                                            /home/fx/Upwork/weather-node/output/core/wirish/syscalls.c.o
_global_impure_ptr                                /home/fx/.arduino15/packages/arduino/tools/arm-none-eabi-gcc/4.8.3-2014q1/bin/../lib/gcc/arm-none-eabi/4.8.3/../../../../arm-none-eabi/lib/armv7-m/libc.a(lib_a-impure.o)
                                                  /home/fx/.arduino15/packages/arduino/tools/arm-none-eabi-gcc/4.8.3-2014q1/bin/../lib/gcc/arm-none-eabi/4.8.3/../../../../arm-none-eabi/lib/armv7-m/libc.a(lib_a-__atexit.o)
                                                  /home/fx/.arduino15/packages/arduino/tools/arm-none-eabi-gcc/4.8.3-2014q1/bin/../lib/gcc/arm-none-eabi/4.8.3/../../../../arm-none-eabi/lib/armv7-m/libc.a(lib_a-__call_atexit.o)
                                                  /home/fx/.arduino15/packages/arduino/tools/arm-none-eabi-gcc/4.8.3-2014q1/bin/../lib/gcc/arm-none-eabi/4.8.3/../../../../arm-none-eabi/lib/armv7-m/libc.a(lib_a-exit.o)
_i2c_irq_error_handler                            /home/fx/Upwork/weather-node/output/core/core.a(i2c.c.o)
                                                  /home/fx/Upwork/weather-node/output/core/core.a(i2c_f1.c.o)
_i2c_irq_handler                                  /home/fx/Upwork/weather-node/output/core/core.a(i2c.c.o)
                                                  /home/fx/Upwork/weather-node/output/core/core.a(i2c_f1.c.o)
_i2c_irq_priority_fixup                           /home/fx/Upwork/weather-node/output/core/core.a(i2c_f1.c.o)
                                                  /home/fx/Upwork/weather-node/output/core/core.a(i2c.c.o)
_impure_ptr                                       /home/fx/.arduino15/packages/arduino/tools/arm-none-eabi-gcc/4.8.3-2014q1/bin/../lib/gcc/arm-none-eabi/4.8.3/../../../../arm-none-eabi/lib/armv7-m/libc.a(lib_a-impure.o)
                                                  /home/fx/.arduino15/packages/arduino/tools/arm-none-eabi-gcc/4.8.3-2014q1/bin/../lib/gcc/arm-none-eabi/4.8.3/../../../../arm-none-eabi/lib/armv7-m/libc.a(lib_a-reent.o)
                                                  /home/fx/.arduino15/packages/arduino/tools/arm-none-eabi-gcc/4.8.3-2014q1/bin/../lib/gcc/arm-none-eabi/4.8.3/../../../../arm-none-eabi/lib/armv7-m/libc.a(lib_a-locale.o)
                                                  /home/fx/.arduino15/packages/arduino/tools/arm-none-eabi-gcc/4.8.3-2014q1/bin/../lib/gcc/arm-none-eabi/4.8.3/../../../../arm-none-eabi/lib/armv7-m/libc.a(lib_a-sprintf.o)
                                                  /home/fx/.arduino15/packages/arduino/tools/arm-none-eabi-gcc/4.8.3-2014q1/bin/../lib/gcc/arm-none-eabi/4.8.3/../../../../arm-none-eabi/lib/armv7-m/libc.a(lib_a-malloc.o)
                                                  /home/fx/.arduino15/packages/arduino/tools/arm-none-eabi-gcc/4.8.3-2014q1/bin/../lib/gcc/arm-none-eabi/4.8.3/../../../../arm-none-eabi/lib/armv7-m/libc.a(lib_a-errno.o)
_init                                             /home/fx/.arduino15/packages/arduino/tools/arm-none-eabi-gcc/4.8.3-2014q1/bin/../lib/gcc/arm-none-eabi/4.8.3/armv7-m/crti.o
                                                  /home/fx/.arduino15/packages/arduino/tools/arm-none-eabi-gcc/4.8.3-2014q1/bin/../lib/gcc/arm-none-eabi/4.8.3/../../../../arm-none-eabi/lib/armv7-m/libc.a(lib_a-init.o)
_isatty                                           /home/fx/Upwork/weather-node/output/core/wirish/syscalls.c.o
_lm_heap_end                                      /home/fx/Upwork/weather-node/output/core/wirish/syscalls.c.o
_lm_heap_start                                    /home/fx/Upwork/weather-node/output/core/wirish/syscalls.c.o
_lm_rom_img_cfgp                                  /home/fx/Upwork/weather-node/output/core/wirish/start_c.c.o
_localeconv_r                                     /home/fx/.arduino15/packages/arduino/tools/arm-none-eabi-gcc/4.8.3-2014q1/bin/../lib/gcc/arm-none-eabi/4.8.3/../../../../arm-none-eabi/lib/armv7-m/libc.a(lib_a-locale.o)
                                                  /home/fx/.arduino15/packages/arduino/tools/arm-none-eabi-gcc/4.8.3-2014q1/bin/../lib/gcc/arm-none-eabi/4.8.3/../../../../arm-none-eabi/lib/armv7-m/libc.a(lib_a-svfprintf.o)
_lseek                                            /home/fx/Upwork/weather-node/output/core/wirish/syscalls.c.o
_mainCRTStartup                                   /home/fx/.arduino15/packages/arduino/tools/arm-none-eabi-gcc/4.8.3-2014q1/bin/../lib/gcc/arm-none-eabi/4.8.3/../../../../arm-none-eabi/lib/armv7-m/crt0.o
_malloc_r                                         /home/fx/.arduino15/packages/arduino/tools/arm-none-eabi-gcc/4.8.3-2014q1/bin/../lib/gcc/arm-none-eabi/4.8.3/../../../../arm-none-eabi/lib/armv7-m/libc.a(lib_a-mallocr.o)
                                                  /home/fx/.arduino15/packages/arduino/tools/arm-none-eabi-gcc/4.8.3-2014q1/bin/../lib/gcc/arm-none-eabi/4.8.3/../../../../arm-none-eabi/lib/armv7-m/libc.a(lib_a-reallocr.o)
                                                  /home/fx/.arduino15/packages/arduino/tools/arm-none-eabi-gcc/4.8.3-2014q1/bin/../lib/gcc/arm-none-eabi/4.8.3/../../../../arm-none-eabi/lib/armv7-m/libc.a(lib_a-callocr.o)
                                                  /home/fx/.arduino15/packages/arduino/tools/arm-none-eabi-gcc/4.8.3-2014q1/bin/../lib/gcc/arm-none-eabi/4.8.3/../../../../arm-none-eabi/lib/armv7-m/libc.a(lib_a-svfiprintf.o)
                                                  /home/fx/.arduino15/packages/arduino/tools/arm-none-eabi-gcc/4.8.3-2014q1/bin/../lib/gcc/arm-none-eabi/4.8.3/../../../../arm-none-eabi/lib/armv7-m/libc.a(lib_a-svfprintf.o)
                                                  /home/fx/.arduino15/packages/arduino/tools/arm-none-eabi-gcc/4.8.3-2014q1/bin/../lib/gcc/arm-none-eabi/4.8.3/../../../../arm-none-eabi/lib/armv7-m/libc.a(lib_a-malloc.o)
_malloc_trim_r                                    /home/fx/.arduino15/packages/arduino/tools/arm-none-eabi-gcc/4.8.3-2014q1/bin/../lib/gcc/arm-none-eabi/4.8.3/../../../../arm-none-eabi/lib/armv7-m/libc.a(lib_a-freer.o)
_mprec_log10                                      /home/fx/.arduino15/packages/arduino/tools/arm-none-eabi-gcc/4.8.3-2014q1/bin/../lib/gcc/arm-none-eabi/4.8.3/../../../../arm-none-eabi/lib/armv7-m/libc.a(lib_a-mprec.o)
_open                                             /home/fx/Upwork/weather-node/output/core/wirish/syscalls.c.o
_read                                             /home/fx/Upwork/weather-node/output/core/wirish/syscalls.c.o
_realloc_r                                        /home/fx/.arduino15/packages/arduino/tools/arm-none-eabi-gcc/4.8.3-2014q1/bin/../lib/gcc/arm-none-eabi/4.8.3/../../../../arm-none-eabi/lib/armv7-m/libc.a(lib_a-reallocr.o)
                                                  /home/fx/.arduino15/packages/arduino/tools/arm-none-eabi-gcc/4.8.3-2014q1/bin/../lib/gcc/arm-none-eabi/4.8.3/../../../../arm-none-eabi/lib/armv7-m/libc.a(lib_a-svfiprintf.o)
_reclaim_reent                                    /home/fx/.arduino15/packages/arduino/tools/arm-none-eabi-gcc/4.8.3-2014q1/bin/../lib/gcc/arm-none-eabi/4.8.3/../../../../arm-none-eabi/lib/armv7-m/libc.a(lib_a-reent.o)
_sbrk                                             /home/fx/Upwork/weather-node/output/core/wirish/syscalls.c.o
                                                  /home/fx/.arduino15/packages/arduino/tools/arm-none-eabi-gcc/4.8.3-2014q1/bin/../lib/gcc/arm-none-eabi/4.8.3/../../../../arm-none-eabi/lib/armv7-m/libc.a(lib_a-sbrkr.o)
_sbrk_r                                           /home/fx/.arduino15/packages/arduino/tools/arm-none-eabi-gcc/4.8.3-2014q1/bin/../lib/gcc/arm-none-eabi/4.8.3/../../../../arm-none-eabi/lib/armv7-m/libc.a(lib_a-sbrkr.o)
                                                  /home/fx/.arduino15/packages/arduino/tools/arm-none-eabi-gcc/4.8.3-2014q1/bin/../lib/gcc/arm-none-eabi/4.8.3/../../../../arm-none-eabi/lib/armv7-m/libc.a(lib_a-freer.o)
                                                  /home/fx/.arduino15/packages/arduino/tools/arm-none-eabi-gcc/4.8.3-2014q1/bin/../lib/gcc/arm-none-eabi/4.8.3/../../../../arm-none-eabi/lib/armv7-m/libc.a(lib_a-mallocr.o)
_setlocale_r                                      /home/fx/.arduino15/packages/arduino/tools/arm-none-eabi-gcc/4.8.3-2014q1/bin/../lib/gcc/arm-none-eabi/4.8.3/../../../../arm-none-eabi/lib/armv7-m/libc.a(lib_a-locale.o)
_sprintf_r                                        /home/fx/.arduino15/packages/arduino/tools/arm-none-eabi-gcc/4.8.3-2014q1/bin/../lib/gcc/arm-none-eabi/4.8.3/../../../../arm-none-eabi/lib/armv7-m/libc.a(lib_a-sprintf.o)
_start                                            /home/fx/.arduino15/packages/arduino/tools/arm-none-eabi-gcc/4.8.3-2014q1/bin/../lib/gcc/arm-none-eabi/4.8.3/../../../../arm-none-eabi/lib/armv7-m/crt0.o
_svfiprintf_r                                     /home/fx/.arduino15/packages/arduino/tools/arm-none-eabi-gcc/4.8.3-2014q1/bin/../lib/gcc/arm-none-eabi/4.8.3/../../../../arm-none-eabi/lib/armv7-m/libc.a(lib_a-svfiprintf.o)
_svfprintf_r                                      /home/fx/.arduino15/packages/arduino/tools/arm-none-eabi-gcc/4.8.3-2014q1/bin/../lib/gcc/arm-none-eabi/4.8.3/../../../../arm-none-eabi/lib/armv7-m/libc.a(lib_a-svfprintf.o)
                                                  /home/fx/.arduino15/packages/arduino/tools/arm-none-eabi-gcc/4.8.3-2014q1/bin/../lib/gcc/arm-none-eabi/4.8.3/../../../../arm-none-eabi/lib/armv7-m/libc.a(lib_a-sprintf.o)
_usart_clock_freq                                 /home/fx/Upwork/weather-node/output/core/core.a(usart_private.c.o)
                                                  /home/fx/Upwork/weather-node/output/core/core.a(usart_f1.c.o)
_write                                            /home/fx/Upwork/weather-node/output/core/wirish/syscalls.c.o
abort                                             /home/fx/Upwork/weather-node/output/core/core.a(util.c.o)
adc1                                              /home/fx/Upwork/weather-node/output/core/core.a(adc_f1.c.o)
                                                  /home/fx/Upwork/weather-node/output/core/board.cpp.o
adc2                                              /home/fx/Upwork/weather-node/output/core/core.a(adc_f1.c.o)
adc_attach_interrupt                              /home/fx/Upwork/weather-node/output/core/core.a(adc_f1.c.o)
adc_calibrate                                     /home/fx/Upwork/weather-node/output/core/core.a(adc_f1.c.o)
adc_config_gpio                                   /home/fx/Upwork/weather-node/output/core/core.a(adc_f1.c.o)
adc_enable_irq                                    /home/fx/Upwork/weather-node/output/core/core.a(adc_f1.c.o)
adc_enable_single_swstart                         /home/fx/Upwork/weather-node/output/core/core.a(adc_f1.c.o)
                                                  /home/fx/Upwork/weather-node/output/core/wirish/boards.cpp.o
adc_foreach                                       /home/fx/Upwork/weather-node/output/core/core.a(adc_f1.c.o)
                                                  /home/fx/Upwork/weather-node/output/core/wirish/boards.cpp.o
adc_init                                          /home/fx/Upwork/weather-node/output/core/core.a(adc.c.o)
                                                  /home/fx/Upwork/weather-node/output/core/core.a(adc_f1.c.o)
adc_read                                          /home/fx/Upwork/weather-node/output/core/core.a(adc.c.o)
adc_set_extsel                                    /home/fx/Upwork/weather-node/output/core/core.a(adc.c.o)
                                                  /home/fx/Upwork/weather-node/output/core/core.a(adc_f1.c.o)
adc_set_prescaler                                 /home/fx/Upwork/weather-node/output/core/core.a(adc_f1.c.o)
                                                  /home/fx/Upwork/weather-node/output/core/wirish/boards.cpp.o
adc_set_sample_rate                               /home/fx/Upwork/weather-node/output/core/core.a(adc.c.o)
                                                  /home/fx/Upwork/weather-node/output/core/wirish/boards.cpp.o
afio_init                                         /home/fx/Upwork/weather-node/output/core/core.a(gpio_f1.c.o)
                                                  /home/fx/Upwork/weather-node/output/core/wirish/boards_setup.cpp.o
afio_is_remapped                                  /home/fx/Upwork/weather-node/output/core/core.a(gpio_f1.c.o)
afio_remap                                        /home/fx/Upwork/weather-node/output/core/core.a(gpio_f1.c.o)
                                                  /home/fx/Upwork/weather-node/output/core/core.a(i2c.c.o)
                                                  /home/fx/Upwork/weather-node/output/core/core.a(i2c_f1.c.o)
atexit                                            /home/fx/.arduino15/packages/arduino/tools/arm-none-eabi-gcc/4.8.3-2014q1/bin/../lib/gcc/arm-none-eabi/4.8.3/../../../../arm-none-eabi/lib/armv7-m/libc.a(lib_a-atexit.o)
                                                  /home/fx/.arduino15/packages/arduino/tools/arm-none-eabi-gcc/4.8.3-2014q1/bin/../lib/gcc/arm-none-eabi/4.8.3/../../../../arm-none-eabi/lib/armv7-m/libc.a(lib_a-__call_atexit.o)
                                                  /home/fx/.arduino15/packages/arduino/tools/arm-none-eabi-gcc/4.8.3-2014q1/bin/../lib/gcc/arm-none-eabi/4.8.3/../../../../arm-none-eabi/lib/armv7-m/crt0.o
bkp                                               /home/fx/Upwork/weather-node/output/core/core.a(bkp_f1.c.o)
bkp_disable_writes                                /home/fx/Upwork/weather-node/output/core/core.a(bkp_f1.c.o)
                                                  /home/fx/Upwork/weather-node/output/core/core.a(usb_serial.cpp.o)
bkp_enable_writes                                 /home/fx/Upwork/weather-node/output/core/core.a(bkp_f1.c.o)
                                                  /home/fx/Upwork/weather-node/output/core/core.a(usb_serial.cpp.o)
bkp_init                                          /home/fx/Upwork/weather-node/output/core/core.a(bkp_f1.c.o)
                                                  /home/fx/Upwork/weather-node/output/core/core.a(usb_serial.cpp.o)
bkp_read                                          /home/fx/Upwork/weather-node/output/core/core.a(bkp_f1.c.o)
bkp_write                                         /home/fx/Upwork/weather-node/output/core/core.a(bkp_f1.c.o)
                                                  /home/fx/Upwork/weather-node/output/core/core.a(usb_serial.cpp.o)
blink()                                           /home/fx/Upwork/weather-node/output/sketch/weatherSIM808.ino.cpp.o
boardADCPins                                      /home/fx/Upwork/weather-node/output/core/board.cpp.o
boardInit()                                       /home/fx/Upwork/weather-node/output/core/board.cpp.o
boardPWMPins                                      /home/fx/Upwork/weather-node/output/core/board.cpp.o
boardUsedPins                                     /home/fx/Upwork/weather-node/output/core/board.cpp.o
                                                  /home/fx/Upwork/weather-node/output/core/wirish/boards.cpp.o
boardUsesPin(unsigned char)                       /home/fx/Upwork/weather-node/output/core/wirish/boards.cpp.o
buildJSON()                                       /home/fx/Upwork/weather-node/output/sketch/weatherSIM808.ino.cpp.o
cgets                                             /home/fx/Upwork/weather-node/output/core/wirish/syscalls.c.o
cleanup_glue                                      /home/fx/.arduino15/packages/arduino/tools/arm-none-eabi-gcc/4.8.3-2014q1/bin/../lib/gcc/arm-none-eabi/4.8.3/../../../../arm-none-eabi/lib/armv7-m/libc.a(lib_a-reent.o)
delay(unsigned long)                              /home/fx/Upwork/weather-node/output/core/core.a(wirish_time.cpp.o)
                                                  /home/fx/Upwork/weather-node/output/libraries/DHT_sensor_library/DHT.cpp.o
delayMicroseconds(unsigned long)                  /home/fx/Upwork/weather-node/output/core/core.a(wirish_time.cpp.o)
                                                  /home/fx/Upwork/weather-node/output/libraries/DHT_sensor_library/DHT.cpp.o
dht                                               /home/fx/Upwork/weather-node/output/sketch/weatherSIM808.ino.cpp.o
digitalRead(unsigned char)                        /home/fx/Upwork/weather-node/output/core/core.a(wirish_digital.cpp.o)
                                                  /home/fx/Upwork/weather-node/output/libraries/DHT_sensor_library/DHT.cpp.o
digitalWrite(unsigned char, unsigned char)        /home/fx/Upwork/weather-node/output/core/core.a(wirish_digital.cpp.o)
                                                  /home/fx/Upwork/weather-node/output/libraries/DHT_sensor_library/DHT.cpp.o
                                                  /home/fx/Upwork/weather-node/output/sketch/weatherSIM808.ino.cpp.o
dispatch_extis                                    /home/fx/Upwork/weather-node/output/core/core.a(exti.c.o)
dispatch_single_exti                              /home/fx/Upwork/weather-node/output/core/core.a(exti.c.o)
displayValues()                                   /home/fx/Upwork/weather-node/output/sketch/weatherSIM808.ino.cpp.o
dma2Ch4_5                                         /home/fx/Upwork/weather-node/output/core/core.a(dma_f1.c.o)
dma_attach_interrupt                              /home/fx/Upwork/weather-node/output/core/core.a(dma_f1.c.o)
dma_detach_interrupt                              /home/fx/Upwork/weather-node/output/core/core.a(dma_f1.c.o)
dma_disable                                       /home/fx/Upwork/weather-node/output/core/core.a(dma_f1.c.o)
dma_enable                                        /home/fx/Upwork/weather-node/output/core/core.a(dma_f1.c.o)
dma_get_irq_cause                                 /home/fx/Upwork/weather-node/output/core/core.a(dma_f1.c.o)
dma_init                                          /home/fx/Upwork/weather-node/output/core/core.a(dma.c.o)
dma_set_mem_addr                                  /home/fx/Upwork/weather-node/output/core/core.a(dma_f1.c.o)
dma_set_num_transfers                             /home/fx/Upwork/weather-node/output/core/core.a(dma_f1.c.o)
dma_set_per_addr                                  /home/fx/Upwork/weather-node/output/core/core.a(dma_f1.c.o)
dma_set_priority                                  /home/fx/Upwork/weather-node/output/core/core.a(dma_f1.c.o)
dma_setup_transfer                                /home/fx/Upwork/weather-node/output/core/core.a(dma_f1.c.o)
dma_tube_cfg                                      /home/fx/Upwork/weather-node/output/core/core.a(dma_f1.c.o)
errno                                             /home/fx/.arduino15/packages/arduino/tools/arm-none-eabi-gcc/4.8.3-2014q1/bin/../lib/gcc/arm-none-eabi/4.8.3/../../../../arm-none-eabi/lib/armv7-m/libc.a(lib_a-reent.o)
                                                  /home/fx/.arduino15/packages/arduino/tools/arm-none-eabi-gcc/4.8.3-2014q1/bin/../lib/gcc/arm-none-eabi/4.8.3/../../../../arm-none-eabi/lib/armv7-m/libc.a(lib_a-sbrkr.o)
exit                                              /home/fx/.arduino15/packages/arduino/tools/arm-none-eabi-gcc/4.8.3-2014q1/bin/../lib/gcc/arm-none-eabi/4.8.3/../../../../arm-none-eabi/lib/armv7-m/libc.a(lib_a-exit.o)
                                                  /home/fx/.arduino15/packages/arduino/tools/arm-none-eabi-gcc/4.8.3-2014q1/bin/../lib/gcc/arm-none-eabi/4.8.3/../../../../arm-none-eabi/lib/armv7-m/crt0.o
exti_attach_callback                              /home/fx/Upwork/weather-node/output/core/core.a(exti.c.o)
exti_attach_interrupt                             /home/fx/Upwork/weather-node/output/core/core.a(exti.c.o)
exti_channels                                     /home/fx/Upwork/weather-node/output/core/core.a(exti.c.o)
exti_detach_interrupt                             /home/fx/Upwork/weather-node/output/core/core.a(exti.c.o)
exti_do_select                                    /home/fx/Upwork/weather-node/output/core/core.a(exti.c.o)
                                                  /home/fx/Upwork/weather-node/output/core/core.a(exti_f1.c.o)
exti_select                                       /home/fx/Upwork/weather-node/output/core/core.a(exti_f1.c.o)
                                                  /home/fx/Upwork/weather-node/output/core/core.a(exti.c.o)
fgets                                             /home/fx/Upwork/weather-node/output/core/wirish/syscalls.c.o
flagDOWNLOAD                                      /home/fx/Upwork/weather-node/output/sketch/weatherSIM808.ino.cpp.o
flagERROR                                         /home/fx/Upwork/weather-node/output/sketch/weatherSIM808.ino.cpp.o
flagGNS                                           /home/fx/Upwork/weather-node/output/sketch/weatherSIM808.ino.cpp.o
flagHTTPACT                                       /home/fx/Upwork/weather-node/output/sketch/weatherSIM808.ino.cpp.o
flagOK                                            /home/fx/Upwork/weather-node/output/sketch/weatherSIM808.ino.cpp.o
flagREG                                           /home/fx/Upwork/weather-node/output/sketch/weatherSIM808.ino.cpp.o
flash_set_latency                                 /home/fx/Upwork/weather-node/output/core/core.a(flash.c.o)
                                                  /home/fx/Upwork/weather-node/output/core/wirish/boards.cpp.o
free                                              /home/fx/.arduino15/packages/arduino/tools/arm-none-eabi-gcc/4.8.3-2014q1/bin/../lib/gcc/arm-none-eabi/4.8.3/../../../../arm-none-eabi/lib/armv7-m/libc.a(lib_a-malloc.o)
                                                  /home/fx/.arduino15/packages/arduino/tools/arm-none-eabi-gcc/4.8.3-2014q1/bin/../lib/gcc/arm-none-eabi/4.8.3/../../../../arm-none-eabi/lib/armv7-m/libc.a(lib_a-__call_atexit.o)
                                                  /home/fx/Upwork/weather-node/output/core/core.a(new.cpp.o)
get_direction                                     /home/fx/Upwork/weather-node/output/core/core.a(timer.c.o)
getch                                             /home/fx/Upwork/weather-node/output/core/wirish/syscalls.c.o
gpio_get_mode                                     /home/fx/Upwork/weather-node/output/core/core.a(gpio_f1.c.o)
gpio_init                                         /home/fx/Upwork/weather-node/output/core/core.a(gpio.c.o)
                                                  /home/fx/Upwork/weather-node/output/core/core.a(gpio_f1.c.o)
gpio_init_all                                     /home/fx/Upwork/weather-node/output/core/core.a(gpio_f1.c.o)
                                                  /home/fx/Upwork/weather-node/output/core/wirish/boards_setup.cpp.o
gpio_set_mode                                     /home/fx/Upwork/weather-node/output/core/core.a(gpio_f1.c.o)
                                                  /home/fx/Upwork/weather-node/output/core/core.a(wirish_digital_f1.cpp.o)
                                                  /home/fx/Upwork/weather-node/output/core/core.a(util.c.o)
                                                  /home/fx/Upwork/weather-node/output/core/core.a(usb_cdcacm.c.o)
                                                  /home/fx/Upwork/weather-node/output/core/core.a(usart_f1.c.o)
                                                  /home/fx/Upwork/weather-node/output/core/core.a(i2c_f1.c.o)
                                                  /home/fx/Upwork/weather-node/output/core/core.a(adc_f1.c.o)
                                                  /home/fx/Upwork/weather-node/output/core/wirish/boards_setup.cpp.o
gpioa                                             /home/fx/Upwork/weather-node/output/core/core.a(gpio_f1.c.o)
                                                  /home/fx/Upwork/weather-node/output/core/board.cpp.o
gpiob                                             /home/fx/Upwork/weather-node/output/core/core.a(gpio_f1.c.o)
                                                  /home/fx/Upwork/weather-node/output/core/core.a(i2c_f1.c.o)
                                                  /home/fx/Upwork/weather-node/output/core/board.cpp.o
gpioc                                             /home/fx/Upwork/weather-node/output/core/core.a(gpio_f1.c.o)
                                                  /home/fx/Upwork/weather-node/output/core/board.cpp.o
gpiod                                             /home/fx/Upwork/weather-node/output/core/core.a(gpio_f1.c.o)
hardware_init_hook                                /home/fx/.arduino15/packages/arduino/tools/arm-none-eabi-gcc/4.8.3-2014q1/bin/../lib/gcc/arm-none-eabi/4.8.3/../../../../arm-none-eabi/lib/armv7-m/crt0.o
humidity                                          /home/fx/Upwork/weather-node/output/sketch/weatherSIM808.ino.cpp.o
i2c_bus_reset                                     /home/fx/Upwork/weather-node/output/core/core.a(i2c.c.o)
i2c_config_gpios                                  /home/fx/Upwork/weather-node/output/core/core.a(i2c_f1.c.o)
                                                  /home/fx/Upwork/weather-node/output/core/core.a(i2c.c.o)
i2c_init                                          /home/fx/Upwork/weather-node/output/core/core.a(i2c.c.o)
i2c_master_enable                                 /home/fx/Upwork/weather-node/output/core/core.a(i2c.c.o)
i2c_master_release_bus                            /home/fx/Upwork/weather-node/output/core/core.a(i2c_f1.c.o)
                                                  /home/fx/Upwork/weather-node/output/core/core.a(i2c.c.o)
i2c_master_xfer                                   /home/fx/Upwork/weather-node/output/core/core.a(i2c.c.o)
i2c_set_ccr_trise                                 /home/fx/Upwork/weather-node/output/core/core.a(i2c.c.o)
i2c_slave_attach_recv_handler                     /home/fx/Upwork/weather-node/output/core/core.a(i2c.c.o)
i2c_slave_attach_transmit_handler                 /home/fx/Upwork/weather-node/output/core/core.a(i2c.c.o)
i2c_slave_enable                                  /home/fx/Upwork/weather-node/output/core/core.a(i2c.c.o)
init()                                            /home/fx/Upwork/weather-node/output/core/wirish/boards.cpp.o
                                                  /home/fx/Upwork/weather-node/output/core/core.a(main.cpp.o)
input_capture_mode                                /home/fx/Upwork/weather-node/output/core/core.a(timer.c.o)
isatty                                            /home/fx/Upwork/weather-node/output/core/wirish/syscalls.c.o
latitude                                          /home/fx/Upwork/weather-node/output/sketch/weatherSIM808.ino.cpp.o
localeconv                                        /home/fx/.arduino15/packages/arduino/tools/arm-none-eabi-gcc/4.8.3-2014q1/bin/../lib/gcc/arm-none-eabi/4.8.3/../../../../arm-none-eabi/lib/armv7-m/libc.a(lib_a-locale.o)
longitude                                         /home/fx/Upwork/weather-node/output/sketch/weatherSIM808.ino.cpp.o
loop()                                            /home/fx/Upwork/weather-node/output/sketch/weatherSIM808.ino.cpp.o
                                                  /home/fx/Upwork/weather-node/output/core/core.a(main.cpp.o)
mPower()                                          /home/fx/Upwork/weather-node/output/sketch/weatherSIM808.ino.cpp.o
main                                              /home/fx/Upwork/weather-node/output/core/core.a(main.cpp.o)
                                                  /home/fx/Upwork/weather-node/output/core/wirish/start_c.c.o
                                                  /home/fx/.arduino15/packages/arduino/tools/arm-none-eabi-gcc/4.8.3-2014q1/bin/../lib/gcc/arm-none-eabi/4.8.3/../../../../arm-none-eabi/lib/armv7-m/crt0.o
malloc                                            /home/fx/.arduino15/packages/arduino/tools/arm-none-eabi-gcc/4.8.3-2014q1/bin/../lib/gcc/arm-none-eabi/4.8.3/../../../../arm-none-eabi/lib/armv7-m/libc.a(lib_a-malloc.o)
                                                  /home/fx/.arduino15/packages/arduino/tools/arm-none-eabi-gcc/4.8.3-2014q1/bin/../lib/gcc/arm-none-eabi/4.8.3/../../../../arm-none-eabi/lib/armv7-m/libc.a(lib_a-__atexit.o)
                                                  /home/fx/Upwork/weather-node/output/core/core.a(new.cpp.o)
matherr                                           /home/fx/.arduino15/packages/arduino/tools/arm-none-eabi-gcc/4.8.3-2014q1/bin/../lib/gcc/arm-none-eabi/4.8.3/../../../../arm-none-eabi/lib/armv7-m/libm.a(lib_a-s_matherr.o)
                                                  /home/fx/.arduino15/packages/arduino/tools/arm-none-eabi-gcc/4.8.3-2014q1/bin/../lib/gcc/arm-none-eabi/4.8.3/../../../../arm-none-eabi/lib/armv7-m/libm.a(lib_a-w_sqrt.o)
memchr                                            /home/fx/.arduino15/packages/arduino/tools/arm-none-eabi-gcc/4.8.3-2014q1/bin/../lib/gcc/arm-none-eabi/4.8.3/../../../../arm-none-eabi/lib/armv7-m/libc.a(lib_a-memchr-stub.o)
                                                  /home/fx/.arduino15/packages/arduino/tools/arm-none-eabi-gcc/4.8.3-2014q1/bin/../lib/gcc/arm-none-eabi/4.8.3/../../../../arm-none-eabi/lib/armv7-m/libc.a(lib_a-svfiprintf.o)
                                                  /home/fx/.arduino15/packages/arduino/tools/arm-none-eabi-gcc/4.8.3-2014q1/bin/../lib/gcc/arm-none-eabi/4.8.3/../../../../arm-none-eabi/lib/armv7-m/libc.a(lib_a-svfprintf.o)
                                                  /home/fx/Upwork/weather-node/output/sketch/weatherSIM808.ino.cpp.o
memcmp                                            /home/fx/.arduino15/packages/arduino/tools/arm-none-eabi-gcc/4.8.3-2014q1/bin/../lib/gcc/arm-none-eabi/4.8.3/../../../../arm-none-eabi/lib/armv7-m/libc.a(lib_a-memcmp.o)
                                                  /home/fx/Upwork/weather-node/output/libraries/FreeRTOS821/utility/tasks.c.o
                                                  /home/fx/Upwork/weather-node/output/sketch/weatherSIM808.ino.cpp.o
memcpy                                            /home/fx/.arduino15/packages/arduino/tools/arm-none-eabi-gcc/4.8.3-2014q1/bin/../lib/gcc/arm-none-eabi/4.8.3/../../../../arm-none-eabi/lib/armv7-m/libc.a(lib_a-memcpy.o)
                                                  /home/fx/.arduino15/packages/arduino/tools/arm-none-eabi-gcc/4.8.3-2014q1/bin/../lib/gcc/arm-none-eabi/4.8.3/../../../../arm-none-eabi/lib/armv7-m/libc.a(lib_a-svfiprintf.o)
                                                  /home/fx/.arduino15/packages/arduino/tools/arm-none-eabi-gcc/4.8.3-2014q1/bin/../lib/gcc/arm-none-eabi/4.8.3/../../../../arm-none-eabi/lib/armv7-m/libc.a(lib_a-mprec.o)
                                                  /home/fx/.arduino15/packages/arduino/tools/arm-none-eabi-gcc/4.8.3-2014q1/bin/../lib/gcc/arm-none-eabi/4.8.3/../../../../arm-none-eabi/lib/armv7-m/libc.a(lib_a-dtoa.o)
                                                  /home/fx/Upwork/weather-node/output/libraries/FreeRTOS821/utility/queue.c.o
memmove                                           /home/fx/.arduino15/packages/arduino/tools/arm-none-eabi-gcc/4.8.3-2014q1/bin/../lib/gcc/arm-none-eabi/4.8.3/../../../../arm-none-eabi/lib/armv7-m/libc.a(lib_a-memmove.o)
                                                  /home/fx/.arduino15/packages/arduino/tools/arm-none-eabi-gcc/4.8.3-2014q1/bin/../lib/gcc/arm-none-eabi/4.8.3/../../../../arm-none-eabi/lib/armv7-m/libc.a(lib_a-reallocr.o)
                                                  /home/fx/.arduino15/packages/arduino/tools/arm-none-eabi-gcc/4.8.3-2014q1/bin/../lib/gcc/arm-none-eabi/4.8.3/../../../../arm-none-eabi/lib/armv7-m/libc.a(lib_a-svfiprintf.o)
memset                                            /home/fx/.arduino15/packages/arduino/tools/arm-none-eabi-gcc/4.8.3-2014q1/bin/../lib/gcc/arm-none-eabi/4.8.3/../../../../arm-none-eabi/lib/armv7-m/libc.a(lib_a-memset.o)
                                                  /home/fx/.arduino15/packages/arduino/tools/arm-none-eabi-gcc/4.8.3-2014q1/bin/../lib/gcc/arm-none-eabi/4.8.3/../../../../arm-none-eabi/lib/armv7-m/libc.a(lib_a-callocr.o)
                                                  /home/fx/Upwork/weather-node/output/libraries/DHT_sensor_library/DHT_U.cpp.o
                                                  /home/fx/Upwork/weather-node/output/libraries/FreeRTOS821/utility/tasks.c.o
                                                  /home/fx/Upwork/weather-node/output/sketch/weatherSIM808.ino.cpp.o
                                                  /home/fx/.arduino15/packages/arduino/tools/arm-none-eabi-gcc/4.8.3-2014q1/bin/../lib/gcc/arm-none-eabi/4.8.3/../../../../arm-none-eabi/lib/armv7-m/crt0.o
modem_buffer                                      /home/fx/Upwork/weather-node/output/sketch/weatherSIM808.ino.cpp.o
modem_i                                           /home/fx/Upwork/weather-node/output/sketch/weatherSIM808.ino.cpp.o
nvic_init                                         /home/fx/Upwork/weather-node/output/core/core.a(nvic.c.o)
                                                  /home/fx/Upwork/weather-node/output/core/wirish/boards.cpp.o
nvic_irq_set_priority                             /home/fx/Upwork/weather-node/output/core/core.a(nvic.c.o)
                                                  /home/fx/Upwork/weather-node/output/core/core.a(i2c_f1.c.o)
nvic_set_vector_table                             /home/fx/Upwork/weather-node/output/core/core.a(nvic.c.o)
nvic_sys_reset                                    /home/fx/Upwork/weather-node/output/core/core.a(nvic.c.o)
                                                  /home/fx/Upwork/weather-node/output/core/core.a(usb_serial.cpp.o)
operator delete(void*)                            /home/fx/Upwork/weather-node/output/core/core.a(new.cpp.o)
                                                  /home/fx/Upwork/weather-node/output/libraries/DHT_sensor_library/DHT_U.cpp.o
operator delete[](void*)                          /home/fx/Upwork/weather-node/output/core/core.a(new.cpp.o)
operator new(unsigned int)                        /home/fx/Upwork/weather-node/output/core/core.a(new.cpp.o)
operator new[](unsigned int)                      /home/fx/Upwork/weather-node/output/core/core.a(new.cpp.o)
pInformation                                      /home/fx/Upwork/weather-node/output/core/core.a(usb_init.c.o)
                                                  /home/fx/Upwork/weather-node/output/core/core.a(usb_core.c.o)
                                                  /home/fx/Upwork/weather-node/output/core/core.a(usb_cdcacm.c.o)
                                                  /home/fx/Upwork/weather-node/output/core/core.a(usb.c.o)
pProperty                                         /home/fx/Upwork/weather-node/output/core/core.a(usb_init.c.o)
                                                  /home/fx/Upwork/weather-node/output/core/core.a(usb_core.c.o)
                                                  /home/fx/Upwork/weather-node/output/core/core.a(usb_cdcacm.c.o)
                                                  /home/fx/Upwork/weather-node/output/core/core.a(usb.c.o)
pUser_Standard_Requests                           /home/fx/Upwork/weather-node/output/core/core.a(usb_init.c.o)
                                                  /home/fx/Upwork/weather-node/output/core/core.a(usb_core.c.o)
                                                  /home/fx/Upwork/weather-node/output/core/core.a(usb.c.o)
pinMode(unsigned char, WiringPinMode)             /home/fx/Upwork/weather-node/output/core/core.a(wirish_digital_f1.cpp.o)
                                                  /home/fx/Upwork/weather-node/output/libraries/DHT_sensor_library/DHT.cpp.o
                                                  /home/fx/Upwork/weather-node/output/sketch/weatherSIM808.ino.cpp.o
pm1_buff                                          /home/fx/Upwork/weather-node/output/sketch/weatherSIM808.ino.cpp.o
pm1_i                                             /home/fx/Upwork/weather-node/output/sketch/weatherSIM808.ino.cpp.o
pm1_ok                                            /home/fx/Upwork/weather-node/output/sketch/weatherSIM808.ino.cpp.o
pm1_value                                         /home/fx/Upwork/weather-node/output/sketch/weatherSIM808.ino.cpp.o
pm2_buff                                          /home/fx/Upwork/weather-node/output/sketch/weatherSIM808.ino.cpp.o
pm2_i                                             /home/fx/Upwork/weather-node/output/sketch/weatherSIM808.ino.cpp.o
pm2_ok                                            /home/fx/Upwork/weather-node/output/sketch/weatherSIM808.ino.cpp.o
pm2_value                                         /home/fx/Upwork/weather-node/output/sketch/weatherSIM808.ino.cpp.o
post_buffer                                       /home/fx/Upwork/weather-node/output/sketch/weatherSIM808.ino.cpp.o
premain()                                         /home/fx/Upwork/weather-node/output/core/core.a(main.cpp.o)
procCGN()                                         /home/fx/Upwork/weather-node/output/sketch/weatherSIM808.ino.cpp.o
procCGR()                                         /home/fx/Upwork/weather-node/output/sketch/weatherSIM808.ino.cpp.o
processingPM1Data(char)                           /home/fx/Upwork/weather-node/output/sketch/weatherSIM808.ino.cpp.o
processingPM2Data(char)                           /home/fx/Upwork/weather-node/output/sketch/weatherSIM808.ino.cpp.o
putch                                             /home/fx/Upwork/weather-node/output/core/wirish/syscalls.c.o
pvPortMalloc                                      /home/fx/Upwork/weather-node/output/libraries/FreeRTOS821/utility/heap_1.c.o
                                                  /home/fx/Upwork/weather-node/output/libraries/FreeRTOS821/utility/tasks.c.o
                                                  /home/fx/Upwork/weather-node/output/libraries/FreeRTOS821/utility/queue.c.o
                                                  /home/fx/Upwork/weather-node/output/libraries/FreeRTOS821/utility/event_groups.c.o
pvTaskIncrementMutexHeldCount                     /home/fx/Upwork/weather-node/output/libraries/FreeRTOS821/utility/tasks.c.o
                                                  /home/fx/Upwork/weather-node/output/libraries/FreeRTOS821/utility/queue.c.o
pxCurrentTCB                                      /home/fx/Upwork/weather-node/output/libraries/FreeRTOS821/utility/tasks.c.o
                                                  /home/fx/Upwork/weather-node/output/libraries/FreeRTOS821/utility/port.c.o
pxPortInitialiseStack                             /home/fx/Upwork/weather-node/output/libraries/FreeRTOS821/utility/port.c.o
                                                  /home/fx/Upwork/weather-node/output/libraries/FreeRTOS821/utility/tasks.c.o
rcc_clk_disable                                   /home/fx/Upwork/weather-node/output/core/core.a(rcc_f1.c.o)
                                                  /home/fx/Upwork/weather-node/output/core/wirish/boards_setup.cpp.o
rcc_clk_enable                                    /home/fx/Upwork/weather-node/output/core/core.a(rcc_f1.c.o)
                                                  /home/fx/Upwork/weather-node/output/core/core.a(i2c.c.o)
                                                  /home/fx/Upwork/weather-node/output/core/core.a(gpio.c.o)
                                                  /home/fx/Upwork/weather-node/output/core/core.a(dma.c.o)
                                                  /home/fx/Upwork/weather-node/output/core/core.a(bkp_f1.c.o)
                                                  /home/fx/Upwork/weather-node/output/core/core.a(usb.c.o)
                                                  /home/fx/Upwork/weather-node/output/core/core.a(usart.c.o)
                                                  /home/fx/Upwork/weather-node/output/core/core.a(timer.c.o)
                                                  /home/fx/Upwork/weather-node/output/core/core.a(gpio_f1.c.o)
                                                  /home/fx/Upwork/weather-node/output/core/core.a(adc.c.o)
rcc_clk_init                                      /home/fx/Upwork/weather-node/output/core/core.a(rcc_f1.c.o)
rcc_configure_pll                                 /home/fx/Upwork/weather-node/output/core/core.a(rcc_f1.c.o)
                                                  /home/fx/Upwork/weather-node/output/core/wirish/boards.cpp.o
rcc_dev_clk                                       /home/fx/Upwork/weather-node/output/core/core.a(rcc.c.o)
                                                  /home/fx/Upwork/weather-node/output/core/core.a(usart_private.c.o)
                                                  /home/fx/Upwork/weather-node/output/core/core.a(rcc_f1.c.o)
rcc_dev_table                                     /home/fx/Upwork/weather-node/output/core/core.a(rcc_f1.c.o)
                                                  /home/fx/Upwork/weather-node/output/core/core.a(rcc.c.o)
rcc_is_clk_on                                     /home/fx/Upwork/weather-node/output/core/core.a(rcc.c.o)
                                                  /home/fx/Upwork/weather-node/output/core/core.a(rcc_f1.c.o)
rcc_is_clk_ready                                  /home/fx/Upwork/weather-node/output/core/core.a(rcc.c.o)
                                                  /home/fx/Upwork/weather-node/output/core/core.a(rcc_f1.c.o)
                                                  /home/fx/Upwork/weather-node/output/core/wirish/boards.cpp.o
rcc_reset_dev                                     /home/fx/Upwork/weather-node/output/core/core.a(rcc_f1.c.o)
                                                  /home/fx/Upwork/weather-node/output/core/core.a(i2c.c.o)
                                                  /home/fx/Upwork/weather-node/output/core/core.a(gpio.c.o)
                                                  /home/fx/Upwork/weather-node/output/core/core.a(bkp_f1.c.o)
                                                  /home/fx/Upwork/weather-node/output/core/core.a(timer.c.o)
                                                  /home/fx/Upwork/weather-node/output/core/core.a(gpio_f1.c.o)
                                                  /home/fx/Upwork/weather-node/output/core/core.a(adc.c.o)
rcc_set_prescaler                                 /home/fx/Upwork/weather-node/output/core/core.a(rcc_f1.c.o)
                                                  /home/fx/Upwork/weather-node/output/core/core.a(adc_f1.c.o)
                                                  /home/fx/Upwork/weather-node/output/core/wirish/boards_setup.cpp.o
rcc_switch_sysclk                                 /home/fx/Upwork/weather-node/output/core/core.a(rcc.c.o)
                                                  /home/fx/Upwork/weather-node/output/core/core.a(rcc_f1.c.o)
                                                  /home/fx/Upwork/weather-node/output/core/wirish/boards.cpp.o
rcc_turn_off_clk                                  /home/fx/Upwork/weather-node/output/core/core.a(rcc.c.o)
                                                  /home/fx/Upwork/weather-node/output/core/wirish/boards.cpp.o
rcc_turn_on_clk                                   /home/fx/Upwork/weather-node/output/core/core.a(rcc.c.o)
                                                  /home/fx/Upwork/weather-node/output/core/core.a(rcc_f1.c.o)
                                                  /home/fx/Upwork/weather-node/output/core/wirish/boards.cpp.o
readPM1()                                         /home/fx/Upwork/weather-node/output/sketch/weatherSIM808.ino.cpp.o
readPM2()                                         /home/fx/Upwork/weather-node/output/sketch/weatherSIM808.ino.cpp.o
readTempHum()                                     /home/fx/Upwork/weather-node/output/sketch/weatherSIM808.ino.cpp.o
sendCommand(char const*, int)                     /home/fx/Upwork/weather-node/output/sketch/weatherSIM808.ino.cpp.o
setlocale                                         /home/fx/.arduino15/packages/arduino/tools/arm-none-eabi-gcc/4.8.3-2014q1/bin/../lib/gcc/arm-none-eabi/4.8.3/../../../../arm-none-eabi/lib/armv7-m/libc.a(lib_a-locale.o)
setup()                                           /home/fx/Upwork/weather-node/output/sketch/weatherSIM808.ino.cpp.o
                                                  /home/fx/Upwork/weather-node/output/core/core.a(main.cpp.o)
showBuffers()                                     /home/fx/Upwork/weather-node/output/sketch/weatherSIM808.ino.cpp.o
sim808Init()                                      /home/fx/Upwork/weather-node/output/sketch/weatherSIM808.ino.cpp.o
software_init_hook                                /home/fx/.arduino15/packages/arduino/tools/arm-none-eabi-gcc/4.8.3-2014q1/bin/../lib/gcc/arm-none-eabi/4.8.3/../../../../arm-none-eabi/lib/armv7-m/crt0.o
sprintf                                           /home/fx/.arduino15/packages/arduino/tools/arm-none-eabi-gcc/4.8.3-2014q1/bin/../lib/gcc/arm-none-eabi/4.8.3/../../../../arm-none-eabi/lib/armv7-m/libc.a(lib_a-sprintf.o)
                                                  /home/fx/Upwork/weather-node/output/sketch/weatherSIM808.ino.cpp.o
sqrt                                              /home/fx/.arduino15/packages/arduino/tools/arm-none-eabi-gcc/4.8.3-2014q1/bin/../lib/gcc/arm-none-eabi/4.8.3/../../../../arm-none-eabi/lib/armv7-m/libm.a(lib_a-w_sqrt.o)
                                                  /home/fx/Upwork/weather-node/output/libraries/DHT_sensor_library/DHT.cpp.o
start_c                                           /home/fx/Upwork/weather-node/output/core/wirish/start_c.c.o
                                                  /home/fx/Upwork/weather-node/output/core/wirish/start.S.o
strcmp                                            /home/fx/.arduino15/packages/arduino/tools/arm-none-eabi-gcc/4.8.3-2014q1/bin/../lib/gcc/arm-none-eabi/4.8.3/../../../../arm-none-eabi/lib/armv7-m/libc.a(lib_a-strcmp.o)
                                                  /home/fx/.arduino15/packages/arduino/tools/arm-none-eabi-gcc/4.8.3-2014q1/bin/../lib/gcc/arm-none-eabi/4.8.3/../../../../arm-none-eabi/lib/armv7-m/libc.a(lib_a-locale.o)
strcpy                                            /home/fx/.arduino15/packages/arduino/tools/arm-none-eabi-gcc/4.8.3-2014q1/bin/../lib/gcc/arm-none-eabi/4.8.3/../../../../arm-none-eabi/lib/armv7-m/libc.a(lib_a-strcpy.o)
                                                  /home/fx/Upwork/weather-node/output/core/core.a(cxxabi-compat.cpp.o)
strlen                                            /home/fx/.arduino15/packages/arduino/tools/arm-none-eabi-gcc/4.8.3-2014q1/bin/../lib/gcc/arm-none-eabi/4.8.3/../../../../arm-none-eabi/lib/armv7-m/libc.a(lib_a-strlen.o)
                                                  /home/fx/.arduino15/packages/arduino/tools/arm-none-eabi-gcc/4.8.3-2014q1/bin/../lib/gcc/arm-none-eabi/4.8.3/../../../../arm-none-eabi/lib/armv7-m/libc.a(lib_a-svfiprintf.o)
                                                  /home/fx/.arduino15/packages/arduino/tools/arm-none-eabi-gcc/4.8.3-2014q1/bin/../lib/gcc/arm-none-eabi/4.8.3/../../../../arm-none-eabi/lib/armv7-m/libc.a(lib_a-svfprintf.o)
                                                  /home/fx/Upwork/weather-node/output/core/core.a(usb_serial.cpp.o)
                                                  /home/fx/Upwork/weather-node/output/core/core.a(Print.cpp.o)
                                                  /home/fx/Upwork/weather-node/output/sketch/weatherSIM808.ino.cpp.o
strncpy                                           /home/fx/.arduino15/packages/arduino/tools/arm-none-eabi-gcc/4.8.3-2014q1/bin/../lib/gcc/arm-none-eabi/4.8.3/../../../../arm-none-eabi/lib/armv7-m/libc.a(lib_a-strncpy.o)
                                                  /home/fx/Upwork/weather-node/output/libraries/DHT_sensor_library/DHT_U.cpp.o
systick_attach_callback                           /home/fx/Upwork/weather-node/output/core/core.a(systick.c.o)
                                                  /home/fx/Upwork/weather-node/output/libraries/FreeRTOS821/utility/port.c.o
systick_disable                                   /home/fx/Upwork/weather-node/output/core/core.a(systick.c.o)
systick_enable                                    /home/fx/Upwork/weather-node/output/core/core.a(systick.c.o)
systick_init                                      /home/fx/Upwork/weather-node/output/core/core.a(systick.c.o)
                                                  /home/fx/Upwork/weather-node/output/core/wirish/boards.cpp.o
systick_uptime_millis                             /home/fx/Upwork/weather-node/output/core/core.a(i2c.c.o)
                                                  /home/fx/Upwork/weather-node/output/core/core.a(wirish_time.cpp.o)
                                                  /home/fx/Upwork/weather-node/output/core/core.a(usb_serial.cpp.o)
                                                  /home/fx/Upwork/weather-node/output/core/core.a(systick.c.o)
                                                  /home/fx/Upwork/weather-node/output/libraries/DHT_sensor_library/DHT_U.cpp.o
                                                  /home/fx/Upwork/weather-node/output/libraries/DHT_sensor_library/DHT.cpp.o
temperature                                       /home/fx/Upwork/weather-node/output/sketch/weatherSIM808.ino.cpp.o
throb                                             /home/fx/Upwork/weather-node/output/core/core.a(util.c.o)
timer1                                            /home/fx/Upwork/weather-node/output/core/core.a(timer.c.o)
                                                  /home/fx/Upwork/weather-node/output/core/board.cpp.o
timer2                                            /home/fx/Upwork/weather-node/output/core/core.a(timer.c.o)
                                                  /home/fx/Upwork/weather-node/output/core/board.cpp.o
timer3                                            /home/fx/Upwork/weather-node/output/core/core.a(timer.c.o)
                                                  /home/fx/Upwork/weather-node/output/core/board.cpp.o
timer4                                            /home/fx/Upwork/weather-node/output/core/core.a(timer.c.o)
                                                  /home/fx/Upwork/weather-node/output/core/board.cpp.o
timer_attach_interrupt                            /home/fx/Upwork/weather-node/output/core/core.a(timer.c.o)
timer_detach_interrupt                            /home/fx/Upwork/weather-node/output/core/core.a(timer.c.o)
timer_disable                                     /home/fx/Upwork/weather-node/output/core/core.a(timer.c.o)
timer_foreach                                     /home/fx/Upwork/weather-node/output/core/core.a(timer.c.o)
                                                  /home/fx/Upwork/weather-node/output/core/wirish/boards.cpp.o
timer_has_cc_channel                              /home/fx/Upwork/weather-node/output/core/core.a(timer.c.o)
                                                  /home/fx/Upwork/weather-node/output/core/wirish/boards.cpp.o
timer_init                                        /home/fx/Upwork/weather-node/output/core/core.a(timer.c.o)
                                                  /home/fx/Upwork/weather-node/output/core/wirish/boards.cpp.o
timer_set_mode                                    /home/fx/Upwork/weather-node/output/core/core.a(timer.c.o)
                                                  /home/fx/Upwork/weather-node/output/core/core.a(wirish_digital_f1.cpp.o)
                                                  /home/fx/Upwork/weather-node/output/core/core.a(HardwareSerial.cpp.o)
timestamp                                         /home/fx/Upwork/weather-node/output/sketch/weatherSIM808.ino.cpp.o
ucQueueGetQueueType                               /home/fx/Upwork/weather-node/output/libraries/FreeRTOS821/utility/queue.c.o
ulPortSetInterruptMask                            /home/fx/Upwork/weather-node/output/libraries/FreeRTOS821/utility/port.c.o
                                                  /home/fx/Upwork/weather-node/output/libraries/FreeRTOS821/utility/tasks.c.o
                                                  /home/fx/Upwork/weather-node/output/libraries/FreeRTOS821/utility/queue.c.o
                                                  /home/fx/Upwork/weather-node/output/libraries/FreeRTOS821/utility/event_groups.c.o
ulTaskNotifyTake                                  /home/fx/Upwork/weather-node/output/libraries/FreeRTOS821/utility/tasks.c.o
usart_config_gpios_async                          /home/fx/Upwork/weather-node/output/core/core.a(usart_f1.c.o)
                                                  /home/fx/Upwork/weather-node/output/core/core.a(HardwareSerial.cpp.o)
usart_disable                                     /home/fx/Upwork/weather-node/output/core/core.a(usart.c.o)
                                                  /home/fx/Upwork/weather-node/output/core/core.a(HardwareSerial.cpp.o)
usart_enable                                      /home/fx/Upwork/weather-node/output/core/core.a(usart.c.o)
                                                  /home/fx/Upwork/weather-node/output/core/core.a(HardwareSerial.cpp.o)
usart_foreach                                     /home/fx/Upwork/weather-node/output/core/core.a(usart_f1.c.o)
usart_init                                        /home/fx/Upwork/weather-node/output/core/core.a(usart.c.o)
                                                  /home/fx/Upwork/weather-node/output/core/core.a(HardwareSerial.cpp.o)
usart_putudec                                     /home/fx/Upwork/weather-node/output/core/core.a(usart.c.o)
                                                  /home/fx/Upwork/weather-node/output/core/core.a(util.c.o)
usart_rx                                          /home/fx/Upwork/weather-node/output/core/core.a(usart.c.o)
usart_set_baud_rate                               /home/fx/Upwork/weather-node/output/core/core.a(usart_f1.c.o)
                                                  /home/fx/Upwork/weather-node/output/core/core.a(HardwareSerial.cpp.o)
usart_tx                                          /home/fx/Upwork/weather-node/output/core/core.a(usart.c.o)
                                                  /home/fx/Upwork/weather-node/output/core/core.a(util.c.o)
                                                  /home/fx/Upwork/weather-node/output/core/core.a(HardwareSerial.cpp.o)
usb_cdcacm_data_available                         /home/fx/Upwork/weather-node/output/core/core.a(usb_cdcacm.c.o)
                                                  /home/fx/Upwork/weather-node/output/core/core.a(usb_serial.cpp.o)
usb_cdcacm_disable                                /home/fx/Upwork/weather-node/output/core/core.a(usb_cdcacm.c.o)
                                                  /home/fx/Upwork/weather-node/output/core/core.a(usb_serial.cpp.o)
usb_cdcacm_enable                                 /home/fx/Upwork/weather-node/output/core/core.a(usb_cdcacm.c.o)
                                                  /home/fx/Upwork/weather-node/output/core/core.a(usb_serial.cpp.o)
usb_cdcacm_get_baud                               /home/fx/Upwork/weather-node/output/core/core.a(usb_cdcacm.c.o)
usb_cdcacm_get_dtr                                /home/fx/Upwork/weather-node/output/core/core.a(usb_cdcacm.c.o)
                                                  /home/fx/Upwork/weather-node/output/core/core.a(usb_serial.cpp.o)
usb_cdcacm_get_line_coding                        /home/fx/Upwork/weather-node/output/core/core.a(usb_cdcacm.c.o)
usb_cdcacm_get_n_data_bits                        /home/fx/Upwork/weather-node/output/core/core.a(usb_cdcacm.c.o)
usb_cdcacm_get_parity                             /home/fx/Upwork/weather-node/output/core/core.a(usb_cdcacm.c.o)
usb_cdcacm_get_pending                            /home/fx/Upwork/weather-node/output/core/core.a(usb_cdcacm.c.o)
                                                  /home/fx/Upwork/weather-node/output/core/core.a(usb_serial.cpp.o)
usb_cdcacm_get_rts                                /home/fx/Upwork/weather-node/output/core/core.a(usb_cdcacm.c.o)
                                                  /home/fx/Upwork/weather-node/output/core/core.a(usb_serial.cpp.o)
usb_cdcacm_get_stop_bits                          /home/fx/Upwork/weather-node/output/core/core.a(usb_cdcacm.c.o)
usb_cdcacm_is_transmitting                        /home/fx/Upwork/weather-node/output/core/core.a(usb_cdcacm.c.o)
usb_cdcacm_peek                                   /home/fx/Upwork/weather-node/output/core/core.a(usb_cdcacm.c.o)
                                                  /home/fx/Upwork/weather-node/output/core/core.a(usb_serial.cpp.o)
usb_cdcacm_peek_char                              /home/fx/Upwork/weather-node/output/core/core.a(usb_cdcacm.c.o)
usb_cdcacm_peek_ex                                /home/fx/Upwork/weather-node/output/core/core.a(usb_cdcacm.c.o)
                                                  /home/fx/Upwork/weather-node/output/core/core.a(usb_serial.cpp.o)
usb_cdcacm_putc                                   /home/fx/Upwork/weather-node/output/core/core.a(usb_cdcacm.c.o)
usb_cdcacm_rx                                     /home/fx/Upwork/weather-node/output/core/core.a(usb_cdcacm.c.o)
                                                  /home/fx/Upwork/weather-node/output/core/core.a(usb_serial.cpp.o)
usb_cdcacm_set_hooks                              /home/fx/Upwork/weather-node/output/core/core.a(usb_cdcacm.c.o)
                                                  /home/fx/Upwork/weather-node/output/core/core.a(usb_serial.cpp.o)
usb_cdcacm_tx                                     /home/fx/Upwork/weather-node/output/core/core.a(usb_cdcacm.c.o)
                                                  /home/fx/Upwork/weather-node/output/core/core.a(usb_serial.cpp.o)
usb_cdcacm_tx_available                           /home/fx/Upwork/weather-node/output/core/core.a(usb_cdcacm.c.o)
                                                  /home/fx/Upwork/weather-node/output/core/core.a(usb_serial.cpp.o)
usb_init_usblib                                   /home/fx/Upwork/weather-node/output/core/core.a(usb.c.o)
                                                  /home/fx/Upwork/weather-node/output/core/core.a(usb_cdcacm.c.o)
usb_power_off                                     /home/fx/Upwork/weather-node/output/core/core.a(usb.c.o)
                                                  /home/fx/Upwork/weather-node/output/core/core.a(usb_cdcacm.c.o)
usb_set_ep_rx_count                               /home/fx/Upwork/weather-node/output/core/core.a(usb_reg_map.c.o)
                                                  /home/fx/Upwork/weather-node/output/core/core.a(usb_cdcacm.c.o)
uxEventGroupGetNumber                             /home/fx/Upwork/weather-node/output/libraries/FreeRTOS821/utility/event_groups.c.o
uxListRemove                                      /home/fx/Upwork/weather-node/output/libraries/FreeRTOS821/utility/list.c.o
                                                  /home/fx/Upwork/weather-node/output/libraries/FreeRTOS821/utility/tasks.c.o
uxQueueGetQueueNumber                             /home/fx/Upwork/weather-node/output/libraries/FreeRTOS821/utility/queue.c.o
uxQueueMessagesWaiting                            /home/fx/Upwork/weather-node/output/libraries/FreeRTOS821/utility/queue.c.o
uxQueueMessagesWaitingFromISR                     /home/fx/Upwork/weather-node/output/libraries/FreeRTOS821/utility/queue.c.o
uxQueueSpacesAvailable                            /home/fx/Upwork/weather-node/output/libraries/FreeRTOS821/utility/queue.c.o
uxTaskGetNumberOfTasks                            /home/fx/Upwork/weather-node/output/libraries/FreeRTOS821/utility/tasks.c.o
uxTaskGetSystemState                              /home/fx/Upwork/weather-node/output/libraries/FreeRTOS821/utility/tasks.c.o
uxTaskGetTaskNumber                               /home/fx/Upwork/weather-node/output/libraries/FreeRTOS821/utility/tasks.c.o
uxTaskPriorityGet                                 /home/fx/Upwork/weather-node/output/libraries/FreeRTOS821/utility/tasks.c.o
uxTaskPriorityGetFromISR                          /home/fx/Upwork/weather-node/output/libraries/FreeRTOS821/utility/tasks.c.o
uxTaskResetEventItemValue                         /home/fx/Upwork/weather-node/output/libraries/FreeRTOS821/utility/tasks.c.o
                                                  /home/fx/Upwork/weather-node/output/libraries/FreeRTOS821/utility/event_groups.c.o
vApplicationStackOverflowHook                     /home/fx/Upwork/weather-node/output/libraries/FreeRTOS821/MapleFreeRTOS821.cpp.o
                                                  /home/fx/Upwork/weather-node/output/libraries/FreeRTOS821/utility/tasks.c.o
vEventGroupClearBitsCallback                      /home/fx/Upwork/weather-node/output/libraries/FreeRTOS821/utility/event_groups.c.o
vEventGroupDelete                                 /home/fx/Upwork/weather-node/output/libraries/FreeRTOS821/utility/event_groups.c.o
vEventGroupSetBitsCallback                        /home/fx/Upwork/weather-node/output/libraries/FreeRTOS821/utility/event_groups.c.o
vListInitialise                                   /home/fx/Upwork/weather-node/output/libraries/FreeRTOS821/utility/list.c.o
                                                  /home/fx/Upwork/weather-node/output/libraries/FreeRTOS821/utility/tasks.c.o
                                                  /home/fx/Upwork/weather-node/output/libraries/FreeRTOS821/utility/queue.c.o
                                                  /home/fx/Upwork/weather-node/output/libraries/FreeRTOS821/utility/event_groups.c.o
vListInitialiseItem                               /home/fx/Upwork/weather-node/output/libraries/FreeRTOS821/utility/list.c.o
                                                  /home/fx/Upwork/weather-node/output/libraries/FreeRTOS821/utility/tasks.c.o
vListInsert                                       /home/fx/Upwork/weather-node/output/libraries/FreeRTOS821/utility/list.c.o
                                                  /home/fx/Upwork/weather-node/output/libraries/FreeRTOS821/utility/tasks.c.o
vListInsertEnd                                    /home/fx/Upwork/weather-node/output/libraries/FreeRTOS821/utility/list.c.o
                                                  /home/fx/Upwork/weather-node/output/libraries/FreeRTOS821/utility/tasks.c.o
vPortClearInterruptMask                           /home/fx/Upwork/weather-node/output/libraries/FreeRTOS821/utility/port.c.o
                                                  /home/fx/Upwork/weather-node/output/libraries/FreeRTOS821/utility/tasks.c.o
                                                  /home/fx/Upwork/weather-node/output/libraries/FreeRTOS821/utility/queue.c.o
                                                  /home/fx/Upwork/weather-node/output/libraries/FreeRTOS821/utility/event_groups.c.o
vPortEndScheduler                                 /home/fx/Upwork/weather-node/output/libraries/FreeRTOS821/utility/port.c.o
                                                  /home/fx/Upwork/weather-node/output/libraries/FreeRTOS821/utility/tasks.c.o
vPortEnterCritical                                /home/fx/Upwork/weather-node/output/libraries/FreeRTOS821/utility/port.c.o
                                                  /home/fx/Upwork/weather-node/output/libraries/FreeRTOS821/utility/tasks.c.o
                                                  /home/fx/Upwork/weather-node/output/libraries/FreeRTOS821/utility/queue.c.o
                                                  /home/fx/Upwork/weather-node/output/libraries/FreeRTOS821/utility/event_groups.c.o
vPortExitCritical                                 /home/fx/Upwork/weather-node/output/libraries/FreeRTOS821/utility/port.c.o
                                                  /home/fx/Upwork/weather-node/output/libraries/FreeRTOS821/utility/tasks.c.o
                                                  /home/fx/Upwork/weather-node/output/libraries/FreeRTOS821/utility/queue.c.o
                                                  /home/fx/Upwork/weather-node/output/libraries/FreeRTOS821/utility/event_groups.c.o
vPortFree                                         /home/fx/Upwork/weather-node/output/libraries/FreeRTOS821/utility/heap_1.c.o
                                                  /home/fx/Upwork/weather-node/output/libraries/FreeRTOS821/utility/tasks.c.o
                                                  /home/fx/Upwork/weather-node/output/libraries/FreeRTOS821/utility/queue.c.o
                                                  /home/fx/Upwork/weather-node/output/libraries/FreeRTOS821/utility/event_groups.c.o
vPortInitialiseBlocks                             /home/fx/Upwork/weather-node/output/libraries/FreeRTOS821/utility/heap_1.c.o
vPortSetupTimerInterrupt                          /home/fx/Upwork/weather-node/output/libraries/FreeRTOS821/utility/port.c.o
vPortYield                                        /home/fx/Upwork/weather-node/output/libraries/FreeRTOS821/utility/port.c.o
                                                  /home/fx/Upwork/weather-node/output/libraries/FreeRTOS821/utility/tasks.c.o
                                                  /home/fx/Upwork/weather-node/output/libraries/FreeRTOS821/utility/queue.c.o
                                                  /home/fx/Upwork/weather-node/output/libraries/FreeRTOS821/utility/event_groups.c.o
vQueueDelete                                      /home/fx/Upwork/weather-node/output/libraries/FreeRTOS821/utility/queue.c.o
vQueueSetQueueNumber                              /home/fx/Upwork/weather-node/output/libraries/FreeRTOS821/utility/queue.c.o
vTaskDelay                                        /home/fx/Upwork/weather-node/output/libraries/FreeRTOS821/utility/tasks.c.o
                                                  /home/fx/Upwork/weather-node/output/sketch/weatherSIM808.ino.cpp.o
vTaskDelayUntil                                   /home/fx/Upwork/weather-node/output/libraries/FreeRTOS821/utility/tasks.c.o
vTaskDelete                                       /home/fx/Upwork/weather-node/output/libraries/FreeRTOS821/utility/tasks.c.o
vTaskEndScheduler                                 /home/fx/Upwork/weather-node/output/libraries/FreeRTOS821/utility/tasks.c.o
vTaskMissedYield                                  /home/fx/Upwork/weather-node/output/libraries/FreeRTOS821/utility/tasks.c.o
                                                  /home/fx/Upwork/weather-node/output/libraries/FreeRTOS821/utility/queue.c.o
vTaskNotifyGiveFromISR                            /home/fx/Upwork/weather-node/output/libraries/FreeRTOS821/utility/tasks.c.o
vTaskPlaceOnEventList                             /home/fx/Upwork/weather-node/output/libraries/FreeRTOS821/utility/tasks.c.o
                                                  /home/fx/Upwork/weather-node/output/libraries/FreeRTOS821/utility/queue.c.o
vTaskPlaceOnUnorderedEventList                    /home/fx/Upwork/weather-node/output/libraries/FreeRTOS821/utility/tasks.c.o
                                                  /home/fx/Upwork/weather-node/output/libraries/FreeRTOS821/utility/event_groups.c.o
vTaskPriorityInherit                              /home/fx/Upwork/weather-node/output/libraries/FreeRTOS821/utility/tasks.c.o
                                                  /home/fx/Upwork/weather-node/output/libraries/FreeRTOS821/utility/queue.c.o
vTaskPrioritySet                                  /home/fx/Upwork/weather-node/output/libraries/FreeRTOS821/utility/tasks.c.o
vTaskResume                                       /home/fx/Upwork/weather-node/output/libraries/FreeRTOS821/utility/tasks.c.o
vTaskSetTaskNumber                                /home/fx/Upwork/weather-node/output/libraries/FreeRTOS821/utility/tasks.c.o
vTaskSetTimeOutState                              /home/fx/Upwork/weather-node/output/libraries/FreeRTOS821/utility/tasks.c.o
                                                  /home/fx/Upwork/weather-node/output/libraries/FreeRTOS821/utility/queue.c.o
vTaskStartScheduler                               /home/fx/Upwork/weather-node/output/libraries/FreeRTOS821/utility/tasks.c.o
                                                  /home/fx/Upwork/weather-node/output/sketch/weatherSIM808.ino.cpp.o
vTaskSuspend                                      /home/fx/Upwork/weather-node/output/libraries/FreeRTOS821/utility/tasks.c.o
vTaskSuspendAll                                   /home/fx/Upwork/weather-node/output/libraries/FreeRTOS821/utility/tasks.c.o
                                                  /home/fx/Upwork/weather-node/output/libraries/FreeRTOS821/utility/queue.c.o
                                                  /home/fx/Upwork/weather-node/output/libraries/FreeRTOS821/utility/heap_1.c.o
                                                  /home/fx/Upwork/weather-node/output/libraries/FreeRTOS821/utility/event_groups.c.o
vTaskSwitchContext                                /home/fx/Upwork/weather-node/output/libraries/FreeRTOS821/utility/tasks.c.o
                                                  /home/fx/Upwork/weather-node/output/libraries/FreeRTOS821/utility/port.c.o
vtable for Adafruit_Sensor                        /home/fx/Upwork/weather-node/output/libraries/DHT_sensor_library/DHT_U.cpp.o
vtable for DHT_Unified::Humidity                  /home/fx/Upwork/weather-node/output/libraries/DHT_sensor_library/DHT_U.cpp.o
vtable for DHT_Unified::Temperature               /home/fx/Upwork/weather-node/output/libraries/DHT_sensor_library/DHT_U.cpp.o
vtable for HardwareSerial                         /home/fx/Upwork/weather-node/output/core/core.a(HardwareSerial.cpp.o)
vtable for Print                                  /home/fx/Upwork/weather-node/output/core/core.a(Print.cpp.o)
vtable for Stream                                 /home/fx/Upwork/weather-node/output/core/core.a(HardwareSerial.cpp.o)
                                                  /home/fx/Upwork/weather-node/output/core/core.a(usb_serial.cpp.o)
vtable for USBSerial                              /home/fx/Upwork/weather-node/output/core/core.a(usb_serial.cpp.o)
wInterrupt_Mask                                   /home/fx/Upwork/weather-node/output/core/core.a(usb_init.c.o)
waitOk(int)                                       /home/fx/Upwork/weather-node/output/sketch/weatherSIM808.ino.cpp.o
wait_for_state_change                             /home/fx/Upwork/weather-node/output/core/core.a(i2c.c.o)
wirish::priv::board_reset_pll()                   /home/fx/Upwork/weather-node/output/core/wirish/boards_setup.cpp.o
                                                  /home/fx/Upwork/weather-node/output/core/wirish/boards.cpp.o
wirish::priv::board_setup_clock_prescalers()      /home/fx/Upwork/weather-node/output/core/wirish/boards_setup.cpp.o
                                                  /home/fx/Upwork/weather-node/output/core/wirish/boards.cpp.o
wirish::priv::board_setup_gpio()                  /home/fx/Upwork/weather-node/output/core/wirish/boards_setup.cpp.o
                                                  /home/fx/Upwork/weather-node/output/core/wirish/boards.cpp.o
wirish::priv::board_setup_usb()                   /home/fx/Upwork/weather-node/output/core/wirish/boards_setup.cpp.o
                                                  /home/fx/Upwork/weather-node/output/core/wirish/boards.cpp.o
wirish::priv::series_init()                       /home/fx/Upwork/weather-node/output/core/wirish/boards_setup.cpp.o
                                                  /home/fx/Upwork/weather-node/output/core/wirish/boards.cpp.o
wirish::priv::w_adc_pre                           /home/fx/Upwork/weather-node/output/core/wirish/boards_setup.cpp.o
                                                  /home/fx/Upwork/weather-node/output/core/wirish/boards.cpp.o
wirish::priv::w_adc_smp                           /home/fx/Upwork/weather-node/output/core/wirish/boards_setup.cpp.o
                                                  /home/fx/Upwork/weather-node/output/core/wirish/boards.cpp.o
wirish::priv::w_board_pll_cfg                     /home/fx/Upwork/weather-node/output/core/wirish/boards_setup.cpp.o
                                                  /home/fx/Upwork/weather-node/output/core/wirish/boards.cpp.o
xEventGroupClearBits                              /home/fx/Upwork/weather-node/output/libraries/FreeRTOS821/utility/event_groups.c.o
xEventGroupCreate                                 /home/fx/Upwork/weather-node/output/libraries/FreeRTOS821/utility/event_groups.c.o
xEventGroupGetBitsFromISR                         /home/fx/Upwork/weather-node/output/libraries/FreeRTOS821/utility/event_groups.c.o
xEventGroupSetBits                                /home/fx/Upwork/weather-node/output/libraries/FreeRTOS821/utility/event_groups.c.o
xEventGroupSync                                   /home/fx/Upwork/weather-node/output/libraries/FreeRTOS821/utility/event_groups.c.o
xEventGroupWaitBits                               /home/fx/Upwork/weather-node/output/libraries/FreeRTOS821/utility/event_groups.c.o
xPortGetFreeHeapSize                              /home/fx/Upwork/weather-node/output/libraries/FreeRTOS821/utility/heap_1.c.o
xPortStartScheduler                               /home/fx/Upwork/weather-node/output/libraries/FreeRTOS821/utility/port.c.o
                                                  /home/fx/Upwork/weather-node/output/libraries/FreeRTOS821/utility/tasks.c.o
xPortSysTickHandler                               /home/fx/Upwork/weather-node/output/libraries/FreeRTOS821/utility/port.c.o
xQueueCreateCountingSemaphore                     /home/fx/Upwork/weather-node/output/libraries/FreeRTOS821/utility/queue.c.o
xQueueCreateMutex                                 /home/fx/Upwork/weather-node/output/libraries/FreeRTOS821/utility/queue.c.o
xQueueGenericCreate                               /home/fx/Upwork/weather-node/output/libraries/FreeRTOS821/utility/queue.c.o
xQueueGenericReceive                              /home/fx/Upwork/weather-node/output/libraries/FreeRTOS821/utility/queue.c.o
xQueueGenericReset                                /home/fx/Upwork/weather-node/output/libraries/FreeRTOS821/utility/queue.c.o
xQueueGenericSend                                 /home/fx/Upwork/weather-node/output/libraries/FreeRTOS821/utility/queue.c.o
xQueueGenericSendFromISR                          /home/fx/Upwork/weather-node/output/libraries/FreeRTOS821/utility/queue.c.o
xQueueGiveFromISR                                 /home/fx/Upwork/weather-node/output/libraries/FreeRTOS821/utility/queue.c.o
xQueueGiveMutexRecursive                          /home/fx/Upwork/weather-node/output/libraries/FreeRTOS821/utility/queue.c.o
xQueueIsQueueEmptyFromISR                         /home/fx/Upwork/weather-node/output/libraries/FreeRTOS821/utility/queue.c.o
xQueueIsQueueFullFromISR                          /home/fx/Upwork/weather-node/output/libraries/FreeRTOS821/utility/queue.c.o
xQueuePeekFromISR                                 /home/fx/Upwork/weather-node/output/libraries/FreeRTOS821/utility/queue.c.o
xQueueReceiveFromISR                              /home/fx/Upwork/weather-node/output/libraries/FreeRTOS821/utility/queue.c.o
xQueueTakeMutexRecursive                          /home/fx/Upwork/weather-node/output/libraries/FreeRTOS821/utility/queue.c.o
xTaskCheckForTimeOut                              /home/fx/Upwork/weather-node/output/libraries/FreeRTOS821/utility/tasks.c.o
                                                  /home/fx/Upwork/weather-node/output/libraries/FreeRTOS821/utility/queue.c.o
xTaskGenericCreate                                /home/fx/Upwork/weather-node/output/libraries/FreeRTOS821/utility/tasks.c.o
                                                  /home/fx/Upwork/weather-node/output/sketch/weatherSIM808.ino.cpp.o
xTaskGenericNotify                                /home/fx/Upwork/weather-node/output/libraries/FreeRTOS821/utility/tasks.c.o
xTaskGetCurrentTaskHandle                         /home/fx/Upwork/weather-node/output/libraries/FreeRTOS821/utility/tasks.c.o
                                                  /home/fx/Upwork/weather-node/output/libraries/FreeRTOS821/utility/queue.c.o
xTaskGetTickCount                                 /home/fx/Upwork/weather-node/output/libraries/FreeRTOS821/utility/tasks.c.o
xTaskGetTickCountFromISR                          /home/fx/Upwork/weather-node/output/libraries/FreeRTOS821/utility/tasks.c.o
xTaskIncrementTick                                /home/fx/Upwork/weather-node/output/libraries/FreeRTOS821/utility/tasks.c.o
                                                  /home/fx/Upwork/weather-node/output/libraries/FreeRTOS821/utility/port.c.o
xTaskNotifyFromISR                                /home/fx/Upwork/weather-node/output/libraries/FreeRTOS821/utility/tasks.c.o
xTaskNotifyWait                                   /home/fx/Upwork/weather-node/output/libraries/FreeRTOS821/utility/tasks.c.o
xTaskPriorityDisinherit                           /home/fx/Upwork/weather-node/output/libraries/FreeRTOS821/utility/tasks.c.o
                                                  /home/fx/Upwork/weather-node/output/libraries/FreeRTOS821/utility/queue.c.o
xTaskRemoveFromEventList                          /home/fx/Upwork/weather-node/output/libraries/FreeRTOS821/utility/tasks.c.o
                                                  /home/fx/Upwork/weather-node/output/libraries/FreeRTOS821/utility/queue.c.o
xTaskRemoveFromUnorderedEventList                 /home/fx/Upwork/weather-node/output/libraries/FreeRTOS821/utility/tasks.c.o
                                                  /home/fx/Upwork/weather-node/output/libraries/FreeRTOS821/utility/event_groups.c.o
xTaskResumeAll                                    /home/fx/Upwork/weather-node/output/libraries/FreeRTOS821/utility/tasks.c.o
                                                  /home/fx/Upwork/weather-node/output/libraries/FreeRTOS821/utility/queue.c.o
                                                  /home/fx/Upwork/weather-node/output/libraries/FreeRTOS821/utility/heap_1.c.o
                                                  /home/fx/Upwork/weather-node/output/libraries/FreeRTOS821/utility/event_groups.c.o
xTaskResumeFromISR                                /home/fx/Upwork/weather-node/output/libraries/FreeRTOS821/utility/tasks.c.o
yield                                             /home/fx/Upwork/weather-node/output/core/core.a(hooks.c.o)
                                                  /home/fx/Upwork/weather-node/output/core/core.a(wirish_time.cpp.o)
