Archive member included because of file (symbol)

c:\Users\fx\Upwork\weather-node\output\core\core.a(HardwareSerial.cpp.o)
                              c:\Users\fx\Upwork\weather-node\output\sketch\weatherSIM808.ino.cpp.o (HardwareSerial::read())
c:\Users\fx\Upwork\weather-node\output\core\core.a(Print.cpp.o)
                              c:\Users\fx\Upwork\weather-node\output\core\core.a(HardwareSerial.cpp.o) (Print::write(void const*, unsigned long))
c:\Users\fx\Upwork\weather-node\output\core\core.a(cxxabi-compat.cpp.o)
                              c:\Users\fx\Upwork\weather-node\output\libraries\DHT_sensor_library\DHT_U.cpp.o (__cxa_pure_virtual)
c:\Users\fx\Upwork\weather-node\output\core\core.a(adc.c.o)
                              c:\Users\fx\Upwork\weather-node\output\core\wirish\boards.cpp.o (adc_set_sample_rate)
c:\Users\fx\Upwork\weather-node\output\core\core.a(adc_f1.c.o)
                              (__irq_adc)
c:\Users\fx\Upwork\weather-node\output\core\core.a(dma_f1.c.o)
                              (__irq_dma1_channel1)
c:\Users\fx\Upwork\weather-node\output\core\core.a(exc.S.o)
                              (__exc_nmi)
c:\Users\fx\Upwork\weather-node\output\core\core.a(exti.c.o)
                              (__irq_exti0)
c:\Users\fx\Upwork\weather-node\output\core\core.a(exti_f1.c.o)
                              c:\Users\fx\Upwork\weather-node\output\core\core.a(exti.c.o) (exti_select)
c:\Users\fx\Upwork\weather-node\output\core\core.a(flash.c.o)
                              c:\Users\fx\Upwork\weather-node\output\core\wirish\boards.cpp.o (flash_set_latency)
c:\Users\fx\Upwork\weather-node\output\core\core.a(gpio_f1.c.o)
                              c:\Users\fx\Upwork\weather-node\output\core\wirish\boards_setup.cpp.o (gpio_init_all)
c:\Users\fx\Upwork\weather-node\output\core\core.a(i2c_f1.c.o)
                              (__irq_i2c1_ev)
c:\Users\fx\Upwork\weather-node\output\core\core.a(nvic.c.o)
                              c:\Users\fx\Upwork\weather-node\output\core\core.a(i2c_f1.c.o) (nvic_irq_set_priority)
c:\Users\fx\Upwork\weather-node\output\core\core.a(rcc.c.o)
                              c:\Users\fx\Upwork\weather-node\output\core\wirish\boards.cpp.o (rcc_switch_sysclk)
c:\Users\fx\Upwork\weather-node\output\core\core.a(rcc_f1.c.o)
                              c:\Users\fx\Upwork\weather-node\output\core\wirish\boards.cpp.o (rcc_configure_pll)
c:\Users\fx\Upwork\weather-node\output\core\core.a(isrs.S.o)
                              (__stm32reservedexception7)
c:\Users\fx\Upwork\weather-node\output\core\core.a(vector_table.S.o)
                              (__stm32_vector_table)
c:\Users\fx\Upwork\weather-node\output\core\core.a(systick.c.o)
                              c:\Users\fx\Upwork\weather-node\output\core\wirish\boards.cpp.o (systick_init)
c:\Users\fx\Upwork\weather-node\output\core\core.a(timer.c.o)
                              c:\Users\fx\Upwork\weather-node\output\core\wirish\boards.cpp.o (timer_foreach)
c:\Users\fx\Upwork\weather-node\output\core\core.a(usart.c.o)
                              c:\Users\fx\Upwork\weather-node\output\core\core.a(HardwareSerial.cpp.o) (usart_init)
c:\Users\fx\Upwork\weather-node\output\core\core.a(usart_f1.c.o)
                              c:\Users\fx\Upwork\weather-node\output\core\core.a(HardwareSerial.cpp.o) (usart_config_gpios_async)
c:\Users\fx\Upwork\weather-node\output\core\core.a(usart_private.c.o)
                              c:\Users\fx\Upwork\weather-node\output\core\core.a(usart_f1.c.o) (_usart_clock_freq)
c:\Users\fx\Upwork\weather-node\output\core\core.a(usb.c.o)
                              (__irq_usb_lp_can_rx0)
c:\Users\fx\Upwork\weather-node\output\core\core.a(usb_cdcacm.c.o)
                              c:\Users\fx\Upwork\weather-node\output\core\core.a(usb.c.o) (User_Standard_Requests)
c:\Users\fx\Upwork\weather-node\output\core\core.a(usb_reg_map.c.o)
                              c:\Users\fx\Upwork\weather-node\output\core\core.a(usb_cdcacm.c.o) (usb_set_ep_rx_count)
c:\Users\fx\Upwork\weather-node\output\core\core.a(usb_core.c.o)
                              c:\Users\fx\Upwork\weather-node\output\core\core.a(usb_cdcacm.c.o) (Standard_GetDescriptorData)
c:\Users\fx\Upwork\weather-node\output\core\core.a(usb_init.c.o)
                              c:\Users\fx\Upwork\weather-node\output\core\core.a(usb.c.o) (pInformation)
c:\Users\fx\Upwork\weather-node\output\core\core.a(usb_mem.c.o)
                              c:\Users\fx\Upwork\weather-node\output\core\core.a(usb_core.c.o) (UserToPMABufferCopy)
c:\Users\fx\Upwork\weather-node\output\core\core.a(usb_regs.c.o)
                              c:\Users\fx\Upwork\weather-node\output\core\core.a(usb_core.c.o) (SetEPTxStatus)
c:\Users\fx\Upwork\weather-node\output\core\core.a(util.c.o)
                              c:\Users\fx\Upwork\weather-node\output\core\core.a(exc.S.o) (__error)
c:\Users\fx\Upwork\weather-node\output\core\core.a(main.cpp.o)
                              (main)
c:\Users\fx\Upwork\weather-node\output\core\core.a(new.cpp.o)
                              c:\Users\fx\Upwork\weather-node\output\libraries\DHT_sensor_library\DHT_U.cpp.o (operator delete(void*))
c:\Users\fx\Upwork\weather-node\output\core\core.a(wirish_digital_f1.cpp.o)
                              c:\Users\fx\Upwork\weather-node\output\sketch\weatherSIM808.ino.cpp.o (pinMode(unsigned char, WiringPinMode))
c:\Users\fx\Upwork\weather-node\output\core\core.a(usb_serial.cpp.o)
                              c:\Users\fx\Upwork\weather-node\output\core\wirish\boards_setup.cpp.o (USBSerial::begin())
c:\Users\fx\Upwork\weather-node\output\core\core.a(wirish_digital.cpp.o)
                              c:\Users\fx\Upwork\weather-node\output\libraries\DHT_sensor_library\DHT.cpp.o (digitalRead(unsigned char))
c:\Users\fx\Upwork\weather-node\output\core\core.a(wirish_time.cpp.o)
                              c:\Users\fx\Upwork\weather-node\output\libraries\DHT_sensor_library\DHT.cpp.o (delay(unsigned long))
c:\Users\fx\Upwork\weather-node\output\core\core.a(hooks.c.o)
                              c:\Users\fx\Upwork\weather-node\output\core\core.a(wirish_time.cpp.o) (yield)
c:\Users\fx\Upwork\weather-node\output\core\core.a(bkp_f1.c.o)
                              c:\Users\fx\Upwork\weather-node\output\core\core.a(usb_serial.cpp.o) (bkp_init)
c:\Users\fx\Upwork\weather-node\output\core\core.a(dma.c.o)
                              c:\Users\fx\Upwork\weather-node\output\core\core.a(dma_f1.c.o) (_dma_addr_type)
c:\Users\fx\Upwork\weather-node\output\core\core.a(gpio.c.o)
                              c:\Users\fx\Upwork\weather-node\output\core\core.a(gpio_f1.c.o) (gpio_init)
c:\Users\fx\Upwork\weather-node\output\core\core.a(i2c.c.o)
                              c:\Users\fx\Upwork\weather-node\output\core\core.a(i2c_f1.c.o) (_i2c_irq_handler)
c:/users/fx/appdata/local/arduino15/packages/arduino/tools/arm-none-eabi-gcc/4.8.3-2014q1/bin/../lib/gcc/arm-none-eabi/4.8.3/../../../../arm-none-eabi/lib/armv7-m\libm.a(lib_a-w_sqrt.o)
                              c:\Users\fx\Upwork\weather-node\output\libraries\DHT_sensor_library\DHT.cpp.o (sqrt)
c:/users/fx/appdata/local/arduino15/packages/arduino/tools/arm-none-eabi-gcc/4.8.3-2014q1/bin/../lib/gcc/arm-none-eabi/4.8.3/../../../../arm-none-eabi/lib/armv7-m\libm.a(lib_a-e_sqrt.o)
                              c:/users/fx/appdata/local/arduino15/packages/arduino/tools/arm-none-eabi-gcc/4.8.3-2014q1/bin/../lib/gcc/arm-none-eabi/4.8.3/../../../../arm-none-eabi/lib/armv7-m\libm.a(lib_a-w_sqrt.o) (__ieee754_sqrt)
c:/users/fx/appdata/local/arduino15/packages/arduino/tools/arm-none-eabi-gcc/4.8.3-2014q1/bin/../lib/gcc/arm-none-eabi/4.8.3/../../../../arm-none-eabi/lib/armv7-m\libm.a(lib_a-s_fpclassify.o)
                              c:/users/fx/appdata/local/arduino15/packages/arduino/tools/arm-none-eabi-gcc/4.8.3-2014q1/bin/../lib/gcc/arm-none-eabi/4.8.3/../../../../arm-none-eabi/lib/armv7-m\libm.a(lib_a-w_sqrt.o) (__fpclassifyd)
c:/users/fx/appdata/local/arduino15/packages/arduino/tools/arm-none-eabi-gcc/4.8.3-2014q1/bin/../lib/gcc/arm-none-eabi/4.8.3/../../../../arm-none-eabi/lib/armv7-m\libm.a(lib_a-s_lib_ver.o)
                              c:/users/fx/appdata/local/arduino15/packages/arduino/tools/arm-none-eabi-gcc/4.8.3-2014q1/bin/../lib/gcc/arm-none-eabi/4.8.3/../../../../arm-none-eabi/lib/armv7-m\libm.a(lib_a-w_sqrt.o) (__fdlib_version)
c:/users/fx/appdata/local/arduino15/packages/arduino/tools/arm-none-eabi-gcc/4.8.3-2014q1/bin/../lib/gcc/arm-none-eabi/4.8.3/../../../../arm-none-eabi/lib/armv7-m\libm.a(lib_a-s_matherr.o)
                              c:/users/fx/appdata/local/arduino15/packages/arduino/tools/arm-none-eabi-gcc/4.8.3-2014q1/bin/../lib/gcc/arm-none-eabi/4.8.3/../../../../arm-none-eabi/lib/armv7-m\libm.a(lib_a-w_sqrt.o) (matherr)
c:/users/fx/appdata/local/arduino15/packages/arduino/tools/arm-none-eabi-gcc/4.8.3-2014q1/bin/../lib/gcc/arm-none-eabi/4.8.3/armv7-m\libgcc.a(_arm_addsubdf3.o)
                              c:\Users\fx\Upwork\weather-node\output\libraries\DHT_sensor_library\DHT.cpp.o (__aeabi_dsub)
c:/users/fx/appdata/local/arduino15/packages/arduino/tools/arm-none-eabi-gcc/4.8.3-2014q1/bin/../lib/gcc/arm-none-eabi/4.8.3/armv7-m\libgcc.a(_arm_muldivdf3.o)
                              c:\Users\fx\Upwork\weather-node\output\libraries\DHT_sensor_library\DHT.cpp.o (__aeabi_dmul)
c:/users/fx/appdata/local/arduino15/packages/arduino/tools/arm-none-eabi-gcc/4.8.3-2014q1/bin/../lib/gcc/arm-none-eabi/4.8.3/armv7-m\libgcc.a(_arm_cmpdf2.o)
                              c:\Users\fx\Upwork\weather-node\output\core\core.a(Print.cpp.o) (__aeabi_dcmplt)
c:/users/fx/appdata/local/arduino15/packages/arduino/tools/arm-none-eabi-gcc/4.8.3-2014q1/bin/../lib/gcc/arm-none-eabi/4.8.3/armv7-m\libgcc.a(_arm_fixdfsi.o)
                              c:\Users\fx\Upwork\weather-node\output\core\core.a(Print.cpp.o) (__aeabi_d2iz)
c:/users/fx/appdata/local/arduino15/packages/arduino/tools/arm-none-eabi-gcc/4.8.3-2014q1/bin/../lib/gcc/arm-none-eabi/4.8.3/armv7-m\libgcc.a(_arm_truncdfsf2.o)
                              c:\Users\fx\Upwork\weather-node\output\libraries\DHT_sensor_library\DHT.cpp.o (__aeabi_d2f)
c:/users/fx/appdata/local/arduino15/packages/arduino/tools/arm-none-eabi-gcc/4.8.3-2014q1/bin/../lib/gcc/arm-none-eabi/4.8.3/armv7-m\libgcc.a(_arm_addsubsf3.o)
                              c:\Users\fx\Upwork\weather-node\output\libraries\DHT_sensor_library\DHT.cpp.o (__aeabi_fsub)
c:/users/fx/appdata/local/arduino15/packages/arduino/tools/arm-none-eabi-gcc/4.8.3-2014q1/bin/../lib/gcc/arm-none-eabi/4.8.3/armv7-m\libgcc.a(_arm_cmpsf2.o)
                              c:\Users\fx\Upwork\weather-node\output\libraries\DHT_sensor_library\DHT.cpp.o (__aeabi_fcmplt)
c:/users/fx/appdata/local/arduino15/packages/arduino/tools/arm-none-eabi-gcc/4.8.3-2014q1/bin/../lib/gcc/arm-none-eabi/4.8.3/armv7-m\libgcc.a(_aeabi_uldivmod.o)
                              c:\Users\fx\Upwork\weather-node\output\core\core.a(Print.cpp.o) (__aeabi_uldivmod)
c:/users/fx/appdata/local/arduino15/packages/arduino/tools/arm-none-eabi-gcc/4.8.3-2014q1/bin/../lib/gcc/arm-none-eabi/4.8.3/armv7-m\libgcc.a(_fixdfdi.o)
                              c:\Users\fx\Upwork\weather-node\output\core\core.a(Print.cpp.o) (__aeabi_d2lz)
c:/users/fx/appdata/local/arduino15/packages/arduino/tools/arm-none-eabi-gcc/4.8.3-2014q1/bin/../lib/gcc/arm-none-eabi/4.8.3/armv7-m\libgcc.a(_fixunsdfdi.o)
                              c:/users/fx/appdata/local/arduino15/packages/arduino/tools/arm-none-eabi-gcc/4.8.3-2014q1/bin/../lib/gcc/arm-none-eabi/4.8.3/armv7-m\libgcc.a(_fixdfdi.o) (__aeabi_d2ulz)
c:/users/fx/appdata/local/arduino15/packages/arduino/tools/arm-none-eabi-gcc/4.8.3-2014q1/bin/../lib/gcc/arm-none-eabi/4.8.3/armv7-m\libgcc.a(bpabi.o)
                              c:/users/fx/appdata/local/arduino15/packages/arduino/tools/arm-none-eabi-gcc/4.8.3-2014q1/bin/../lib/gcc/arm-none-eabi/4.8.3/armv7-m\libgcc.a(_aeabi_uldivmod.o) (__gnu_uldivmod_helper)
c:/users/fx/appdata/local/arduino15/packages/arduino/tools/arm-none-eabi-gcc/4.8.3-2014q1/bin/../lib/gcc/arm-none-eabi/4.8.3/armv7-m\libgcc.a(_dvmd_tls.o)
                              c:/users/fx/appdata/local/arduino15/packages/arduino/tools/arm-none-eabi-gcc/4.8.3-2014q1/bin/../lib/gcc/arm-none-eabi/4.8.3/armv7-m\libgcc.a(_aeabi_uldivmod.o) (__aeabi_ldiv0)
c:/users/fx/appdata/local/arduino15/packages/arduino/tools/arm-none-eabi-gcc/4.8.3-2014q1/bin/../lib/gcc/arm-none-eabi/4.8.3/armv7-m\libgcc.a(_arm_fixunsdfsi.o)
                              c:/users/fx/appdata/local/arduino15/packages/arduino/tools/arm-none-eabi-gcc/4.8.3-2014q1/bin/../lib/gcc/arm-none-eabi/4.8.3/armv7-m\libgcc.a(_fixunsdfdi.o) (__aeabi_d2uiz)
c:/users/fx/appdata/local/arduino15/packages/arduino/tools/arm-none-eabi-gcc/4.8.3-2014q1/bin/../lib/gcc/arm-none-eabi/4.8.3/armv7-m\libgcc.a(_divdi3.o)
                              c:/users/fx/appdata/local/arduino15/packages/arduino/tools/arm-none-eabi-gcc/4.8.3-2014q1/bin/../lib/gcc/arm-none-eabi/4.8.3/armv7-m\libgcc.a(bpabi.o) (__divdi3)
c:/users/fx/appdata/local/arduino15/packages/arduino/tools/arm-none-eabi-gcc/4.8.3-2014q1/bin/../lib/gcc/arm-none-eabi/4.8.3/armv7-m\libgcc.a(_udivdi3.o)
                              c:/users/fx/appdata/local/arduino15/packages/arduino/tools/arm-none-eabi-gcc/4.8.3-2014q1/bin/../lib/gcc/arm-none-eabi/4.8.3/armv7-m\libgcc.a(bpabi.o) (__udivdi3)
c:/users/fx/appdata/local/arduino15/packages/arduino/tools/arm-none-eabi-gcc/4.8.3-2014q1/bin/../lib/gcc/arm-none-eabi/4.8.3/../../../../arm-none-eabi/lib/armv7-m\libc.a(lib_a-errno.o)
                              c:\Users\fx\Upwork\weather-node\output\core\wirish\syscalls.c.o (__errno)
c:/users/fx/appdata/local/arduino15/packages/arduino/tools/arm-none-eabi-gcc/4.8.3-2014q1/bin/../lib/gcc/arm-none-eabi/4.8.3/../../../../arm-none-eabi/lib/armv7-m\libc.a(lib_a-exit.o)
                              c:/users/fx/appdata/local/arduino15/packages/arduino/tools/arm-none-eabi-gcc/4.8.3-2014q1/bin/../lib/gcc/arm-none-eabi/4.8.3/../../../../arm-none-eabi/lib/armv7-m/crt0.o (exit)
c:/users/fx/appdata/local/arduino15/packages/arduino/tools/arm-none-eabi-gcc/4.8.3-2014q1/bin/../lib/gcc/arm-none-eabi/4.8.3/../../../../arm-none-eabi/lib/armv7-m\libc.a(lib_a-impure.o)
                              c:/users/fx/appdata/local/arduino15/packages/arduino/tools/arm-none-eabi-gcc/4.8.3-2014q1/bin/../lib/gcc/arm-none-eabi/4.8.3/../../../../arm-none-eabi/lib/armv7-m\libc.a(lib_a-exit.o) (_global_impure_ptr)
c:/users/fx/appdata/local/arduino15/packages/arduino/tools/arm-none-eabi-gcc/4.8.3-2014q1/bin/../lib/gcc/arm-none-eabi/4.8.3/../../../../arm-none-eabi/lib/armv7-m\libc.a(lib_a-init.o)
                              c:/users/fx/appdata/local/arduino15/packages/arduino/tools/arm-none-eabi-gcc/4.8.3-2014q1/bin/../lib/gcc/arm-none-eabi/4.8.3/../../../../arm-none-eabi/lib/armv7-m/crt0.o (__libc_init_array)
c:/users/fx/appdata/local/arduino15/packages/arduino/tools/arm-none-eabi-gcc/4.8.3-2014q1/bin/../lib/gcc/arm-none-eabi/4.8.3/../../../../arm-none-eabi/lib/armv7-m\libc.a(lib_a-malloc.o)
                              c:\Users\fx\Upwork\weather-node\output\core\core.a(new.cpp.o) (malloc)
c:/users/fx/appdata/local/arduino15/packages/arduino/tools/arm-none-eabi-gcc/4.8.3-2014q1/bin/../lib/gcc/arm-none-eabi/4.8.3/../../../../arm-none-eabi/lib/armv7-m\libc.a(lib_a-mallocr.o)
                              c:/users/fx/appdata/local/arduino15/packages/arduino/tools/arm-none-eabi-gcc/4.8.3-2014q1/bin/../lib/gcc/arm-none-eabi/4.8.3/../../../../arm-none-eabi/lib/armv7-m\libc.a(lib_a-malloc.o) (_malloc_r)
c:/users/fx/appdata/local/arduino15/packages/arduino/tools/arm-none-eabi-gcc/4.8.3-2014q1/bin/../lib/gcc/arm-none-eabi/4.8.3/../../../../arm-none-eabi/lib/armv7-m\libc.a(lib_a-memchr-stub.o)
                              c:\Users\fx\Upwork\weather-node\output\sketch\weatherSIM808.ino.cpp.o (memchr)
c:/users/fx/appdata/local/arduino15/packages/arduino/tools/arm-none-eabi-gcc/4.8.3-2014q1/bin/../lib/gcc/arm-none-eabi/4.8.3/../../../../arm-none-eabi/lib/armv7-m\libc.a(lib_a-memcmp.o)
                              c:\Users\fx\Upwork\weather-node\output\sketch\weatherSIM808.ino.cpp.o (memcmp)
c:/users/fx/appdata/local/arduino15/packages/arduino/tools/arm-none-eabi-gcc/4.8.3-2014q1/bin/../lib/gcc/arm-none-eabi/4.8.3/../../../../arm-none-eabi/lib/armv7-m\libc.a(lib_a-memcpy.o)
                              c:\Users\fx\Upwork\weather-node\output\libraries\FreeRTOS821\utility\queue.c.o (memcpy)
c:/users/fx/appdata/local/arduino15/packages/arduino/tools/arm-none-eabi-gcc/4.8.3-2014q1/bin/../lib/gcc/arm-none-eabi/4.8.3/../../../../arm-none-eabi/lib/armv7-m\libc.a(lib_a-memset.o)
                              c:/users/fx/appdata/local/arduino15/packages/arduino/tools/arm-none-eabi-gcc/4.8.3-2014q1/bin/../lib/gcc/arm-none-eabi/4.8.3/../../../../arm-none-eabi/lib/armv7-m/crt0.o (memset)
c:/users/fx/appdata/local/arduino15/packages/arduino/tools/arm-none-eabi-gcc/4.8.3-2014q1/bin/../lib/gcc/arm-none-eabi/4.8.3/../../../../arm-none-eabi/lib/armv7-m\libc.a(lib_a-mlock.o)
                              c:/users/fx/appdata/local/arduino15/packages/arduino/tools/arm-none-eabi-gcc/4.8.3-2014q1/bin/../lib/gcc/arm-none-eabi/4.8.3/../../../../arm-none-eabi/lib/armv7-m\libc.a(lib_a-mallocr.o) (__malloc_lock)
c:/users/fx/appdata/local/arduino15/packages/arduino/tools/arm-none-eabi-gcc/4.8.3-2014q1/bin/../lib/gcc/arm-none-eabi/4.8.3/../../../../arm-none-eabi/lib/armv7-m\libc.a(lib_a-sbrkr.o)
                              c:/users/fx/appdata/local/arduino15/packages/arduino/tools/arm-none-eabi-gcc/4.8.3-2014q1/bin/../lib/gcc/arm-none-eabi/4.8.3/../../../../arm-none-eabi/lib/armv7-m\libc.a(lib_a-mallocr.o) (_sbrk_r)
c:/users/fx/appdata/local/arduino15/packages/arduino/tools/arm-none-eabi-gcc/4.8.3-2014q1/bin/../lib/gcc/arm-none-eabi/4.8.3/../../../../arm-none-eabi/lib/armv7-m\libc.a(lib_a-sprintf.o)
                              c:\Users\fx\Upwork\weather-node\output\sketch\weatherSIM808.ino.cpp.o (sprintf)
c:/users/fx/appdata/local/arduino15/packages/arduino/tools/arm-none-eabi-gcc/4.8.3-2014q1/bin/../lib/gcc/arm-none-eabi/4.8.3/../../../../arm-none-eabi/lib/armv7-m\libc.a(lib_a-strcpy.o)
                              c:\Users\fx\Upwork\weather-node\output\core\core.a(cxxabi-compat.cpp.o) (strcpy)
c:/users/fx/appdata/local/arduino15/packages/arduino/tools/arm-none-eabi-gcc/4.8.3-2014q1/bin/../lib/gcc/arm-none-eabi/4.8.3/../../../../arm-none-eabi/lib/armv7-m\libc.a(lib_a-strlen.o)
                              c:\Users\fx\Upwork\weather-node\output\sketch\weatherSIM808.ino.cpp.o (strlen)
c:/users/fx/appdata/local/arduino15/packages/arduino/tools/arm-none-eabi-gcc/4.8.3-2014q1/bin/../lib/gcc/arm-none-eabi/4.8.3/../../../../arm-none-eabi/lib/armv7-m\libc.a(lib_a-strncpy.o)
                              c:\Users\fx\Upwork\weather-node\output\libraries\DHT_sensor_library\DHT_U.cpp.o (strncpy)
c:/users/fx/appdata/local/arduino15/packages/arduino/tools/arm-none-eabi-gcc/4.8.3-2014q1/bin/../lib/gcc/arm-none-eabi/4.8.3/../../../../arm-none-eabi/lib/armv7-m\libc.a(lib_a-svfprintf.o)
                              c:/users/fx/appdata/local/arduino15/packages/arduino/tools/arm-none-eabi-gcc/4.8.3-2014q1/bin/../lib/gcc/arm-none-eabi/4.8.3/../../../../arm-none-eabi/lib/armv7-m\libc.a(lib_a-sprintf.o) (_svfprintf_r)
c:/users/fx/appdata/local/arduino15/packages/arduino/tools/arm-none-eabi-gcc/4.8.3-2014q1/bin/../lib/gcc/arm-none-eabi/4.8.3/../../../../arm-none-eabi/lib/armv7-m\libc.a(lib_a-__call_atexit.o)
                              c:/users/fx/appdata/local/arduino15/packages/arduino/tools/arm-none-eabi-gcc/4.8.3-2014q1/bin/../lib/gcc/arm-none-eabi/4.8.3/../../../../arm-none-eabi/lib/armv7-m\libc.a(lib_a-exit.o) (__call_exitprocs)
c:/users/fx/appdata/local/arduino15/packages/arduino/tools/arm-none-eabi-gcc/4.8.3-2014q1/bin/../lib/gcc/arm-none-eabi/4.8.3/../../../../arm-none-eabi/lib/armv7-m\libc.a(lib_a-atexit.o)
                              c:/users/fx/appdata/local/arduino15/packages/arduino/tools/arm-none-eabi-gcc/4.8.3-2014q1/bin/../lib/gcc/arm-none-eabi/4.8.3/../../../../arm-none-eabi/lib/armv7-m\libc.a(lib_a-__call_atexit.o) (atexit)
c:/users/fx/appdata/local/arduino15/packages/arduino/tools/arm-none-eabi-gcc/4.8.3-2014q1/bin/../lib/gcc/arm-none-eabi/4.8.3/../../../../arm-none-eabi/lib/armv7-m\libc.a(lib_a-dtoa.o)
                              c:/users/fx/appdata/local/arduino15/packages/arduino/tools/arm-none-eabi-gcc/4.8.3-2014q1/bin/../lib/gcc/arm-none-eabi/4.8.3/../../../../arm-none-eabi/lib/armv7-m\libc.a(lib_a-svfprintf.o) (_dtoa_r)
c:/users/fx/appdata/local/arduino15/packages/arduino/tools/arm-none-eabi-gcc/4.8.3-2014q1/bin/../lib/gcc/arm-none-eabi/4.8.3/../../../../arm-none-eabi/lib/armv7-m\libc.a(lib_a-fini.o)
                              c:/users/fx/appdata/local/arduino15/packages/arduino/tools/arm-none-eabi-gcc/4.8.3-2014q1/bin/../lib/gcc/arm-none-eabi/4.8.3/../../../../arm-none-eabi/lib/armv7-m\libc.a(lib_a-__call_atexit.o) (__libc_fini_array)
c:/users/fx/appdata/local/arduino15/packages/arduino/tools/arm-none-eabi-gcc/4.8.3-2014q1/bin/../lib/gcc/arm-none-eabi/4.8.3/../../../../arm-none-eabi/lib/armv7-m\libc.a(lib_a-freer.o)
                              c:/users/fx/appdata/local/arduino15/packages/arduino/tools/arm-none-eabi-gcc/4.8.3-2014q1/bin/../lib/gcc/arm-none-eabi/4.8.3/../../../../arm-none-eabi/lib/armv7-m\libc.a(lib_a-malloc.o) (_free_r)
c:/users/fx/appdata/local/arduino15/packages/arduino/tools/arm-none-eabi-gcc/4.8.3-2014q1/bin/../lib/gcc/arm-none-eabi/4.8.3/../../../../arm-none-eabi/lib/armv7-m\libc.a(lib_a-locale.o)
                              c:/users/fx/appdata/local/arduino15/packages/arduino/tools/arm-none-eabi-gcc/4.8.3-2014q1/bin/../lib/gcc/arm-none-eabi/4.8.3/../../../../arm-none-eabi/lib/armv7-m\libc.a(lib_a-svfprintf.o) (_localeconv_r)
c:/users/fx/appdata/local/arduino15/packages/arduino/tools/arm-none-eabi-gcc/4.8.3-2014q1/bin/../lib/gcc/arm-none-eabi/4.8.3/../../../../arm-none-eabi/lib/armv7-m\libc.a(lib_a-mprec.o)
                              c:/users/fx/appdata/local/arduino15/packages/arduino/tools/arm-none-eabi-gcc/4.8.3-2014q1/bin/../lib/gcc/arm-none-eabi/4.8.3/../../../../arm-none-eabi/lib/armv7-m\libc.a(lib_a-dtoa.o) (_Balloc)
c:/users/fx/appdata/local/arduino15/packages/arduino/tools/arm-none-eabi-gcc/4.8.3-2014q1/bin/../lib/gcc/arm-none-eabi/4.8.3/../../../../arm-none-eabi/lib/armv7-m\libc.a(lib_a-reent.o)
                              c:/users/fx/appdata/local/arduino15/packages/arduino/tools/arm-none-eabi-gcc/4.8.3-2014q1/bin/../lib/gcc/arm-none-eabi/4.8.3/../../../../arm-none-eabi/lib/armv7-m\libc.a(lib_a-sbrkr.o) (errno)
c:/users/fx/appdata/local/arduino15/packages/arduino/tools/arm-none-eabi-gcc/4.8.3-2014q1/bin/../lib/gcc/arm-none-eabi/4.8.3/../../../../arm-none-eabi/lib/armv7-m\libc.a(lib_a-strcmp.o)
                              c:/users/fx/appdata/local/arduino15/packages/arduino/tools/arm-none-eabi-gcc/4.8.3-2014q1/bin/../lib/gcc/arm-none-eabi/4.8.3/../../../../arm-none-eabi/lib/armv7-m\libc.a(lib_a-locale.o) (strcmp)
c:/users/fx/appdata/local/arduino15/packages/arduino/tools/arm-none-eabi-gcc/4.8.3-2014q1/bin/../lib/gcc/arm-none-eabi/4.8.3/../../../../arm-none-eabi/lib/armv7-m\libc.a(lib_a-svfiprintf.o)
                              c:/users/fx/appdata/local/arduino15/packages/arduino/tools/arm-none-eabi-gcc/4.8.3-2014q1/bin/../lib/gcc/arm-none-eabi/4.8.3/../../../../arm-none-eabi/lib/armv7-m\libc.a(lib_a-svfprintf.o) (__ssprint_r)
c:/users/fx/appdata/local/arduino15/packages/arduino/tools/arm-none-eabi-gcc/4.8.3-2014q1/bin/../lib/gcc/arm-none-eabi/4.8.3/../../../../arm-none-eabi/lib/armv7-m\libc.a(lib_a-__atexit.o)
                              c:/users/fx/appdata/local/arduino15/packages/arduino/tools/arm-none-eabi-gcc/4.8.3-2014q1/bin/../lib/gcc/arm-none-eabi/4.8.3/../../../../arm-none-eabi/lib/armv7-m\libc.a(lib_a-atexit.o) (__register_exitproc)
c:/users/fx/appdata/local/arduino15/packages/arduino/tools/arm-none-eabi-gcc/4.8.3-2014q1/bin/../lib/gcc/arm-none-eabi/4.8.3/../../../../arm-none-eabi/lib/armv7-m\libc.a(lib_a-callocr.o)
                              c:/users/fx/appdata/local/arduino15/packages/arduino/tools/arm-none-eabi-gcc/4.8.3-2014q1/bin/../lib/gcc/arm-none-eabi/4.8.3/../../../../arm-none-eabi/lib/armv7-m\libc.a(lib_a-mprec.o) (_calloc_r)
c:/users/fx/appdata/local/arduino15/packages/arduino/tools/arm-none-eabi-gcc/4.8.3-2014q1/bin/../lib/gcc/arm-none-eabi/4.8.3/../../../../arm-none-eabi/lib/armv7-m\libc.a(lib_a-memmove.o)
                              c:/users/fx/appdata/local/arduino15/packages/arduino/tools/arm-none-eabi-gcc/4.8.3-2014q1/bin/../lib/gcc/arm-none-eabi/4.8.3/../../../../arm-none-eabi/lib/armv7-m\libc.a(lib_a-svfiprintf.o) (memmove)
c:/users/fx/appdata/local/arduino15/packages/arduino/tools/arm-none-eabi-gcc/4.8.3-2014q1/bin/../lib/gcc/arm-none-eabi/4.8.3/../../../../arm-none-eabi/lib/armv7-m\libc.a(lib_a-reallocr.o)
                              c:/users/fx/appdata/local/arduino15/packages/arduino/tools/arm-none-eabi-gcc/4.8.3-2014q1/bin/../lib/gcc/arm-none-eabi/4.8.3/../../../../arm-none-eabi/lib/armv7-m\libc.a(lib_a-svfiprintf.o) (_realloc_r)

Allocating common symbols
Common symbol       size              file

SaveRState          0x2               c:\Users\fx\Upwork\weather-node\output\core\core.a(usb.c.o)
SaveState           0x2               c:\Users\fx\Upwork\weather-node\output\core\core.a(usb_init.c.o)
errno               0x4               c:/users/fx/appdata/local/arduino15/packages/arduino/tools/arm-none-eabi-gcc/4.8.3-2014q1/bin/../lib/gcc/arm-none-eabi/4.8.3/../../../../arm-none-eabi/lib/armv7-m\libc.a(lib_a-reent.o)
pProperty           0x4               c:\Users\fx\Upwork\weather-node\output\core\core.a(usb_init.c.o)
EPindex             0x1               c:\Users\fx\Upwork\weather-node\output\core\core.a(usb_init.c.o)
SaveTState          0x2               c:\Users\fx\Upwork\weather-node\output\core\core.a(usb.c.o)
systick_uptime_millis
                    0x4               c:\Users\fx\Upwork\weather-node\output\core\core.a(systick.c.o)
Device_Info         0x1c              c:\Users\fx\Upwork\weather-node\output\core\core.a(usb_init.c.o)
pUser_Standard_Requests
                    0x4               c:\Users\fx\Upwork\weather-node\output\core\core.a(usb_init.c.o)
StatusInfo          0x2               c:\Users\fx\Upwork\weather-node\output\core\core.a(usb_core.c.o)
pInformation        0x4               c:\Users\fx\Upwork\weather-node\output\core\core.a(usb_init.c.o)
ResumeS             0x2               c:\Users\fx\Upwork\weather-node\output\core\core.a(usb.c.o)
wInterrupt_Mask     0x2               c:\Users\fx\Upwork\weather-node\output\core\core.a(usb_init.c.o)

Discarded input sections

 .text          0x00000000        0x0 c:/users/fx/appdata/local/arduino15/packages/arduino/tools/arm-none-eabi-gcc/4.8.3-2014q1/bin/../lib/gcc/arm-none-eabi/4.8.3/armv7-m/crti.o
 .data          0x00000000        0x0 c:/users/fx/appdata/local/arduino15/packages/arduino/tools/arm-none-eabi-gcc/4.8.3-2014q1/bin/../lib/gcc/arm-none-eabi/4.8.3/armv7-m/crti.o
 .bss           0x00000000        0x0 c:/users/fx/appdata/local/arduino15/packages/arduino/tools/arm-none-eabi-gcc/4.8.3-2014q1/bin/../lib/gcc/arm-none-eabi/4.8.3/armv7-m/crti.o
 .data          0x00000000        0x4 c:/users/fx/appdata/local/arduino15/packages/arduino/tools/arm-none-eabi-gcc/4.8.3-2014q1/bin/../lib/gcc/arm-none-eabi/4.8.3/armv7-m/crtbegin.o
 .text          0x00000000       0x74 c:/users/fx/appdata/local/arduino15/packages/arduino/tools/arm-none-eabi-gcc/4.8.3-2014q1/bin/../lib/gcc/arm-none-eabi/4.8.3/../../../../arm-none-eabi/lib/armv7-m/crt0.o
 .data          0x00000000        0x0 c:/users/fx/appdata/local/arduino15/packages/arduino/tools/arm-none-eabi-gcc/4.8.3-2014q1/bin/../lib/gcc/arm-none-eabi/4.8.3/../../../../arm-none-eabi/lib/armv7-m/crt0.o
 .bss           0x00000000        0x0 c:/users/fx/appdata/local/arduino15/packages/arduino/tools/arm-none-eabi-gcc/4.8.3-2014q1/bin/../lib/gcc/arm-none-eabi/4.8.3/../../../../arm-none-eabi/lib/armv7-m/crt0.o
 .ARM.extab     0x00000000        0x0 c:/users/fx/appdata/local/arduino15/packages/arduino/tools/arm-none-eabi-gcc/4.8.3-2014q1/bin/../lib/gcc/arm-none-eabi/4.8.3/../../../../arm-none-eabi/lib/armv7-m/crt0.o
 .ARM.exidx     0x00000000        0x8 c:/users/fx/appdata/local/arduino15/packages/arduino/tools/arm-none-eabi-gcc/4.8.3-2014q1/bin/../lib/gcc/arm-none-eabi/4.8.3/../../../../arm-none-eabi/lib/armv7-m/crt0.o
 .text          0x00000000        0x0 c:\Users\fx\Upwork\weather-node\output\sketch\weatherSIM808.ino.cpp.o
 .data          0x00000000        0x0 c:\Users\fx\Upwork\weather-node\output\sketch\weatherSIM808.ino.cpp.o
 .bss           0x00000000        0x0 c:\Users\fx\Upwork\weather-node\output\sketch\weatherSIM808.ino.cpp.o
 .text._Z13displayValuesv
                0x00000000       0x80 c:\Users\fx\Upwork\weather-node\output\sketch\weatherSIM808.ino.cpp.o
 .text._Z11showBuffersv
                0x00000000       0xc8 c:\Users\fx\Upwork\weather-node\output\sketch\weatherSIM808.ino.cpp.o
 .text          0x00000000        0x0 c:\Users\fx\Upwork\weather-node\output\libraries\FreeRTOS821\MapleFreeRTOS821.cpp.o
 .data          0x00000000        0x0 c:\Users\fx\Upwork\weather-node\output\libraries\FreeRTOS821\MapleFreeRTOS821.cpp.o
 .bss           0x00000000        0x0 c:\Users\fx\Upwork\weather-node\output\libraries\FreeRTOS821\MapleFreeRTOS821.cpp.o
 .text          0x00000000        0x0 c:\Users\fx\Upwork\weather-node\output\libraries\FreeRTOS821\utility\croutine.c.o
 .data          0x00000000        0x0 c:\Users\fx\Upwork\weather-node\output\libraries\FreeRTOS821\utility\croutine.c.o
 .bss           0x00000000        0x0 c:\Users\fx\Upwork\weather-node\output\libraries\FreeRTOS821\utility\croutine.c.o
 .text          0x00000000        0x0 c:\Users\fx\Upwork\weather-node\output\libraries\FreeRTOS821\utility\event_groups.c.o
 .data          0x00000000        0x0 c:\Users\fx\Upwork\weather-node\output\libraries\FreeRTOS821\utility\event_groups.c.o
 .bss           0x00000000        0x0 c:\Users\fx\Upwork\weather-node\output\libraries\FreeRTOS821\utility\event_groups.c.o
 .text.xEventGroupCreate
                0x00000000       0x1a c:\Users\fx\Upwork\weather-node\output\libraries\FreeRTOS821\utility\event_groups.c.o
 .text.xEventGroupWaitBits
                0x00000000       0xa8 c:\Users\fx\Upwork\weather-node\output\libraries\FreeRTOS821\utility\event_groups.c.o
 .text.xEventGroupClearBits
                0x00000000       0x1a c:\Users\fx\Upwork\weather-node\output\libraries\FreeRTOS821\utility\event_groups.c.o
 .text.xEventGroupGetBitsFromISR
                0x00000000       0x12 c:\Users\fx\Upwork\weather-node\output\libraries\FreeRTOS821\utility\event_groups.c.o
 .text.xEventGroupSetBits
                0x00000000       0x5a c:\Users\fx\Upwork\weather-node\output\libraries\FreeRTOS821\utility\event_groups.c.o
 .text.xEventGroupSync
                0x00000000       0x80 c:\Users\fx\Upwork\weather-node\output\libraries\FreeRTOS821\utility\event_groups.c.o
 .text.vEventGroupDelete
                0x00000000       0x26 c:\Users\fx\Upwork\weather-node\output\libraries\FreeRTOS821\utility\event_groups.c.o
 .text.vEventGroupSetBitsCallback
                0x00000000        0x4 c:\Users\fx\Upwork\weather-node\output\libraries\FreeRTOS821\utility\event_groups.c.o
 .text.vEventGroupClearBitsCallback
                0x00000000        0x4 c:\Users\fx\Upwork\weather-node\output\libraries\FreeRTOS821\utility\event_groups.c.o
 .text.uxEventGroupGetNumber
                0x00000000        0x6 c:\Users\fx\Upwork\weather-node\output\libraries\FreeRTOS821\utility\event_groups.c.o
 .text          0x00000000        0x0 c:\Users\fx\Upwork\weather-node\output\libraries\FreeRTOS821\utility\heap_1.c.o
 .data          0x00000000        0x0 c:\Users\fx\Upwork\weather-node\output\libraries\FreeRTOS821\utility\heap_1.c.o
 .bss           0x00000000        0x0 c:\Users\fx\Upwork\weather-node\output\libraries\FreeRTOS821\utility\heap_1.c.o
 .text.vPortInitialiseBlocks
                0x00000000        0xc c:\Users\fx\Upwork\weather-node\output\libraries\FreeRTOS821\utility\heap_1.c.o
 .text.xPortGetFreeHeapSize
                0x00000000       0x10 c:\Users\fx\Upwork\weather-node\output\libraries\FreeRTOS821\utility\heap_1.c.o
 .text          0x00000000        0x0 c:\Users\fx\Upwork\weather-node\output\libraries\FreeRTOS821\utility\list.c.o
 .data          0x00000000        0x0 c:\Users\fx\Upwork\weather-node\output\libraries\FreeRTOS821\utility\list.c.o
 .bss           0x00000000        0x0 c:\Users\fx\Upwork\weather-node\output\libraries\FreeRTOS821\utility\list.c.o
 .text          0x00000000        0x0 c:\Users\fx\Upwork\weather-node\output\libraries\FreeRTOS821\utility\port.c.o
 .data          0x00000000        0x0 c:\Users\fx\Upwork\weather-node\output\libraries\FreeRTOS821\utility\port.c.o
 .bss           0x00000000        0x0 c:\Users\fx\Upwork\weather-node\output\libraries\FreeRTOS821\utility\port.c.o
 .text.vPortEndScheduler
                0x00000000        0x2 c:\Users\fx\Upwork\weather-node\output\libraries\FreeRTOS821\utility\port.c.o
 .text.vPortSetupTimerInterrupt
                0x00000000       0x14 c:\Users\fx\Upwork\weather-node\output\libraries\FreeRTOS821\utility\port.c.o
 .text          0x00000000        0x0 c:\Users\fx\Upwork\weather-node\output\libraries\FreeRTOS821\utility\queue.c.o
 .data          0x00000000        0x0 c:\Users\fx\Upwork\weather-node\output\libraries\FreeRTOS821\utility\queue.c.o
 .bss           0x00000000        0x0 c:\Users\fx\Upwork\weather-node\output\libraries\FreeRTOS821\utility\queue.c.o
 .text.prvCopyDataToQueue
                0x00000000       0x6a c:\Users\fx\Upwork\weather-node\output\libraries\FreeRTOS821\utility\queue.c.o
 .text.prvCopyDataFromQueue
                0x00000000       0x26 c:\Users\fx\Upwork\weather-node\output\libraries\FreeRTOS821\utility\queue.c.o
 .text.prvUnlockQueue
                0x00000000       0x64 c:\Users\fx\Upwork\weather-node\output\libraries\FreeRTOS821\utility\queue.c.o
 .text.xQueueGenericReset
                0x00000000       0x5a c:\Users\fx\Upwork\weather-node\output\libraries\FreeRTOS821\utility\queue.c.o
 .text.xQueueGenericCreate
                0x00000000       0x3c c:\Users\fx\Upwork\weather-node\output\libraries\FreeRTOS821\utility\queue.c.o
 .text.xQueueCreateCountingSemaphore
                0x00000000       0x12 c:\Users\fx\Upwork\weather-node\output\libraries\FreeRTOS821\utility\queue.c.o
 .text.xQueueGenericSend
                0x00000000       0xd8 c:\Users\fx\Upwork\weather-node\output\libraries\FreeRTOS821\utility\queue.c.o
 .text.xQueueCreateMutex
                0x00000000       0x4a c:\Users\fx\Upwork\weather-node\output\libraries\FreeRTOS821\utility\queue.c.o
 .text.xQueueGiveMutexRecursive
                0x00000000       0x2a c:\Users\fx\Upwork\weather-node\output\libraries\FreeRTOS821\utility\queue.c.o
 .text.xQueueGenericSendFromISR
                0x00000000       0x5c c:\Users\fx\Upwork\weather-node\output\libraries\FreeRTOS821\utility\queue.c.o
 .text.xQueueGiveFromISR
                0x00000000       0x4c c:\Users\fx\Upwork\weather-node\output\libraries\FreeRTOS821\utility\queue.c.o
 .text.xQueueGenericReceive
                0x00000000      0x102 c:\Users\fx\Upwork\weather-node\output\libraries\FreeRTOS821\utility\queue.c.o
 .text.xQueueTakeMutexRecursive
                0x00000000       0x32 c:\Users\fx\Upwork\weather-node\output\libraries\FreeRTOS821\utility\queue.c.o
 .text.xQueueReceiveFromISR
                0x00000000       0x52 c:\Users\fx\Upwork\weather-node\output\libraries\FreeRTOS821\utility\queue.c.o
 .text.xQueuePeekFromISR
                0x00000000       0x2c c:\Users\fx\Upwork\weather-node\output\libraries\FreeRTOS821\utility\queue.c.o
 .text.uxQueueMessagesWaiting
                0x00000000       0x12 c:\Users\fx\Upwork\weather-node\output\libraries\FreeRTOS821\utility\queue.c.o
 .text.uxQueueSpacesAvailable
                0x00000000       0x16 c:\Users\fx\Upwork\weather-node\output\libraries\FreeRTOS821\utility\queue.c.o
 .text.uxQueueMessagesWaitingFromISR
                0x00000000        0x4 c:\Users\fx\Upwork\weather-node\output\libraries\FreeRTOS821\utility\queue.c.o
 .text.vQueueDelete
                0x00000000        0x4 c:\Users\fx\Upwork\weather-node\output\libraries\FreeRTOS821\utility\queue.c.o
 .text.uxQueueGetQueueNumber
                0x00000000        0x4 c:\Users\fx\Upwork\weather-node\output\libraries\FreeRTOS821\utility\queue.c.o
 .text.vQueueSetQueueNumber
                0x00000000        0x4 c:\Users\fx\Upwork\weather-node\output\libraries\FreeRTOS821\utility\queue.c.o
 .text.ucQueueGetQueueType
                0x00000000        0x6 c:\Users\fx\Upwork\weather-node\output\libraries\FreeRTOS821\utility\queue.c.o
 .text.xQueueIsQueueEmptyFromISR
                0x00000000        0xc c:\Users\fx\Upwork\weather-node\output\libraries\FreeRTOS821\utility\queue.c.o
 .text.xQueueIsQueueFullFromISR
                0x00000000        0xc c:\Users\fx\Upwork\weather-node\output\libraries\FreeRTOS821\utility\queue.c.o
 .text          0x00000000        0x0 c:\Users\fx\Upwork\weather-node\output\libraries\FreeRTOS821\utility\tasks.c.o
 .data          0x00000000        0x0 c:\Users\fx\Upwork\weather-node\output\libraries\FreeRTOS821\utility\tasks.c.o
 .bss           0x00000000        0x0 c:\Users\fx\Upwork\weather-node\output\libraries\FreeRTOS821\utility\tasks.c.o
 .text.prvTaskIsTaskSuspended
                0x00000000       0x28 c:\Users\fx\Upwork\weather-node\output\libraries\FreeRTOS821\utility\tasks.c.o
 .text.prvListTaskWithinSingleList
                0x00000000       0x8c c:\Users\fx\Upwork\weather-node\output\libraries\FreeRTOS821\utility\tasks.c.o
 .text.vTaskDelete
                0x00000000       0xa0 c:\Users\fx\Upwork\weather-node\output\libraries\FreeRTOS821\utility\tasks.c.o
 .text.uxTaskPriorityGet
                0x00000000       0x1c c:\Users\fx\Upwork\weather-node\output\libraries\FreeRTOS821\utility\tasks.c.o
 .text.uxTaskPriorityGetFromISR
                0x00000000       0x1c c:\Users\fx\Upwork\weather-node\output\libraries\FreeRTOS821\utility\tasks.c.o
 .text.vTaskPrioritySet
                0x00000000       0xb8 c:\Users\fx\Upwork\weather-node\output\libraries\FreeRTOS821\utility\tasks.c.o
 .text.vTaskResume
                0x00000000       0x64 c:\Users\fx\Upwork\weather-node\output\libraries\FreeRTOS821\utility\tasks.c.o
 .text.xTaskResumeFromISR
                0x00000000       0x80 c:\Users\fx\Upwork\weather-node\output\libraries\FreeRTOS821\utility\tasks.c.o
 .text.vTaskEndScheduler
                0x00000000       0x18 c:\Users\fx\Upwork\weather-node\output\libraries\FreeRTOS821\utility\tasks.c.o
 .text.xTaskGetTickCount
                0x00000000        0xc c:\Users\fx\Upwork\weather-node\output\libraries\FreeRTOS821\utility\tasks.c.o
 .text.xTaskGetTickCountFromISR
                0x00000000        0xc c:\Users\fx\Upwork\weather-node\output\libraries\FreeRTOS821\utility\tasks.c.o
 .text.uxTaskGetNumberOfTasks
                0x00000000        0xc c:\Users\fx\Upwork\weather-node\output\libraries\FreeRTOS821\utility\tasks.c.o
 .text.vTaskDelayUntil
                0x00000000       0x78 c:\Users\fx\Upwork\weather-node\output\libraries\FreeRTOS821\utility\tasks.c.o
 .text.uxTaskGetSystemState
                0x00000000       0x9c c:\Users\fx\Upwork\weather-node\output\libraries\FreeRTOS821\utility\tasks.c.o
 .text.vTaskSuspend
                0x00000000       0xa8 c:\Users\fx\Upwork\weather-node\output\libraries\FreeRTOS821\utility\tasks.c.o
 .text.vTaskPlaceOnEventList
                0x00000000       0x5c c:\Users\fx\Upwork\weather-node\output\libraries\FreeRTOS821\utility\tasks.c.o
 .text.vTaskPlaceOnUnorderedEventList
                0x00000000       0x64 c:\Users\fx\Upwork\weather-node\output\libraries\FreeRTOS821\utility\tasks.c.o
 .text.xTaskRemoveFromEventList
                0x00000000       0x6c c:\Users\fx\Upwork\weather-node\output\libraries\FreeRTOS821\utility\tasks.c.o
 .text.xTaskRemoveFromUnorderedEventList
                0x00000000       0x5c c:\Users\fx\Upwork\weather-node\output\libraries\FreeRTOS821\utility\tasks.c.o
 .text.vTaskSetTimeOutState
                0x00000000       0x18 c:\Users\fx\Upwork\weather-node\output\libraries\FreeRTOS821\utility\tasks.c.o
 .text.xTaskCheckForTimeOut
                0x00000000       0x4c c:\Users\fx\Upwork\weather-node\output\libraries\FreeRTOS821\utility\tasks.c.o
 .text.vTaskMissedYield
                0x00000000        0xc c:\Users\fx\Upwork\weather-node\output\libraries\FreeRTOS821\utility\tasks.c.o
 .text.uxTaskGetTaskNumber
                0x00000000        0x6 c:\Users\fx\Upwork\weather-node\output\libraries\FreeRTOS821\utility\tasks.c.o
 .text.vTaskSetTaskNumber
                0x00000000        0x6 c:\Users\fx\Upwork\weather-node\output\libraries\FreeRTOS821\utility\tasks.c.o
 .text.xTaskGetCurrentTaskHandle
                0x00000000        0xc c:\Users\fx\Upwork\weather-node\output\libraries\FreeRTOS821\utility\tasks.c.o
 .text.vTaskPriorityInherit
                0x00000000       0x94 c:\Users\fx\Upwork\weather-node\output\libraries\FreeRTOS821\utility\tasks.c.o
 .text.xTaskPriorityDisinherit
                0x00000000       0x70 c:\Users\fx\Upwork\weather-node\output\libraries\FreeRTOS821\utility\tasks.c.o
 .text.uxTaskResetEventItemValue
                0x00000000       0x18 c:\Users\fx\Upwork\weather-node\output\libraries\FreeRTOS821\utility\tasks.c.o
 .text.pvTaskIncrementMutexHeldCount
                0x00000000       0x18 c:\Users\fx\Upwork\weather-node\output\libraries\FreeRTOS821\utility\tasks.c.o
 .text.ulTaskNotifyTake
                0x00000000       0x94 c:\Users\fx\Upwork\weather-node\output\libraries\FreeRTOS821\utility\tasks.c.o
 .text.xTaskNotifyWait
                0x00000000       0xb8 c:\Users\fx\Upwork\weather-node\output\libraries\FreeRTOS821\utility\tasks.c.o
 .text.xTaskGenericNotify
                0x00000000       0x98 c:\Users\fx\Upwork\weather-node\output\libraries\FreeRTOS821\utility\tasks.c.o
 .text.xTaskNotifyFromISR
                0x00000000       0xb4 c:\Users\fx\Upwork\weather-node\output\libraries\FreeRTOS821\utility\tasks.c.o
 .text.vTaskNotifyGiveFromISR
                0x00000000       0x84 c:\Users\fx\Upwork\weather-node\output\libraries\FreeRTOS821\utility\tasks.c.o
 .text          0x00000000        0x0 c:\Users\fx\Upwork\weather-node\output\libraries\FreeRTOS821\utility\timers.c.o
 .data          0x00000000        0x0 c:\Users\fx\Upwork\weather-node\output\libraries\FreeRTOS821\utility\timers.c.o
 .bss           0x00000000        0x0 c:\Users\fx\Upwork\weather-node\output\libraries\FreeRTOS821\utility\timers.c.o
 .text          0x00000000        0x0 c:\Users\fx\Upwork\weather-node\output\libraries\DHT_sensor_library\DHT.cpp.o
 .data          0x00000000        0x0 c:\Users\fx\Upwork\weather-node\output\libraries\DHT_sensor_library\DHT.cpp.o
 .bss           0x00000000        0x0 c:\Users\fx\Upwork\weather-node\output\libraries\DHT_sensor_library\DHT.cpp.o
 .text._ZN3DHT11convertCtoFEf
                0x00000000       0x30 c:\Users\fx\Upwork\weather-node\output\libraries\DHT_sensor_library\DHT.cpp.o
 .text._ZN3DHT11convertFtoCEf
                0x00000000       0x28 c:\Users\fx\Upwork\weather-node\output\libraries\DHT_sensor_library\DHT.cpp.o
 .text._ZN3DHT16computeHeatIndexEffb
                0x00000000      0x410 c:\Users\fx\Upwork\weather-node\output\libraries\DHT_sensor_library\DHT.cpp.o
 .text._ZN3DHT16computeHeatIndexEb
                0x00000000       0x26 c:\Users\fx\Upwork\weather-node\output\libraries\DHT_sensor_library\DHT.cpp.o
 .group         0x00000000        0x8 c:\Users\fx\Upwork\weather-node\output\libraries\DHT_sensor_library\DHT_U.cpp.o
 .group         0x00000000        0x8 c:\Users\fx\Upwork\weather-node\output\libraries\DHT_sensor_library\DHT_U.cpp.o
 .group         0x00000000        0x8 c:\Users\fx\Upwork\weather-node\output\libraries\DHT_sensor_library\DHT_U.cpp.o
 .group         0x00000000        0x8 c:\Users\fx\Upwork\weather-node\output\libraries\DHT_sensor_library\DHT_U.cpp.o
 .group         0x00000000        0x8 c:\Users\fx\Upwork\weather-node\output\libraries\DHT_sensor_library\DHT_U.cpp.o
 .group         0x00000000        0x8 c:\Users\fx\Upwork\weather-node\output\libraries\DHT_sensor_library\DHT_U.cpp.o
 .group         0x00000000        0x8 c:\Users\fx\Upwork\weather-node\output\libraries\DHT_sensor_library\DHT_U.cpp.o
 .group         0x00000000        0x8 c:\Users\fx\Upwork\weather-node\output\libraries\DHT_sensor_library\DHT_U.cpp.o
 .text          0x00000000        0x0 c:\Users\fx\Upwork\weather-node\output\libraries\DHT_sensor_library\DHT_U.cpp.o
 .data          0x00000000        0x0 c:\Users\fx\Upwork\weather-node\output\libraries\DHT_sensor_library\DHT_U.cpp.o
 .bss           0x00000000        0x0 c:\Users\fx\Upwork\weather-node\output\libraries\DHT_sensor_library\DHT_U.cpp.o
 .text._ZN15Adafruit_SensorD2Ev
                0x00000000        0xc c:\Users\fx\Upwork\weather-node\output\libraries\DHT_sensor_library\DHT_U.cpp.o
 .text._ZN15Adafruit_Sensor15enableAutoRangeEb
                0x00000000        0x2 c:\Users\fx\Upwork\weather-node\output\libraries\DHT_sensor_library\DHT_U.cpp.o
 .text._ZN11DHT_Unified8HumidityD2Ev
                0x00000000        0xc c:\Users\fx\Upwork\weather-node\output\libraries\DHT_sensor_library\DHT_U.cpp.o
 .text._ZN11DHT_Unified11TemperatureD2Ev
                0x00000000        0xc c:\Users\fx\Upwork\weather-node\output\libraries\DHT_sensor_library\DHT_U.cpp.o
 .text._ZN15Adafruit_SensorD0Ev
                0x00000000       0x14 c:\Users\fx\Upwork\weather-node\output\libraries\DHT_sensor_library\DHT_U.cpp.o
 .text._ZN11DHT_Unified8HumidityD0Ev
                0x00000000       0x14 c:\Users\fx\Upwork\weather-node\output\libraries\DHT_sensor_library\DHT_U.cpp.o
 .text._ZN11DHT_Unified11TemperatureD0Ev
                0x00000000       0x14 c:\Users\fx\Upwork\weather-node\output\libraries\DHT_sensor_library\DHT_U.cpp.o
 .text._ZN11DHT_Unified11Temperature8getEventEP15sensors_event_t
                0x00000000       0x38 c:\Users\fx\Upwork\weather-node\output\libraries\DHT_sensor_library\DHT_U.cpp.o
 .text._ZN11DHT_Unified8Humidity8getEventEP15sensors_event_t
                0x00000000       0x34 c:\Users\fx\Upwork\weather-node\output\libraries\DHT_sensor_library\DHT_U.cpp.o
 .text._ZN11DHT_UnifiedC2Ehhhll
                0x00000000       0x2c c:\Users\fx\Upwork\weather-node\output\libraries\DHT_sensor_library\DHT_U.cpp.o
 .text._ZN11DHT_Unified5beginEv
                0x00000000        0x6 c:\Users\fx\Upwork\weather-node\output\libraries\DHT_sensor_library\DHT_U.cpp.o
 .text._ZN11DHT_Unified7setNameEP8sensor_t
                0x00000000       0x50 c:\Users\fx\Upwork\weather-node\output\libraries\DHT_sensor_library\DHT_U.cpp.o
 .text._ZN11DHT_Unified11setMinDelayEP8sensor_t
                0x00000000       0x2c c:\Users\fx\Upwork\weather-node\output\libraries\DHT_sensor_library\DHT_U.cpp.o
 .text._ZN11DHT_Unified11Temperature9getSensorEP8sensor_t
                0x00000000       0x98 c:\Users\fx\Upwork\weather-node\output\libraries\DHT_sensor_library\DHT_U.cpp.o
 .text._ZN11DHT_Unified8Humidity9getSensorEP8sensor_t
                0x00000000       0x84 c:\Users\fx\Upwork\weather-node\output\libraries\DHT_sensor_library\DHT_U.cpp.o
 .text._ZN11DHT_Unified11TemperatureC2EPS_l
                0x00000000       0x10 c:\Users\fx\Upwork\weather-node\output\libraries\DHT_sensor_library\DHT_U.cpp.o
 .text._ZN11DHT_Unified8HumidityC2EPS_l
                0x00000000       0x10 c:\Users\fx\Upwork\weather-node\output\libraries\DHT_sensor_library\DHT_U.cpp.o
 .rodata._ZTV15Adafruit_Sensor
                0x00000000       0x20 c:\Users\fx\Upwork\weather-node\output\libraries\DHT_sensor_library\DHT_U.cpp.o
 .rodata._ZTVN11DHT_Unified11TemperatureE
                0x00000000       0x20 c:\Users\fx\Upwork\weather-node\output\libraries\DHT_sensor_library\DHT_U.cpp.o
 .rodata.str1.1
                0x00000000       0x1d c:\Users\fx\Upwork\weather-node\output\libraries\DHT_sensor_library\DHT_U.cpp.o
 .rodata._ZTVN11DHT_Unified8HumidityE
                0x00000000       0x20 c:\Users\fx\Upwork\weather-node\output\libraries\DHT_sensor_library\DHT_U.cpp.o
 .text          0x00000000        0x0 c:\Users\fx\Upwork\weather-node\output\libraries\Adafruit_Unified_Sensor\Adafruit_Sensor.cpp.o
 .data          0x00000000        0x0 c:\Users\fx\Upwork\weather-node\output\libraries\Adafruit_Unified_Sensor\Adafruit_Sensor.cpp.o
 .bss           0x00000000        0x0 c:\Users\fx\Upwork\weather-node\output\libraries\Adafruit_Unified_Sensor\Adafruit_Sensor.cpp.o
 .text._ZN15Adafruit_Sensor18printSensorDetailsEv
                0x00000000      0x19c c:\Users\fx\Upwork\weather-node\output\libraries\Adafruit_Unified_Sensor\Adafruit_Sensor.cpp.o
 .rodata.str1.1
                0x00000000      0x1bf c:\Users\fx\Upwork\weather-node\output\libraries\Adafruit_Unified_Sensor\Adafruit_Sensor.cpp.o
 .text          0x00000000        0x0 c:\Users\fx\Upwork\weather-node\output\core\board.cpp.o
 .data          0x00000000        0x0 c:\Users\fx\Upwork\weather-node\output\core\board.cpp.o
 .bss           0x00000000        0x0 c:\Users\fx\Upwork\weather-node\output\core\board.cpp.o
 .USER_FLASH    0x00000000       0x19 c:\Users\fx\Upwork\weather-node\output\core\board.cpp.o
 .text          0x00000000        0x0 c:\Users\fx\Upwork\weather-node\output\core\wirish\boards.cpp.o
 .data          0x00000000        0x0 c:\Users\fx\Upwork\weather-node\output\core\wirish\boards.cpp.o
 .bss           0x00000000        0x0 c:\Users\fx\Upwork\weather-node\output\core\wirish\boards.cpp.o
 .text._Z9boardInitv
                0x00000000        0x2 c:\Users\fx\Upwork\weather-node\output\core\wirish\boards.cpp.o
 .text._Z12boardUsesPinh
                0x00000000       0x1c c:\Users\fx\Upwork\weather-node\output\core\wirish\boards.cpp.o
 .text          0x00000000        0x0 c:\Users\fx\Upwork\weather-node\output\core\wirish\boards_setup.cpp.o
 .data          0x00000000        0x0 c:\Users\fx\Upwork\weather-node\output\core\wirish\boards_setup.cpp.o
 .bss           0x00000000        0x0 c:\Users\fx\Upwork\weather-node\output\core\wirish\boards_setup.cpp.o
 .data          0x00000000        0x0 c:\Users\fx\Upwork\weather-node\output\core\wirish\start.S.o
 .bss           0x00000000        0x0 c:\Users\fx\Upwork\weather-node\output\core\wirish\start.S.o
 .ARM.extab     0x00000000        0x0 c:\Users\fx\Upwork\weather-node\output\core\wirish\start.S.o
 .text          0x00000000        0x0 c:\Users\fx\Upwork\weather-node\output\core\wirish\start_c.c.o
 .data          0x00000000        0x0 c:\Users\fx\Upwork\weather-node\output\core\wirish\start_c.c.o
 .bss           0x00000000        0x0 c:\Users\fx\Upwork\weather-node\output\core\wirish\start_c.c.o
 .text          0x00000000        0x0 c:\Users\fx\Upwork\weather-node\output\core\wirish\syscalls.c.o
 .data          0x00000000        0x0 c:\Users\fx\Upwork\weather-node\output\core\wirish\syscalls.c.o
 .bss           0x00000000        0x0 c:\Users\fx\Upwork\weather-node\output\core\wirish\syscalls.c.o
 .text._open    0x00000000        0x8 c:\Users\fx\Upwork\weather-node\output\core\wirish\syscalls.c.o
 .text._close   0x00000000        0x4 c:\Users\fx\Upwork\weather-node\output\core\wirish\syscalls.c.o
 .text._fstat   0x00000000        0xa c:\Users\fx\Upwork\weather-node\output\core\wirish\syscalls.c.o
 .text._isatty  0x00000000        0x4 c:\Users\fx\Upwork\weather-node\output\core\wirish\syscalls.c.o
 .text.isatty   0x00000000        0x4 c:\Users\fx\Upwork\weather-node\output\core\wirish\syscalls.c.o
 .text._lseek   0x00000000        0x6 c:\Users\fx\Upwork\weather-node\output\core\wirish\syscalls.c.o
 .text.getch    0x00000000        0x4 c:\Users\fx\Upwork\weather-node\output\core\wirish\syscalls.c.o
 .text._read    0x00000000        0xe c:\Users\fx\Upwork\weather-node\output\core\wirish\syscalls.c.o
 .text.putch    0x00000000        0x2 c:\Users\fx\Upwork\weather-node\output\core\wirish\syscalls.c.o
 .text.cgets    0x00000000       0x78 c:\Users\fx\Upwork\weather-node\output\core\wirish\syscalls.c.o
 .text._write   0x00000000       0x1a c:\Users\fx\Upwork\weather-node\output\core\wirish\syscalls.c.o
 .text.fgets    0x00000000        0xc c:\Users\fx\Upwork\weather-node\output\core\wirish\syscalls.c.o
 .text._exit    0x00000000        0x2 c:\Users\fx\Upwork\weather-node\output\core\wirish\syscalls.c.o
 .group         0x00000000        0x8 c:\Users\fx\Upwork\weather-node\output\core\core.a(HardwareSerial.cpp.o)
 .text          0x00000000        0x0 c:\Users\fx\Upwork\weather-node\output\core\core.a(HardwareSerial.cpp.o)
 .data          0x00000000        0x0 c:\Users\fx\Upwork\weather-node\output\core\core.a(HardwareSerial.cpp.o)
 .bss           0x00000000        0x0 c:\Users\fx\Upwork\weather-node\output\core\core.a(HardwareSerial.cpp.o)
 .text._ZN14HardwareSerial3endEv
                0x00000000        0x6 c:\Users\fx\Upwork\weather-node\output\core\core.a(HardwareSerial.cpp.o)
 .text._ZN14HardwareSerial17availableForWriteEv
                0x00000000       0x12 c:\Users\fx\Upwork\weather-node\output\core\core.a(HardwareSerial.cpp.o)
 .rodata._ZTV6Stream
                0x00000000       0x28 c:\Users\fx\Upwork\weather-node\output\core\core.a(HardwareSerial.cpp.o)
 .text          0x00000000        0x0 c:\Users\fx\Upwork\weather-node\output\core\core.a(Print.cpp.o)
 .data          0x00000000        0x0 c:\Users\fx\Upwork\weather-node\output\core\core.a(Print.cpp.o)
 .bss           0x00000000        0x0 c:\Users\fx\Upwork\weather-node\output\core\core.a(Print.cpp.o)
 .text._ZN5Print5printERK6String
                0x00000000       0x10 c:\Users\fx\Upwork\weather-node\output\core\core.a(Print.cpp.o)
 .text._ZN5Print5printEPK19__FlashStringHelper
                0x00000000        0x4 c:\Users\fx\Upwork\weather-node\output\core\core.a(Print.cpp.o)
 .text._ZN5Print5printERK9Printable
                0x00000000       0x10 c:\Users\fx\Upwork\weather-node\output\core\core.a(Print.cpp.o)
 .text._ZN5Print7printlnERK6String
                0x00000000       0x14 c:\Users\fx\Upwork\weather-node\output\core\core.a(Print.cpp.o)
 .text._ZN5Print7printlnEc
                0x00000000       0x14 c:\Users\fx\Upwork\weather-node\output\core\core.a(Print.cpp.o)
 .text._ZN5Print7printlnEPK19__FlashStringHelper
                0x00000000       0x14 c:\Users\fx\Upwork\weather-node\output\core\core.a(Print.cpp.o)
 .text._ZN5Print7printlnERK9Printable
                0x00000000       0x14 c:\Users\fx\Upwork\weather-node\output\core\core.a(Print.cpp.o)
 .text._ZN5Print11printNumberEyh
                0x00000000       0x84 c:\Users\fx\Upwork\weather-node\output\core\core.a(Print.cpp.o)
 .text._ZN5Print5printExi
                0x00000000       0x32 c:\Users\fx\Upwork\weather-node\output\core\core.a(Print.cpp.o)
 .text._ZN5Print5printEii
                0x00000000       0x12 c:\Users\fx\Upwork\weather-node\output\core\core.a(Print.cpp.o)
 .text._ZN5Print7printlnEii
                0x00000000       0x14 c:\Users\fx\Upwork\weather-node\output\core\core.a(Print.cpp.o)
 .text._ZN5Print5printEli
                0x00000000       0x12 c:\Users\fx\Upwork\weather-node\output\core\core.a(Print.cpp.o)
 .text._ZN5Print7printlnEli
                0x00000000       0x1c c:\Users\fx\Upwork\weather-node\output\core\core.a(Print.cpp.o)
 .text._ZN5Print7printlnExi
                0x00000000       0x1a c:\Users\fx\Upwork\weather-node\output\core\core.a(Print.cpp.o)
 .text._ZN5Print5printEyi
                0x00000000        0xa c:\Users\fx\Upwork\weather-node\output\core\core.a(Print.cpp.o)
 .text._ZN5Print5printEhi
                0x00000000       0x14 c:\Users\fx\Upwork\weather-node\output\core\core.a(Print.cpp.o)
 .text._ZN5Print7printlnEhi
                0x00000000       0x14 c:\Users\fx\Upwork\weather-node\output\core\core.a(Print.cpp.o)
 .text._ZN5Print5printEji
                0x00000000       0x14 c:\Users\fx\Upwork\weather-node\output\core\core.a(Print.cpp.o)
 .text._ZN5Print7printlnEji
                0x00000000       0x14 c:\Users\fx\Upwork\weather-node\output\core\core.a(Print.cpp.o)
 .text._ZN5Print5printEmi
                0x00000000       0x14 c:\Users\fx\Upwork\weather-node\output\core\core.a(Print.cpp.o)
 .text._ZN5Print7printlnEmi
                0x00000000       0x1e c:\Users\fx\Upwork\weather-node\output\core\core.a(Print.cpp.o)
 .text._ZN5Print7printlnEyi
                0x00000000       0x1c c:\Users\fx\Upwork\weather-node\output\core\core.a(Print.cpp.o)
 .text._ZN5Print10printFloatEdh
                0x00000000      0x158 c:\Users\fx\Upwork\weather-node\output\core\core.a(Print.cpp.o)
 .text._ZN5Print5printEdi
                0x00000000        0xa c:\Users\fx\Upwork\weather-node\output\core\core.a(Print.cpp.o)
 .text._ZN5Print7printlnEdi
                0x00000000       0x1c c:\Users\fx\Upwork\weather-node\output\core\core.a(Print.cpp.o)
 .rodata._ZTV5Print
                0x00000000       0x18 c:\Users\fx\Upwork\weather-node\output\core\core.a(Print.cpp.o)
 .rodata.str1.1
                0x00000000       0x11 c:\Users\fx\Upwork\weather-node\output\core\core.a(Print.cpp.o)
 .text          0x00000000        0x0 c:\Users\fx\Upwork\weather-node\output\core\core.a(cxxabi-compat.cpp.o)
 .data          0x00000000        0x0 c:\Users\fx\Upwork\weather-node\output\core\core.a(cxxabi-compat.cpp.o)
 .bss           0x00000000        0x0 c:\Users\fx\Upwork\weather-node\output\core\core.a(cxxabi-compat.cpp.o)
 .text.__cxa_pure_virtual
                0x00000000        0x2 c:\Users\fx\Upwork\weather-node\output\core\core.a(cxxabi-compat.cpp.o)
 .text.__cxa_demangle
                0x00000000        0xc c:\Users\fx\Upwork\weather-node\output\core\core.a(cxxabi-compat.cpp.o)
 .text          0x00000000        0x0 c:\Users\fx\Upwork\weather-node\output\core\core.a(adc.c.o)
 .data          0x00000000        0x0 c:\Users\fx\Upwork\weather-node\output\core\core.a(adc.c.o)
 .bss           0x00000000        0x0 c:\Users\fx\Upwork\weather-node\output\core\core.a(adc.c.o)
 .text.adc_read
                0x00000000       0x20 c:\Users\fx\Upwork\weather-node\output\core\core.a(adc.c.o)
 .text          0x00000000        0x0 c:\Users\fx\Upwork\weather-node\output\core\core.a(adc_f1.c.o)
 .data          0x00000000        0x0 c:\Users\fx\Upwork\weather-node\output\core\core.a(adc_f1.c.o)
 .bss           0x00000000        0x0 c:\Users\fx\Upwork\weather-node\output\core\core.a(adc_f1.c.o)
 .text.adc_enable_irq
                0x00000000       0x30 c:\Users\fx\Upwork\weather-node\output\core\core.a(adc_f1.c.o)
 .text.adc_attach_interrupt
                0x00000000        0xa c:\Users\fx\Upwork\weather-node\output\core\core.a(adc_f1.c.o)
 .text.adc_config_gpio
                0x00000000        0xa c:\Users\fx\Upwork\weather-node\output\core\core.a(adc_f1.c.o)
 .text          0x00000000        0x0 c:\Users\fx\Upwork\weather-node\output\core\core.a(dma_f1.c.o)
 .data          0x00000000        0x0 c:\Users\fx\Upwork\weather-node\output\core\core.a(dma_f1.c.o)
 .bss           0x00000000        0x0 c:\Users\fx\Upwork\weather-node\output\core\core.a(dma_f1.c.o)
 .text.dma_set_priority
                0x00000000       0x18 c:\Users\fx\Upwork\weather-node\output\core\core.a(dma_f1.c.o)
 .text.dma_set_num_transfers
                0x00000000       0x10 c:\Users\fx\Upwork\weather-node\output\core\core.a(dma_f1.c.o)
 .text.dma_attach_interrupt
                0x00000000       0x40 c:\Users\fx\Upwork\weather-node\output\core\core.a(dma_f1.c.o)
 .text.dma_detach_interrupt
                0x00000000       0x60 c:\Users\fx\Upwork\weather-node\output\core\core.a(dma_f1.c.o)
 .text.dma_enable
                0x00000000       0x18 c:\Users\fx\Upwork\weather-node\output\core\core.a(dma_f1.c.o)
 .text.dma_disable
                0x00000000       0x18 c:\Users\fx\Upwork\weather-node\output\core\core.a(dma_f1.c.o)
 .text.dma_tube_cfg
                0x00000000      0x15c c:\Users\fx\Upwork\weather-node\output\core\core.a(dma_f1.c.o)
 .text.dma_get_irq_cause
                0x00000000       0x3c c:\Users\fx\Upwork\weather-node\output\core\core.a(dma_f1.c.o)
 .text.dma_set_mem_addr
                0x00000000       0x10 c:\Users\fx\Upwork\weather-node\output\core\core.a(dma_f1.c.o)
 .text.dma_set_per_addr
                0x00000000       0x10 c:\Users\fx\Upwork\weather-node\output\core\core.a(dma_f1.c.o)
 .text.dma_setup_transfer
                0x00000000       0x36 c:\Users\fx\Upwork\weather-node\output\core\core.a(dma_f1.c.o)
 .bss.dma2Ch4_5
                0x00000000        0x4 c:\Users\fx\Upwork\weather-node\output\core\core.a(dma_f1.c.o)
 .data          0x00000000        0x0 c:\Users\fx\Upwork\weather-node\output\core\core.a(exc.S.o)
 .bss           0x00000000        0x0 c:\Users\fx\Upwork\weather-node\output\core\core.a(exc.S.o)
 .text          0x00000000        0x0 c:\Users\fx\Upwork\weather-node\output\core\core.a(exti.c.o)
 .data          0x00000000        0x0 c:\Users\fx\Upwork\weather-node\output\core\core.a(exti.c.o)
 .bss           0x00000000        0x0 c:\Users\fx\Upwork\weather-node\output\core\core.a(exti.c.o)
 .text.exti_attach_callback
                0x00000000       0xac c:\Users\fx\Upwork\weather-node\output\core\core.a(exti.c.o)
 .text.exti_attach_interrupt
                0x00000000       0x10 c:\Users\fx\Upwork\weather-node\output\core\core.a(exti.c.o)
 .text.exti_detach_interrupt
                0x00000000       0x28 c:\Users\fx\Upwork\weather-node\output\core\core.a(exti.c.o)
 .text.exti_do_select
                0x00000000       0x1a c:\Users\fx\Upwork\weather-node\output\core\core.a(exti.c.o)
 .text          0x00000000        0x0 c:\Users\fx\Upwork\weather-node\output\core\core.a(exti_f1.c.o)
 .data          0x00000000        0x0 c:\Users\fx\Upwork\weather-node\output\core\core.a(exti_f1.c.o)
 .bss           0x00000000        0x0 c:\Users\fx\Upwork\weather-node\output\core\core.a(exti_f1.c.o)
 .text.exti_select
                0x00000000       0x18 c:\Users\fx\Upwork\weather-node\output\core\core.a(exti_f1.c.o)
 .text          0x00000000        0x0 c:\Users\fx\Upwork\weather-node\output\core\core.a(flash.c.o)
 .data          0x00000000        0x0 c:\Users\fx\Upwork\weather-node\output\core\core.a(flash.c.o)
 .bss           0x00000000        0x0 c:\Users\fx\Upwork\weather-node\output\core\core.a(flash.c.o)
 .text          0x00000000        0x0 c:\Users\fx\Upwork\weather-node\output\core\core.a(gpio_f1.c.o)
 .data          0x00000000        0x0 c:\Users\fx\Upwork\weather-node\output\core\core.a(gpio_f1.c.o)
 .bss           0x00000000        0x0 c:\Users\fx\Upwork\weather-node\output\core\core.a(gpio_f1.c.o)
 .text.gpio_get_mode
                0x00000000       0x2a c:\Users\fx\Upwork\weather-node\output\core\core.a(gpio_f1.c.o)
 .text.afio_remap
                0x00000000       0x20 c:\Users\fx\Upwork\weather-node\output\core\core.a(gpio_f1.c.o)
 .text.afio_is_remapped
                0x00000000       0x20 c:\Users\fx\Upwork\weather-node\output\core\core.a(gpio_f1.c.o)
 .rodata.GPIOA  0x00000000        0x4 c:\Users\fx\Upwork\weather-node\output\core\core.a(gpio_f1.c.o)
 .rodata.GPIOB  0x00000000        0x4 c:\Users\fx\Upwork\weather-node\output\core\core.a(gpio_f1.c.o)
 .rodata.GPIOD  0x00000000        0x4 c:\Users\fx\Upwork\weather-node\output\core\core.a(gpio_f1.c.o)
 .text          0x00000000        0x0 c:\Users\fx\Upwork\weather-node\output\core\core.a(i2c_f1.c.o)
 .data          0x00000000        0x0 c:\Users\fx\Upwork\weather-node\output\core\core.a(i2c_f1.c.o)
 .bss           0x00000000        0x0 c:\Users\fx\Upwork\weather-node\output\core\core.a(i2c_f1.c.o)
 .text.i2c_config_gpios
                0x00000000       0x58 c:\Users\fx\Upwork\weather-node\output\core\core.a(i2c_f1.c.o)
 .text.i2c_master_release_bus
                0x00000000       0x4c c:\Users\fx\Upwork\weather-node\output\core\core.a(i2c_f1.c.o)
 .text._i2c_irq_priority_fixup
                0x00000000        0xa c:\Users\fx\Upwork\weather-node\output\core\core.a(i2c_f1.c.o)
 .rodata.I2C1   0x00000000        0x4 c:\Users\fx\Upwork\weather-node\output\core\core.a(i2c_f1.c.o)
 .rodata.I2C2   0x00000000        0x4 c:\Users\fx\Upwork\weather-node\output\core\core.a(i2c_f1.c.o)
 .text          0x00000000        0x0 c:\Users\fx\Upwork\weather-node\output\core\core.a(nvic.c.o)
 .data          0x00000000        0x0 c:\Users\fx\Upwork\weather-node\output\core\core.a(nvic.c.o)
 .bss           0x00000000        0x0 c:\Users\fx\Upwork\weather-node\output\core\core.a(nvic.c.o)
 .text.nvic_set_vector_table
                0x00000000       0x14 c:\Users\fx\Upwork\weather-node\output\core\core.a(nvic.c.o)
 .text          0x00000000        0x0 c:\Users\fx\Upwork\weather-node\output\core\core.a(rcc.c.o)
 .data          0x00000000        0x0 c:\Users\fx\Upwork\weather-node\output\core\core.a(rcc.c.o)
 .bss           0x00000000        0x0 c:\Users\fx\Upwork\weather-node\output\core\core.a(rcc.c.o)
 .text.rcc_is_clk_on
                0x00000000       0x1e c:\Users\fx\Upwork\weather-node\output\core\core.a(rcc.c.o)
 .text          0x00000000        0x0 c:\Users\fx\Upwork\weather-node\output\core\core.a(rcc_f1.c.o)
 .data          0x00000000        0x0 c:\Users\fx\Upwork\weather-node\output\core\core.a(rcc_f1.c.o)
 .bss           0x00000000        0x0 c:\Users\fx\Upwork\weather-node\output\core\core.a(rcc_f1.c.o)
 .text.rcc_clk_init
                0x00000000       0x3c c:\Users\fx\Upwork\weather-node\output\core\core.a(rcc_f1.c.o)
 .data          0x00000000        0x0 c:\Users\fx\Upwork\weather-node\output\core\core.a(isrs.S.o)
 .bss           0x00000000        0x0 c:\Users\fx\Upwork\weather-node\output\core\core.a(isrs.S.o)
 .text          0x00000000        0x0 c:\Users\fx\Upwork\weather-node\output\core\core.a(vector_table.S.o)
 .data          0x00000000        0x0 c:\Users\fx\Upwork\weather-node\output\core\core.a(vector_table.S.o)
 .bss           0x00000000        0x0 c:\Users\fx\Upwork\weather-node\output\core\core.a(vector_table.S.o)
 .text          0x00000000        0x0 c:\Users\fx\Upwork\weather-node\output\core\core.a(systick.c.o)
 .data          0x00000000        0x0 c:\Users\fx\Upwork\weather-node\output\core\core.a(systick.c.o)
 .bss           0x00000000        0x0 c:\Users\fx\Upwork\weather-node\output\core\core.a(systick.c.o)
 .text.systick_disable
                0x00000000        0xc c:\Users\fx\Upwork\weather-node\output\core\core.a(systick.c.o)
 .text.systick_enable
                0x00000000        0xc c:\Users\fx\Upwork\weather-node\output\core\core.a(systick.c.o)
 .text          0x00000000        0x0 c:\Users\fx\Upwork\weather-node\output\core\core.a(timer.c.o)
 .data          0x00000000        0x0 c:\Users\fx\Upwork\weather-node\output\core\core.a(timer.c.o)
 .bss           0x00000000        0x0 c:\Users\fx\Upwork\weather-node\output\core\core.a(timer.c.o)
 .text.timer_disable
                0x00000000       0x12 c:\Users\fx\Upwork\weather-node\output\core\core.a(timer.c.o)
 .text.timer_attach_interrupt
                0x00000000       0xe0 c:\Users\fx\Upwork\weather-node\output\core\core.a(timer.c.o)
 .text.get_direction
                0x00000000        0xe c:\Users\fx\Upwork\weather-node\output\core\core.a(timer.c.o)
 .rodata.TIMER1
                0x00000000        0x4 c:\Users\fx\Upwork\weather-node\output\core\core.a(timer.c.o)
 .rodata.TIMER2
                0x00000000        0x4 c:\Users\fx\Upwork\weather-node\output\core\core.a(timer.c.o)
 .rodata.TIMER3
                0x00000000        0x4 c:\Users\fx\Upwork\weather-node\output\core\core.a(timer.c.o)
 .rodata.TIMER4
                0x00000000        0x4 c:\Users\fx\Upwork\weather-node\output\core\core.a(timer.c.o)
 .text          0x00000000        0x0 c:\Users\fx\Upwork\weather-node\output\core\core.a(usart.c.o)
 .data          0x00000000        0x0 c:\Users\fx\Upwork\weather-node\output\core\core.a(usart.c.o)
 .bss           0x00000000        0x0 c:\Users\fx\Upwork\weather-node\output\core\core.a(usart.c.o)
 .text.usart_disable
                0x00000000       0x38 c:\Users\fx\Upwork\weather-node\output\core\core.a(usart.c.o)
 .text.usart_rx
                0x00000000       0x58 c:\Users\fx\Upwork\weather-node\output\core\core.a(usart.c.o)
 .text.usart_putudec
                0x00000000       0x44 c:\Users\fx\Upwork\weather-node\output\core\core.a(usart.c.o)
 .text          0x00000000        0x0 c:\Users\fx\Upwork\weather-node\output\core\core.a(usart_f1.c.o)
 .data          0x00000000        0x0 c:\Users\fx\Upwork\weather-node\output\core\core.a(usart_f1.c.o)
 .bss           0x00000000        0x0 c:\Users\fx\Upwork\weather-node\output\core\core.a(usart_f1.c.o)
 .text.usart_foreach
                0x00000000       0x24 c:\Users\fx\Upwork\weather-node\output\core\core.a(usart_f1.c.o)
 .text          0x00000000        0x0 c:\Users\fx\Upwork\weather-node\output\core\core.a(usart_private.c.o)
 .data          0x00000000        0x0 c:\Users\fx\Upwork\weather-node\output\core\core.a(usart_private.c.o)
 .bss           0x00000000        0x0 c:\Users\fx\Upwork\weather-node\output\core\core.a(usart_private.c.o)
 .text          0x00000000        0x0 c:\Users\fx\Upwork\weather-node\output\core\core.a(usb.c.o)
 .data          0x00000000        0x0 c:\Users\fx\Upwork\weather-node\output\core\core.a(usb.c.o)
 .bss           0x00000000        0x0 c:\Users\fx\Upwork\weather-node\output\core\core.a(usb.c.o)
 .text.usb_power_off
                0x00000000       0x14 c:\Users\fx\Upwork\weather-node\output\core\core.a(usb.c.o)
 .text          0x00000000        0x0 c:\Users\fx\Upwork\weather-node\output\core\core.a(usb_cdcacm.c.o)
 .data          0x00000000        0x0 c:\Users\fx\Upwork\weather-node\output\core\core.a(usb_cdcacm.c.o)
 .bss           0x00000000        0x0 c:\Users\fx\Upwork\weather-node\output\core\core.a(usb_cdcacm.c.o)
 .text.usb_cdcacm_disable
                0x00000000       0x20 c:\Users\fx\Upwork\weather-node\output\core\core.a(usb_cdcacm.c.o)
 .text.usb_cdcacm_putc
                0x00000000       0x1a c:\Users\fx\Upwork\weather-node\output\core\core.a(usb_cdcacm.c.o)
 .text.usb_cdcacm_is_transmitting
                0x00000000       0x14 c:\Users\fx\Upwork\weather-node\output\core\core.a(usb_cdcacm.c.o)
 .text.usb_cdcacm_get_pending
                0x00000000       0x18 c:\Users\fx\Upwork\weather-node\output\core\core.a(usb_cdcacm.c.o)
 .text.usb_cdcacm_tx_available
                0x00000000        0xc c:\Users\fx\Upwork\weather-node\output\core\core.a(usb_cdcacm.c.o)
 .text.usb_cdcacm_peek_char
                0x00000000       0x24 c:\Users\fx\Upwork\weather-node\output\core\core.a(usb_cdcacm.c.o)
 .text.usb_cdcacm_get_rts
                0x00000000       0x10 c:\Users\fx\Upwork\weather-node\output\core\core.a(usb_cdcacm.c.o)
 .text.usb_cdcacm_get_line_coding
                0x00000000       0x18 c:\Users\fx\Upwork\weather-node\output\core\core.a(usb_cdcacm.c.o)
 .text.usb_cdcacm_get_baud
                0x00000000        0xc c:\Users\fx\Upwork\weather-node\output\core\core.a(usb_cdcacm.c.o)
 .text.usb_cdcacm_get_stop_bits
                0x00000000        0xc c:\Users\fx\Upwork\weather-node\output\core\core.a(usb_cdcacm.c.o)
 .text.usb_cdcacm_get_parity
                0x00000000        0xc c:\Users\fx\Upwork\weather-node\output\core\core.a(usb_cdcacm.c.o)
 .text.usb_cdcacm_get_n_data_bits
                0x00000000        0xc c:\Users\fx\Upwork\weather-node\output\core\core.a(usb_cdcacm.c.o)
 .text          0x00000000        0x0 c:\Users\fx\Upwork\weather-node\output\core\core.a(usb_reg_map.c.o)
 .data          0x00000000        0x0 c:\Users\fx\Upwork\weather-node\output\core\core.a(usb_reg_map.c.o)
 .bss           0x00000000        0x0 c:\Users\fx\Upwork\weather-node\output\core\core.a(usb_reg_map.c.o)
 .text          0x00000000        0x0 c:\Users\fx\Upwork\weather-node\output\core\core.a(usb_core.c.o)
 .data          0x00000000        0x0 c:\Users\fx\Upwork\weather-node\output\core\core.a(usb_core.c.o)
 .bss           0x00000000        0x0 c:\Users\fx\Upwork\weather-node\output\core\core.a(usb_core.c.o)
 .text          0x00000000        0x0 c:\Users\fx\Upwork\weather-node\output\core\core.a(usb_init.c.o)
 .data          0x00000000        0x0 c:\Users\fx\Upwork\weather-node\output\core\core.a(usb_init.c.o)
 .bss           0x00000000        0x0 c:\Users\fx\Upwork\weather-node\output\core\core.a(usb_init.c.o)
 .text.USB_Init
                0x00000000       0x38 c:\Users\fx\Upwork\weather-node\output\core\core.a(usb_init.c.o)
 .text          0x00000000        0x0 c:\Users\fx\Upwork\weather-node\output\core\core.a(usb_mem.c.o)
 .data          0x00000000        0x0 c:\Users\fx\Upwork\weather-node\output\core\core.a(usb_mem.c.o)
 .bss           0x00000000        0x0 c:\Users\fx\Upwork\weather-node\output\core\core.a(usb_mem.c.o)
 .text          0x00000000        0x0 c:\Users\fx\Upwork\weather-node\output\core\core.a(usb_regs.c.o)
 .data          0x00000000        0x0 c:\Users\fx\Upwork\weather-node\output\core\core.a(usb_regs.c.o)
 .bss           0x00000000        0x0 c:\Users\fx\Upwork\weather-node\output\core\core.a(usb_regs.c.o)
 .text.SetCNTR  0x00000000        0xc c:\Users\fx\Upwork\weather-node\output\core\core.a(usb_regs.c.o)
 .text.GetCNTR  0x00000000        0xc c:\Users\fx\Upwork\weather-node\output\core\core.a(usb_regs.c.o)
 .text.SetISTR  0x00000000        0xc c:\Users\fx\Upwork\weather-node\output\core\core.a(usb_regs.c.o)
 .text.GetISTR  0x00000000        0xc c:\Users\fx\Upwork\weather-node\output\core\core.a(usb_regs.c.o)
 .text.GetFNR   0x00000000        0xc c:\Users\fx\Upwork\weather-node\output\core\core.a(usb_regs.c.o)
 .text.SetDADDR
                0x00000000        0xc c:\Users\fx\Upwork\weather-node\output\core\core.a(usb_regs.c.o)
 .text.GetDADDR
                0x00000000        0xc c:\Users\fx\Upwork\weather-node\output\core\core.a(usb_regs.c.o)
 .text.SetBTABLE
                0x00000000       0x10 c:\Users\fx\Upwork\weather-node\output\core\core.a(usb_regs.c.o)
 .text.GetBTABLE
                0x00000000        0xc c:\Users\fx\Upwork\weather-node\output\core\core.a(usb_regs.c.o)
 .text.SetENDPOINT
                0x00000000        0xe c:\Users\fx\Upwork\weather-node\output\core\core.a(usb_regs.c.o)
 .text.GetENDPOINT
                0x00000000       0x10 c:\Users\fx\Upwork\weather-node\output\core\core.a(usb_regs.c.o)
 .text.SetEPType
                0x00000000       0x1c c:\Users\fx\Upwork\weather-node\output\core\core.a(usb_regs.c.o)
 .text.GetEPType
                0x00000000       0x12 c:\Users\fx\Upwork\weather-node\output\core\core.a(usb_regs.c.o)
 .text.SetEPRxStatus
                0x00000000       0x2a c:\Users\fx\Upwork\weather-node\output\core\core.a(usb_regs.c.o)
 .text.SetDouBleBuffEPStall
                0x00000000       0x24 c:\Users\fx\Upwork\weather-node\output\core\core.a(usb_regs.c.o)
 .text.GetEPTxStatus
                0x00000000       0x12 c:\Users\fx\Upwork\weather-node\output\core\core.a(usb_regs.c.o)
 .text.GetEPRxStatus
                0x00000000       0x12 c:\Users\fx\Upwork\weather-node\output\core\core.a(usb_regs.c.o)
 .text.SetEPTxValid
                0x00000000       0x1e c:\Users\fx\Upwork\weather-node\output\core\core.a(usb_regs.c.o)
 .text.SetEPRxValid
                0x00000000       0x1e c:\Users\fx\Upwork\weather-node\output\core\core.a(usb_regs.c.o)
 .text.SetEP_KIND
                0x00000000       0x1e c:\Users\fx\Upwork\weather-node\output\core\core.a(usb_regs.c.o)
 .text.ClearEP_KIND
                0x00000000       0x1c c:\Users\fx\Upwork\weather-node\output\core\core.a(usb_regs.c.o)
 .text.Clear_Status_Out
                0x00000000       0x1c c:\Users\fx\Upwork\weather-node\output\core\core.a(usb_regs.c.o)
 .text.Set_Status_Out
                0x00000000       0x1e c:\Users\fx\Upwork\weather-node\output\core\core.a(usb_regs.c.o)
 .text.SetEPDoubleBuff
                0x00000000       0x1e c:\Users\fx\Upwork\weather-node\output\core\core.a(usb_regs.c.o)
 .text.ClearEPDoubleBuff
                0x00000000       0x1c c:\Users\fx\Upwork\weather-node\output\core\core.a(usb_regs.c.o)
 .text.GetTxStallStatus
                0x00000000       0x1a c:\Users\fx\Upwork\weather-node\output\core\core.a(usb_regs.c.o)
 .text.GetRxStallStatus
                0x00000000       0x1a c:\Users\fx\Upwork\weather-node\output\core\core.a(usb_regs.c.o)
 .text.ClearEP_CTR_RX
                0x00000000       0x18 c:\Users\fx\Upwork\weather-node\output\core\core.a(usb_regs.c.o)
 .text.ClearEP_CTR_TX
                0x00000000       0x1c c:\Users\fx\Upwork\weather-node\output\core\core.a(usb_regs.c.o)
 .text.ToggleDTOG_RX
                0x00000000       0x20 c:\Users\fx\Upwork\weather-node\output\core\core.a(usb_regs.c.o)
 .text.ToggleDTOG_TX
                0x00000000       0x20 c:\Users\fx\Upwork\weather-node\output\core\core.a(usb_regs.c.o)
 .text.SetEPAddress
                0x00000000       0x1e c:\Users\fx\Upwork\weather-node\output\core\core.a(usb_regs.c.o)
 .text.GetEPAddress
                0x00000000       0x12 c:\Users\fx\Upwork\weather-node\output\core\core.a(usb_regs.c.o)
 .text.SetEPTxAddr
                0x00000000       0x20 c:\Users\fx\Upwork\weather-node\output\core\core.a(usb_regs.c.o)
 .text.SetEPRxAddr
                0x00000000       0x20 c:\Users\fx\Upwork\weather-node\output\core\core.a(usb_regs.c.o)
 .text.SetEPCountRxReg
                0x00000000       0x26 c:\Users\fx\Upwork\weather-node\output\core\core.a(usb_regs.c.o)
 .text.GetEPTxCount
                0x00000000       0x20 c:\Users\fx\Upwork\weather-node\output\core\core.a(usb_regs.c.o)
 .text.GetEPRxCount
                0x00000000       0x20 c:\Users\fx\Upwork\weather-node\output\core\core.a(usb_regs.c.o)
 .text.SetEPDblBuffAddr
                0x00000000       0x38 c:\Users\fx\Upwork\weather-node\output\core\core.a(usb_regs.c.o)
 .text.SetEPDblBuf0Addr
                0x00000000       0x20 c:\Users\fx\Upwork\weather-node\output\core\core.a(usb_regs.c.o)
 .text.SetEPDblBuf1Addr
                0x00000000       0x20 c:\Users\fx\Upwork\weather-node\output\core\core.a(usb_regs.c.o)
 .text.GetEPDblBuf0Addr
                0x00000000       0x1c c:\Users\fx\Upwork\weather-node\output\core\core.a(usb_regs.c.o)
 .text.GetEPDblBuf1Addr
                0x00000000       0x1c c:\Users\fx\Upwork\weather-node\output\core\core.a(usb_regs.c.o)
 .text.SetEPDblBuffCount
                0x00000000       0xa8 c:\Users\fx\Upwork\weather-node\output\core\core.a(usb_regs.c.o)
 .text.SetEPDblBuf0Count
                0x00000000       0x5c c:\Users\fx\Upwork\weather-node\output\core\core.a(usb_regs.c.o)
 .text.SetEPDblBuf1Count
                0x00000000       0x5c c:\Users\fx\Upwork\weather-node\output\core\core.a(usb_regs.c.o)
 .text.GetEPDblBuf0Count
                0x00000000       0x20 c:\Users\fx\Upwork\weather-node\output\core\core.a(usb_regs.c.o)
 .text.GetEPDblBuf1Count
                0x00000000       0x20 c:\Users\fx\Upwork\weather-node\output\core\core.a(usb_regs.c.o)
 .text.GetEPDblBufDir
                0x00000000       0x44 c:\Users\fx\Upwork\weather-node\output\core\core.a(usb_regs.c.o)
 .text.FreeUserBuffer
                0x00000000       0x3a c:\Users\fx\Upwork\weather-node\output\core\core.a(usb_regs.c.o)
 .text.ToWord   0x00000000        0x6 c:\Users\fx\Upwork\weather-node\output\core\core.a(usb_regs.c.o)
 .text.ByteSwap
                0x00000000        0xa c:\Users\fx\Upwork\weather-node\output\core\core.a(usb_regs.c.o)
 .text          0x00000000        0x0 c:\Users\fx\Upwork\weather-node\output\core\core.a(util.c.o)
 .data          0x00000000        0x0 c:\Users\fx\Upwork\weather-node\output\core\core.a(util.c.o)
 .bss           0x00000000        0x0 c:\Users\fx\Upwork\weather-node\output\core\core.a(util.c.o)
 .text.usart_putc
                0x00000000       0x1c c:\Users\fx\Upwork\weather-node\output\core\core.a(util.c.o)
 .text.usart_putstr
                0x00000000       0x16 c:\Users\fx\Upwork\weather-node\output\core\core.a(util.c.o)
 .text._fail    0x00000000       0x64 c:\Users\fx\Upwork\weather-node\output\core\core.a(util.c.o)
 .text.__assert_func
                0x00000000        0x8 c:\Users\fx\Upwork\weather-node\output\core\core.a(util.c.o)
 .text.abort    0x00000000       0x1c c:\Users\fx\Upwork\weather-node\output\core\core.a(util.c.o)
 .rodata.str1.1
                0x00000000       0x42 c:\Users\fx\Upwork\weather-node\output\core\core.a(util.c.o)
 .text          0x00000000        0x0 c:\Users\fx\Upwork\weather-node\output\core\core.a(main.cpp.o)
 .data          0x00000000        0x0 c:\Users\fx\Upwork\weather-node\output\core\core.a(main.cpp.o)
 .bss           0x00000000        0x0 c:\Users\fx\Upwork\weather-node\output\core\core.a(main.cpp.o)
 .text          0x00000000        0x0 c:\Users\fx\Upwork\weather-node\output\core\core.a(new.cpp.o)
 .data          0x00000000        0x0 c:\Users\fx\Upwork\weather-node\output\core\core.a(new.cpp.o)
 .bss           0x00000000        0x0 c:\Users\fx\Upwork\weather-node\output\core\core.a(new.cpp.o)
 .text._Znwj    0x00000000        0x4 c:\Users\fx\Upwork\weather-node\output\core\core.a(new.cpp.o)
 .text._Znaj    0x00000000        0x4 c:\Users\fx\Upwork\weather-node\output\core\core.a(new.cpp.o)
 .text._ZdlPv   0x00000000        0x4 c:\Users\fx\Upwork\weather-node\output\core\core.a(new.cpp.o)
 .text._ZdaPv   0x00000000        0x4 c:\Users\fx\Upwork\weather-node\output\core\core.a(new.cpp.o)
 .text          0x00000000        0x0 c:\Users\fx\Upwork\weather-node\output\core\core.a(wirish_digital_f1.cpp.o)
 .data          0x00000000        0x0 c:\Users\fx\Upwork\weather-node\output\core\core.a(wirish_digital_f1.cpp.o)
 .bss           0x00000000        0x0 c:\Users\fx\Upwork\weather-node\output\core\core.a(wirish_digital_f1.cpp.o)
 .group         0x00000000        0x8 c:\Users\fx\Upwork\weather-node\output\core\core.a(usb_serial.cpp.o)
 .text          0x00000000        0x0 c:\Users\fx\Upwork\weather-node\output\core\core.a(usb_serial.cpp.o)
 .data          0x00000000        0x0 c:\Users\fx\Upwork\weather-node\output\core\core.a(usb_serial.cpp.o)
 .bss           0x00000000        0x0 c:\Users\fx\Upwork\weather-node\output\core\core.a(usb_serial.cpp.o)
 .text._ZN9USBSerial5beginEmh
                0x00000000       0x18 c:\Users\fx\Upwork\weather-node\output\core\core.a(usb_serial.cpp.o)
 .text._ZN9USBSerial3endEv
                0x00000000       0x20 c:\Users\fx\Upwork\weather-node\output\core\core.a(usb_serial.cpp.o)
 .text._ZN9USBSerial17availableForWriteEv
                0x00000000        0x4 c:\Users\fx\Upwork\weather-node\output\core\core.a(usb_serial.cpp.o)
 .text._ZN9USBSerial9readBytesEPcRKj
                0x00000000       0x40 c:\Users\fx\Upwork\weather-node\output\core\core.a(usb_serial.cpp.o)
 .text._ZN9USBSerial7pendingEv
                0x00000000        0xa c:\Users\fx\Upwork\weather-node\output\core\core.a(usb_serial.cpp.o)
 .text._ZN9USBSerial6getDTREv
                0x00000000        0x4 c:\Users\fx\Upwork\weather-node\output\core\core.a(usb_serial.cpp.o)
 .text._ZN9USBSerial6getRTSEv
                0x00000000        0x4 c:\Users\fx\Upwork\weather-node\output\core\core.a(usb_serial.cpp.o)
 .text._ZN9USBSerialcvbEv
                0x00000000       0x20 c:\Users\fx\Upwork\weather-node\output\core\core.a(usb_serial.cpp.o)
 .text._ZN9USBSerial16enableBlockingTxEv
                0x00000000        0xc c:\Users\fx\Upwork\weather-node\output\core\core.a(usb_serial.cpp.o)
 .text._ZN9USBSerial17disableBlockingTxEv
                0x00000000        0xc c:\Users\fx\Upwork\weather-node\output\core\core.a(usb_serial.cpp.o)
 .rodata._ZTV6Stream
                0x00000000       0x28 c:\Users\fx\Upwork\weather-node\output\core\core.a(usb_serial.cpp.o)
 .text          0x00000000        0x0 c:\Users\fx\Upwork\weather-node\output\core\core.a(wirish_digital.cpp.o)
 .data          0x00000000        0x0 c:\Users\fx\Upwork\weather-node\output\core\core.a(wirish_digital.cpp.o)
 .bss           0x00000000        0x0 c:\Users\fx\Upwork\weather-node\output\core\core.a(wirish_digital.cpp.o)
 .text          0x00000000        0x0 c:\Users\fx\Upwork\weather-node\output\core\core.a(wirish_time.cpp.o)
 .data          0x00000000        0x0 c:\Users\fx\Upwork\weather-node\output\core\core.a(wirish_time.cpp.o)
 .bss           0x00000000        0x0 c:\Users\fx\Upwork\weather-node\output\core\core.a(wirish_time.cpp.o)
 .text          0x00000000        0x0 c:\Users\fx\Upwork\weather-node\output\core\core.a(hooks.c.o)
 .data          0x00000000        0x0 c:\Users\fx\Upwork\weather-node\output\core\core.a(hooks.c.o)
 .bss           0x00000000        0x0 c:\Users\fx\Upwork\weather-node\output\core\core.a(hooks.c.o)
 .text          0x00000000        0x0 c:\Users\fx\Upwork\weather-node\output\core\core.a(bkp_f1.c.o)
 .data          0x00000000        0x0 c:\Users\fx\Upwork\weather-node\output\core\core.a(bkp_f1.c.o)
 .bss           0x00000000        0x0 c:\Users\fx\Upwork\weather-node\output\core\core.a(bkp_f1.c.o)
 .text.bkp_read
                0x00000000       0x1c c:\Users\fx\Upwork\weather-node\output\core\core.a(bkp_f1.c.o)
 .data.bkp      0x00000000        0x4 c:\Users\fx\Upwork\weather-node\output\core\core.a(bkp_f1.c.o)
 .data.BKP      0x00000000        0x4 c:\Users\fx\Upwork\weather-node\output\core\core.a(bkp_f1.c.o)
 .text          0x00000000        0x0 c:\Users\fx\Upwork\weather-node\output\core\core.a(dma.c.o)
 .data          0x00000000        0x0 c:\Users\fx\Upwork\weather-node\output\core\core.a(dma.c.o)
 .bss           0x00000000        0x0 c:\Users\fx\Upwork\weather-node\output\core\core.a(dma.c.o)
 .text.dma_init
                0x00000000        0x6 c:\Users\fx\Upwork\weather-node\output\core\core.a(dma.c.o)
 .text._dma_addr_type
                0x00000000       0x28 c:\Users\fx\Upwork\weather-node\output\core\core.a(dma.c.o)
 .text          0x00000000        0x0 c:\Users\fx\Upwork\weather-node\output\core\core.a(gpio.c.o)
 .data          0x00000000        0x0 c:\Users\fx\Upwork\weather-node\output\core\core.a(gpio.c.o)
 .bss           0x00000000        0x0 c:\Users\fx\Upwork\weather-node\output\core\core.a(gpio.c.o)
 .text          0x00000000        0x0 c:\Users\fx\Upwork\weather-node\output\core\core.a(i2c.c.o)
 .data          0x00000000        0x0 c:\Users\fx\Upwork\weather-node\output\core\core.a(i2c.c.o)
 .bss           0x00000000        0x0 c:\Users\fx\Upwork\weather-node\output\core\core.a(i2c.c.o)
 .text.nvic_irq_enable
                0x00000000       0x1c c:\Users\fx\Upwork\weather-node\output\core\core.a(i2c.c.o)
 .text.delay_us.part.0.constprop.6
                0x00000000        0xa c:\Users\fx\Upwork\weather-node\output\core\core.a(i2c.c.o)
 .text.i2c_bus_reset
                0x00000000       0xc2 c:\Users\fx\Upwork\weather-node\output\core\core.a(i2c.c.o)
 .text.i2c_init
                0x00000000       0x1e c:\Users\fx\Upwork\weather-node\output\core\core.a(i2c.c.o)
 .text.wait_for_state_change
                0x00000000       0x98 c:\Users\fx\Upwork\weather-node\output\core\core.a(i2c.c.o)
 .text.i2c_master_xfer
                0x00000000       0xcc c:\Users\fx\Upwork\weather-node\output\core\core.a(i2c.c.o)
 .text.i2c_set_ccr_trise
                0x00000000       0x54 c:\Users\fx\Upwork\weather-node\output\core\core.a(i2c.c.o)
 .text.i2c_master_enable
                0x00000000      0x1b4 c:\Users\fx\Upwork\weather-node\output\core\core.a(i2c.c.o)
 .text.i2c_slave_enable
                0x00000000        0x8 c:\Users\fx\Upwork\weather-node\output\core\core.a(i2c.c.o)
 .text.i2c_slave_attach_recv_handler
                0x00000000        0xa c:\Users\fx\Upwork\weather-node\output\core\core.a(i2c.c.o)
 .text.i2c_slave_attach_transmit_handler
                0x00000000        0xa c:\Users\fx\Upwork\weather-node\output\core\core.a(i2c.c.o)
 .text          0x00000000        0x0 c:/users/fx/appdata/local/arduino15/packages/arduino/tools/arm-none-eabi-gcc/4.8.3-2014q1/bin/../lib/gcc/arm-none-eabi/4.8.3/../../../../arm-none-eabi/lib/armv7-m\libm.a(lib_a-w_sqrt.o)
 .data          0x00000000        0x0 c:/users/fx/appdata/local/arduino15/packages/arduino/tools/arm-none-eabi-gcc/4.8.3-2014q1/bin/../lib/gcc/arm-none-eabi/4.8.3/../../../../arm-none-eabi/lib/armv7-m\libm.a(lib_a-w_sqrt.o)
 .bss           0x00000000        0x0 c:/users/fx/appdata/local/arduino15/packages/arduino/tools/arm-none-eabi-gcc/4.8.3-2014q1/bin/../lib/gcc/arm-none-eabi/4.8.3/../../../../arm-none-eabi/lib/armv7-m\libm.a(lib_a-w_sqrt.o)
 .text.sqrt     0x00000000       0xac c:/users/fx/appdata/local/arduino15/packages/arduino/tools/arm-none-eabi-gcc/4.8.3-2014q1/bin/../lib/gcc/arm-none-eabi/4.8.3/../../../../arm-none-eabi/lib/armv7-m\libm.a(lib_a-w_sqrt.o)
 .rodata.str1.4
                0x00000000        0x8 c:/users/fx/appdata/local/arduino15/packages/arduino/tools/arm-none-eabi-gcc/4.8.3-2014q1/bin/../lib/gcc/arm-none-eabi/4.8.3/../../../../arm-none-eabi/lib/armv7-m\libm.a(lib_a-w_sqrt.o)
 .text          0x00000000        0x0 c:/users/fx/appdata/local/arduino15/packages/arduino/tools/arm-none-eabi-gcc/4.8.3-2014q1/bin/../lib/gcc/arm-none-eabi/4.8.3/../../../../arm-none-eabi/lib/armv7-m\libm.a(lib_a-e_sqrt.o)
 .data          0x00000000        0x0 c:/users/fx/appdata/local/arduino15/packages/arduino/tools/arm-none-eabi-gcc/4.8.3-2014q1/bin/../lib/gcc/arm-none-eabi/4.8.3/../../../../arm-none-eabi/lib/armv7-m\libm.a(lib_a-e_sqrt.o)
 .bss           0x00000000        0x0 c:/users/fx/appdata/local/arduino15/packages/arduino/tools/arm-none-eabi-gcc/4.8.3-2014q1/bin/../lib/gcc/arm-none-eabi/4.8.3/../../../../arm-none-eabi/lib/armv7-m\libm.a(lib_a-e_sqrt.o)
 .text.__ieee754_sqrt
                0x00000000      0x180 c:/users/fx/appdata/local/arduino15/packages/arduino/tools/arm-none-eabi-gcc/4.8.3-2014q1/bin/../lib/gcc/arm-none-eabi/4.8.3/../../../../arm-none-eabi/lib/armv7-m\libm.a(lib_a-e_sqrt.o)
 .text          0x00000000        0x0 c:/users/fx/appdata/local/arduino15/packages/arduino/tools/arm-none-eabi-gcc/4.8.3-2014q1/bin/../lib/gcc/arm-none-eabi/4.8.3/../../../../arm-none-eabi/lib/armv7-m\libm.a(lib_a-s_fpclassify.o)
 .data          0x00000000        0x0 c:/users/fx/appdata/local/arduino15/packages/arduino/tools/arm-none-eabi-gcc/4.8.3-2014q1/bin/../lib/gcc/arm-none-eabi/4.8.3/../../../../arm-none-eabi/lib/armv7-m\libm.a(lib_a-s_fpclassify.o)
 .bss           0x00000000        0x0 c:/users/fx/appdata/local/arduino15/packages/arduino/tools/arm-none-eabi-gcc/4.8.3-2014q1/bin/../lib/gcc/arm-none-eabi/4.8.3/../../../../arm-none-eabi/lib/armv7-m\libm.a(lib_a-s_fpclassify.o)
 .text          0x00000000        0x0 c:/users/fx/appdata/local/arduino15/packages/arduino/tools/arm-none-eabi-gcc/4.8.3-2014q1/bin/../lib/gcc/arm-none-eabi/4.8.3/../../../../arm-none-eabi/lib/armv7-m\libm.a(lib_a-s_lib_ver.o)
 .data          0x00000000        0x0 c:/users/fx/appdata/local/arduino15/packages/arduino/tools/arm-none-eabi-gcc/4.8.3-2014q1/bin/../lib/gcc/arm-none-eabi/4.8.3/../../../../arm-none-eabi/lib/armv7-m\libm.a(lib_a-s_lib_ver.o)
 .bss           0x00000000        0x0 c:/users/fx/appdata/local/arduino15/packages/arduino/tools/arm-none-eabi-gcc/4.8.3-2014q1/bin/../lib/gcc/arm-none-eabi/4.8.3/../../../../arm-none-eabi/lib/armv7-m\libm.a(lib_a-s_lib_ver.o)
 .data.__fdlib_version
                0x00000000        0x1 c:/users/fx/appdata/local/arduino15/packages/arduino/tools/arm-none-eabi-gcc/4.8.3-2014q1/bin/../lib/gcc/arm-none-eabi/4.8.3/../../../../arm-none-eabi/lib/armv7-m\libm.a(lib_a-s_lib_ver.o)
 .text          0x00000000        0x0 c:/users/fx/appdata/local/arduino15/packages/arduino/tools/arm-none-eabi-gcc/4.8.3-2014q1/bin/../lib/gcc/arm-none-eabi/4.8.3/../../../../arm-none-eabi/lib/armv7-m\libm.a(lib_a-s_matherr.o)
 .data          0x00000000        0x0 c:/users/fx/appdata/local/arduino15/packages/arduino/tools/arm-none-eabi-gcc/4.8.3-2014q1/bin/../lib/gcc/arm-none-eabi/4.8.3/../../../../arm-none-eabi/lib/armv7-m\libm.a(lib_a-s_matherr.o)
 .bss           0x00000000        0x0 c:/users/fx/appdata/local/arduino15/packages/arduino/tools/arm-none-eabi-gcc/4.8.3-2014q1/bin/../lib/gcc/arm-none-eabi/4.8.3/../../../../arm-none-eabi/lib/armv7-m\libm.a(lib_a-s_matherr.o)
 .text.matherr  0x00000000        0x4 c:/users/fx/appdata/local/arduino15/packages/arduino/tools/arm-none-eabi-gcc/4.8.3-2014q1/bin/../lib/gcc/arm-none-eabi/4.8.3/../../../../arm-none-eabi/lib/armv7-m\libm.a(lib_a-s_matherr.o)
 .data          0x00000000        0x0 c:/users/fx/appdata/local/arduino15/packages/arduino/tools/arm-none-eabi-gcc/4.8.3-2014q1/bin/../lib/gcc/arm-none-eabi/4.8.3/armv7-m\libgcc.a(_arm_addsubdf3.o)
 .bss           0x00000000        0x0 c:/users/fx/appdata/local/arduino15/packages/arduino/tools/arm-none-eabi-gcc/4.8.3-2014q1/bin/../lib/gcc/arm-none-eabi/4.8.3/armv7-m\libgcc.a(_arm_addsubdf3.o)
 .data          0x00000000        0x0 c:/users/fx/appdata/local/arduino15/packages/arduino/tools/arm-none-eabi-gcc/4.8.3-2014q1/bin/../lib/gcc/arm-none-eabi/4.8.3/armv7-m\libgcc.a(_arm_muldivdf3.o)
 .bss           0x00000000        0x0 c:/users/fx/appdata/local/arduino15/packages/arduino/tools/arm-none-eabi-gcc/4.8.3-2014q1/bin/../lib/gcc/arm-none-eabi/4.8.3/armv7-m\libgcc.a(_arm_muldivdf3.o)
 .data          0x00000000        0x0 c:/users/fx/appdata/local/arduino15/packages/arduino/tools/arm-none-eabi-gcc/4.8.3-2014q1/bin/../lib/gcc/arm-none-eabi/4.8.3/armv7-m\libgcc.a(_arm_cmpdf2.o)
 .bss           0x00000000        0x0 c:/users/fx/appdata/local/arduino15/packages/arduino/tools/arm-none-eabi-gcc/4.8.3-2014q1/bin/../lib/gcc/arm-none-eabi/4.8.3/armv7-m\libgcc.a(_arm_cmpdf2.o)
 .data          0x00000000        0x0 c:/users/fx/appdata/local/arduino15/packages/arduino/tools/arm-none-eabi-gcc/4.8.3-2014q1/bin/../lib/gcc/arm-none-eabi/4.8.3/armv7-m\libgcc.a(_arm_fixdfsi.o)
 .bss           0x00000000        0x0 c:/users/fx/appdata/local/arduino15/packages/arduino/tools/arm-none-eabi-gcc/4.8.3-2014q1/bin/../lib/gcc/arm-none-eabi/4.8.3/armv7-m\libgcc.a(_arm_fixdfsi.o)
 .data          0x00000000        0x0 c:/users/fx/appdata/local/arduino15/packages/arduino/tools/arm-none-eabi-gcc/4.8.3-2014q1/bin/../lib/gcc/arm-none-eabi/4.8.3/armv7-m\libgcc.a(_arm_truncdfsf2.o)
 .bss           0x00000000        0x0 c:/users/fx/appdata/local/arduino15/packages/arduino/tools/arm-none-eabi-gcc/4.8.3-2014q1/bin/../lib/gcc/arm-none-eabi/4.8.3/armv7-m\libgcc.a(_arm_truncdfsf2.o)
 .data          0x00000000        0x0 c:/users/fx/appdata/local/arduino15/packages/arduino/tools/arm-none-eabi-gcc/4.8.3-2014q1/bin/../lib/gcc/arm-none-eabi/4.8.3/armv7-m\libgcc.a(_arm_addsubsf3.o)
 .bss           0x00000000        0x0 c:/users/fx/appdata/local/arduino15/packages/arduino/tools/arm-none-eabi-gcc/4.8.3-2014q1/bin/../lib/gcc/arm-none-eabi/4.8.3/armv7-m\libgcc.a(_arm_addsubsf3.o)
 .text          0x00000000       0xec c:/users/fx/appdata/local/arduino15/packages/arduino/tools/arm-none-eabi-gcc/4.8.3-2014q1/bin/../lib/gcc/arm-none-eabi/4.8.3/armv7-m\libgcc.a(_arm_cmpsf2.o)
 .data          0x00000000        0x0 c:/users/fx/appdata/local/arduino15/packages/arduino/tools/arm-none-eabi-gcc/4.8.3-2014q1/bin/../lib/gcc/arm-none-eabi/4.8.3/armv7-m\libgcc.a(_arm_cmpsf2.o)
 .bss           0x00000000        0x0 c:/users/fx/appdata/local/arduino15/packages/arduino/tools/arm-none-eabi-gcc/4.8.3-2014q1/bin/../lib/gcc/arm-none-eabi/4.8.3/armv7-m\libgcc.a(_arm_cmpsf2.o)
 .data          0x00000000        0x0 c:/users/fx/appdata/local/arduino15/packages/arduino/tools/arm-none-eabi-gcc/4.8.3-2014q1/bin/../lib/gcc/arm-none-eabi/4.8.3/armv7-m\libgcc.a(_aeabi_uldivmod.o)
 .bss           0x00000000        0x0 c:/users/fx/appdata/local/arduino15/packages/arduino/tools/arm-none-eabi-gcc/4.8.3-2014q1/bin/../lib/gcc/arm-none-eabi/4.8.3/armv7-m\libgcc.a(_aeabi_uldivmod.o)
 .text          0x00000000       0x30 c:/users/fx/appdata/local/arduino15/packages/arduino/tools/arm-none-eabi-gcc/4.8.3-2014q1/bin/../lib/gcc/arm-none-eabi/4.8.3/armv7-m\libgcc.a(_fixdfdi.o)
 .data          0x00000000        0x0 c:/users/fx/appdata/local/arduino15/packages/arduino/tools/arm-none-eabi-gcc/4.8.3-2014q1/bin/../lib/gcc/arm-none-eabi/4.8.3/armv7-m\libgcc.a(_fixdfdi.o)
 .bss           0x00000000        0x0 c:/users/fx/appdata/local/arduino15/packages/arduino/tools/arm-none-eabi-gcc/4.8.3-2014q1/bin/../lib/gcc/arm-none-eabi/4.8.3/armv7-m\libgcc.a(_fixdfdi.o)
 .text          0x00000000       0x44 c:/users/fx/appdata/local/arduino15/packages/arduino/tools/arm-none-eabi-gcc/4.8.3-2014q1/bin/../lib/gcc/arm-none-eabi/4.8.3/armv7-m\libgcc.a(_fixunsdfdi.o)
 .data          0x00000000        0x0 c:/users/fx/appdata/local/arduino15/packages/arduino/tools/arm-none-eabi-gcc/4.8.3-2014q1/bin/../lib/gcc/arm-none-eabi/4.8.3/armv7-m\libgcc.a(_fixunsdfdi.o)
 .bss           0x00000000        0x0 c:/users/fx/appdata/local/arduino15/packages/arduino/tools/arm-none-eabi-gcc/4.8.3-2014q1/bin/../lib/gcc/arm-none-eabi/4.8.3/armv7-m\libgcc.a(_fixunsdfdi.o)
 .data          0x00000000        0x0 c:/users/fx/appdata/local/arduino15/packages/arduino/tools/arm-none-eabi-gcc/4.8.3-2014q1/bin/../lib/gcc/arm-none-eabi/4.8.3/armv7-m\libgcc.a(bpabi.o)
 .bss           0x00000000        0x0 c:/users/fx/appdata/local/arduino15/packages/arduino/tools/arm-none-eabi-gcc/4.8.3-2014q1/bin/../lib/gcc/arm-none-eabi/4.8.3/armv7-m\libgcc.a(bpabi.o)
 .data          0x00000000        0x0 c:/users/fx/appdata/local/arduino15/packages/arduino/tools/arm-none-eabi-gcc/4.8.3-2014q1/bin/../lib/gcc/arm-none-eabi/4.8.3/armv7-m\libgcc.a(_dvmd_tls.o)
 .bss           0x00000000        0x0 c:/users/fx/appdata/local/arduino15/packages/arduino/tools/arm-none-eabi-gcc/4.8.3-2014q1/bin/../lib/gcc/arm-none-eabi/4.8.3/armv7-m\libgcc.a(_dvmd_tls.o)
 .text          0x00000000       0x40 c:/users/fx/appdata/local/arduino15/packages/arduino/tools/arm-none-eabi-gcc/4.8.3-2014q1/bin/../lib/gcc/arm-none-eabi/4.8.3/armv7-m\libgcc.a(_arm_fixunsdfsi.o)
 .data          0x00000000        0x0 c:/users/fx/appdata/local/arduino15/packages/arduino/tools/arm-none-eabi-gcc/4.8.3-2014q1/bin/../lib/gcc/arm-none-eabi/4.8.3/armv7-m\libgcc.a(_arm_fixunsdfsi.o)
 .bss           0x00000000        0x0 c:/users/fx/appdata/local/arduino15/packages/arduino/tools/arm-none-eabi-gcc/4.8.3-2014q1/bin/../lib/gcc/arm-none-eabi/4.8.3/armv7-m\libgcc.a(_arm_fixunsdfsi.o)
 .data          0x00000000        0x0 c:/users/fx/appdata/local/arduino15/packages/arduino/tools/arm-none-eabi-gcc/4.8.3-2014q1/bin/../lib/gcc/arm-none-eabi/4.8.3/armv7-m\libgcc.a(_divdi3.o)
 .bss           0x00000000        0x0 c:/users/fx/appdata/local/arduino15/packages/arduino/tools/arm-none-eabi-gcc/4.8.3-2014q1/bin/../lib/gcc/arm-none-eabi/4.8.3/armv7-m\libgcc.a(_divdi3.o)
 .ARM.extab     0x00000000        0x0 c:/users/fx/appdata/local/arduino15/packages/arduino/tools/arm-none-eabi-gcc/4.8.3-2014q1/bin/../lib/gcc/arm-none-eabi/4.8.3/armv7-m\libgcc.a(_divdi3.o)
 .data          0x00000000        0x0 c:/users/fx/appdata/local/arduino15/packages/arduino/tools/arm-none-eabi-gcc/4.8.3-2014q1/bin/../lib/gcc/arm-none-eabi/4.8.3/armv7-m\libgcc.a(_udivdi3.o)
 .bss           0x00000000        0x0 c:/users/fx/appdata/local/arduino15/packages/arduino/tools/arm-none-eabi-gcc/4.8.3-2014q1/bin/../lib/gcc/arm-none-eabi/4.8.3/armv7-m\libgcc.a(_udivdi3.o)
 .ARM.extab     0x00000000        0x0 c:/users/fx/appdata/local/arduino15/packages/arduino/tools/arm-none-eabi-gcc/4.8.3-2014q1/bin/../lib/gcc/arm-none-eabi/4.8.3/armv7-m\libgcc.a(_udivdi3.o)
 .text          0x00000000        0x0 c:/users/fx/appdata/local/arduino15/packages/arduino/tools/arm-none-eabi-gcc/4.8.3-2014q1/bin/../lib/gcc/arm-none-eabi/4.8.3/../../../../arm-none-eabi/lib/armv7-m\libc.a(lib_a-errno.o)
 .data          0x00000000        0x0 c:/users/fx/appdata/local/arduino15/packages/arduino/tools/arm-none-eabi-gcc/4.8.3-2014q1/bin/../lib/gcc/arm-none-eabi/4.8.3/../../../../arm-none-eabi/lib/armv7-m\libc.a(lib_a-errno.o)
 .bss           0x00000000        0x0 c:/users/fx/appdata/local/arduino15/packages/arduino/tools/arm-none-eabi-gcc/4.8.3-2014q1/bin/../lib/gcc/arm-none-eabi/4.8.3/../../../../arm-none-eabi/lib/armv7-m\libc.a(lib_a-errno.o)
 .text          0x00000000        0x0 c:/users/fx/appdata/local/arduino15/packages/arduino/tools/arm-none-eabi-gcc/4.8.3-2014q1/bin/../lib/gcc/arm-none-eabi/4.8.3/../../../../arm-none-eabi/lib/armv7-m\libc.a(lib_a-exit.o)
 .data          0x00000000        0x0 c:/users/fx/appdata/local/arduino15/packages/arduino/tools/arm-none-eabi-gcc/4.8.3-2014q1/bin/../lib/gcc/arm-none-eabi/4.8.3/../../../../arm-none-eabi/lib/armv7-m\libc.a(lib_a-exit.o)
 .bss           0x00000000        0x0 c:/users/fx/appdata/local/arduino15/packages/arduino/tools/arm-none-eabi-gcc/4.8.3-2014q1/bin/../lib/gcc/arm-none-eabi/4.8.3/../../../../arm-none-eabi/lib/armv7-m\libc.a(lib_a-exit.o)
 .text.exit     0x00000000       0x20 c:/users/fx/appdata/local/arduino15/packages/arduino/tools/arm-none-eabi-gcc/4.8.3-2014q1/bin/../lib/gcc/arm-none-eabi/4.8.3/../../../../arm-none-eabi/lib/armv7-m\libc.a(lib_a-exit.o)
 .text          0x00000000        0x0 c:/users/fx/appdata/local/arduino15/packages/arduino/tools/arm-none-eabi-gcc/4.8.3-2014q1/bin/../lib/gcc/arm-none-eabi/4.8.3/../../../../arm-none-eabi/lib/armv7-m\libc.a(lib_a-impure.o)
 .data          0x00000000        0x0 c:/users/fx/appdata/local/arduino15/packages/arduino/tools/arm-none-eabi-gcc/4.8.3-2014q1/bin/../lib/gcc/arm-none-eabi/4.8.3/../../../../arm-none-eabi/lib/armv7-m\libc.a(lib_a-impure.o)
 .bss           0x00000000        0x0 c:/users/fx/appdata/local/arduino15/packages/arduino/tools/arm-none-eabi-gcc/4.8.3-2014q1/bin/../lib/gcc/arm-none-eabi/4.8.3/../../../../arm-none-eabi/lib/armv7-m\libc.a(lib_a-impure.o)
 .text          0x00000000        0x0 c:/users/fx/appdata/local/arduino15/packages/arduino/tools/arm-none-eabi-gcc/4.8.3-2014q1/bin/../lib/gcc/arm-none-eabi/4.8.3/../../../../arm-none-eabi/lib/armv7-m\libc.a(lib_a-init.o)
 .data          0x00000000        0x0 c:/users/fx/appdata/local/arduino15/packages/arduino/tools/arm-none-eabi-gcc/4.8.3-2014q1/bin/../lib/gcc/arm-none-eabi/4.8.3/../../../../arm-none-eabi/lib/armv7-m\libc.a(lib_a-init.o)
 .bss           0x00000000        0x0 c:/users/fx/appdata/local/arduino15/packages/arduino/tools/arm-none-eabi-gcc/4.8.3-2014q1/bin/../lib/gcc/arm-none-eabi/4.8.3/../../../../arm-none-eabi/lib/armv7-m\libc.a(lib_a-init.o)
 .text          0x00000000        0x0 c:/users/fx/appdata/local/arduino15/packages/arduino/tools/arm-none-eabi-gcc/4.8.3-2014q1/bin/../lib/gcc/arm-none-eabi/4.8.3/../../../../arm-none-eabi/lib/armv7-m\libc.a(lib_a-malloc.o)
 .data          0x00000000        0x0 c:/users/fx/appdata/local/arduino15/packages/arduino/tools/arm-none-eabi-gcc/4.8.3-2014q1/bin/../lib/gcc/arm-none-eabi/4.8.3/../../../../arm-none-eabi/lib/armv7-m\libc.a(lib_a-malloc.o)
 .bss           0x00000000        0x0 c:/users/fx/appdata/local/arduino15/packages/arduino/tools/arm-none-eabi-gcc/4.8.3-2014q1/bin/../lib/gcc/arm-none-eabi/4.8.3/../../../../arm-none-eabi/lib/armv7-m\libc.a(lib_a-malloc.o)
 .text.free     0x00000000       0x10 c:/users/fx/appdata/local/arduino15/packages/arduino/tools/arm-none-eabi-gcc/4.8.3-2014q1/bin/../lib/gcc/arm-none-eabi/4.8.3/../../../../arm-none-eabi/lib/armv7-m\libc.a(lib_a-malloc.o)
 .text          0x00000000        0x0 c:/users/fx/appdata/local/arduino15/packages/arduino/tools/arm-none-eabi-gcc/4.8.3-2014q1/bin/../lib/gcc/arm-none-eabi/4.8.3/../../../../arm-none-eabi/lib/armv7-m\libc.a(lib_a-mallocr.o)
 .data          0x00000000        0x0 c:/users/fx/appdata/local/arduino15/packages/arduino/tools/arm-none-eabi-gcc/4.8.3-2014q1/bin/../lib/gcc/arm-none-eabi/4.8.3/../../../../arm-none-eabi/lib/armv7-m\libc.a(lib_a-mallocr.o)
 .bss           0x00000000        0x0 c:/users/fx/appdata/local/arduino15/packages/arduino/tools/arm-none-eabi-gcc/4.8.3-2014q1/bin/../lib/gcc/arm-none-eabi/4.8.3/../../../../arm-none-eabi/lib/armv7-m\libc.a(lib_a-mallocr.o)
 .text          0x00000000        0x0 c:/users/fx/appdata/local/arduino15/packages/arduino/tools/arm-none-eabi-gcc/4.8.3-2014q1/bin/../lib/gcc/arm-none-eabi/4.8.3/../../../../arm-none-eabi/lib/armv7-m\libc.a(lib_a-memchr-stub.o)
 .data          0x00000000        0x0 c:/users/fx/appdata/local/arduino15/packages/arduino/tools/arm-none-eabi-gcc/4.8.3-2014q1/bin/../lib/gcc/arm-none-eabi/4.8.3/../../../../arm-none-eabi/lib/armv7-m\libc.a(lib_a-memchr-stub.o)
 .bss           0x00000000        0x0 c:/users/fx/appdata/local/arduino15/packages/arduino/tools/arm-none-eabi-gcc/4.8.3-2014q1/bin/../lib/gcc/arm-none-eabi/4.8.3/../../../../arm-none-eabi/lib/armv7-m\libc.a(lib_a-memchr-stub.o)
 .text          0x00000000        0x0 c:/users/fx/appdata/local/arduino15/packages/arduino/tools/arm-none-eabi-gcc/4.8.3-2014q1/bin/../lib/gcc/arm-none-eabi/4.8.3/../../../../arm-none-eabi/lib/armv7-m\libc.a(lib_a-memcmp.o)
 .data          0x00000000        0x0 c:/users/fx/appdata/local/arduino15/packages/arduino/tools/arm-none-eabi-gcc/4.8.3-2014q1/bin/../lib/gcc/arm-none-eabi/4.8.3/../../../../arm-none-eabi/lib/armv7-m\libc.a(lib_a-memcmp.o)
 .bss           0x00000000        0x0 c:/users/fx/appdata/local/arduino15/packages/arduino/tools/arm-none-eabi-gcc/4.8.3-2014q1/bin/../lib/gcc/arm-none-eabi/4.8.3/../../../../arm-none-eabi/lib/armv7-m\libc.a(lib_a-memcmp.o)
 .data          0x00000000        0x0 c:/users/fx/appdata/local/arduino15/packages/arduino/tools/arm-none-eabi-gcc/4.8.3-2014q1/bin/../lib/gcc/arm-none-eabi/4.8.3/../../../../arm-none-eabi/lib/armv7-m\libc.a(lib_a-memcpy.o)
 .bss           0x00000000        0x0 c:/users/fx/appdata/local/arduino15/packages/arduino/tools/arm-none-eabi-gcc/4.8.3-2014q1/bin/../lib/gcc/arm-none-eabi/4.8.3/../../../../arm-none-eabi/lib/armv7-m\libc.a(lib_a-memcpy.o)
 .text          0x00000000        0x0 c:/users/fx/appdata/local/arduino15/packages/arduino/tools/arm-none-eabi-gcc/4.8.3-2014q1/bin/../lib/gcc/arm-none-eabi/4.8.3/../../../../arm-none-eabi/lib/armv7-m\libc.a(lib_a-memset.o)
 .data          0x00000000        0x0 c:/users/fx/appdata/local/arduino15/packages/arduino/tools/arm-none-eabi-gcc/4.8.3-2014q1/bin/../lib/gcc/arm-none-eabi/4.8.3/../../../../arm-none-eabi/lib/armv7-m\libc.a(lib_a-memset.o)
 .bss           0x00000000        0x0 c:/users/fx/appdata/local/arduino15/packages/arduino/tools/arm-none-eabi-gcc/4.8.3-2014q1/bin/../lib/gcc/arm-none-eabi/4.8.3/../../../../arm-none-eabi/lib/armv7-m\libc.a(lib_a-memset.o)
 .text          0x00000000        0x0 c:/users/fx/appdata/local/arduino15/packages/arduino/tools/arm-none-eabi-gcc/4.8.3-2014q1/bin/../lib/gcc/arm-none-eabi/4.8.3/../../../../arm-none-eabi/lib/armv7-m\libc.a(lib_a-mlock.o)
 .data          0x00000000        0x0 c:/users/fx/appdata/local/arduino15/packages/arduino/tools/arm-none-eabi-gcc/4.8.3-2014q1/bin/../lib/gcc/arm-none-eabi/4.8.3/../../../../arm-none-eabi/lib/armv7-m\libc.a(lib_a-mlock.o)
 .bss           0x00000000        0x0 c:/users/fx/appdata/local/arduino15/packages/arduino/tools/arm-none-eabi-gcc/4.8.3-2014q1/bin/../lib/gcc/arm-none-eabi/4.8.3/../../../../arm-none-eabi/lib/armv7-m\libc.a(lib_a-mlock.o)
 .text          0x00000000        0x0 c:/users/fx/appdata/local/arduino15/packages/arduino/tools/arm-none-eabi-gcc/4.8.3-2014q1/bin/../lib/gcc/arm-none-eabi/4.8.3/../../../../arm-none-eabi/lib/armv7-m\libc.a(lib_a-sbrkr.o)
 .data          0x00000000        0x0 c:/users/fx/appdata/local/arduino15/packages/arduino/tools/arm-none-eabi-gcc/4.8.3-2014q1/bin/../lib/gcc/arm-none-eabi/4.8.3/../../../../arm-none-eabi/lib/armv7-m\libc.a(lib_a-sbrkr.o)
 .bss           0x00000000        0x0 c:/users/fx/appdata/local/arduino15/packages/arduino/tools/arm-none-eabi-gcc/4.8.3-2014q1/bin/../lib/gcc/arm-none-eabi/4.8.3/../../../../arm-none-eabi/lib/armv7-m\libc.a(lib_a-sbrkr.o)
 .text          0x00000000        0x0 c:/users/fx/appdata/local/arduino15/packages/arduino/tools/arm-none-eabi-gcc/4.8.3-2014q1/bin/../lib/gcc/arm-none-eabi/4.8.3/../../../../arm-none-eabi/lib/armv7-m\libc.a(lib_a-sprintf.o)
 .data          0x00000000        0x0 c:/users/fx/appdata/local/arduino15/packages/arduino/tools/arm-none-eabi-gcc/4.8.3-2014q1/bin/../lib/gcc/arm-none-eabi/4.8.3/../../../../arm-none-eabi/lib/armv7-m\libc.a(lib_a-sprintf.o)
 .bss           0x00000000        0x0 c:/users/fx/appdata/local/arduino15/packages/arduino/tools/arm-none-eabi-gcc/4.8.3-2014q1/bin/../lib/gcc/arm-none-eabi/4.8.3/../../../../arm-none-eabi/lib/armv7-m\libc.a(lib_a-sprintf.o)
 .text._sprintf_r
                0x00000000       0x44 c:/users/fx/appdata/local/arduino15/packages/arduino/tools/arm-none-eabi-gcc/4.8.3-2014q1/bin/../lib/gcc/arm-none-eabi/4.8.3/../../../../arm-none-eabi/lib/armv7-m\libc.a(lib_a-sprintf.o)
 .text          0x00000000        0x0 c:/users/fx/appdata/local/arduino15/packages/arduino/tools/arm-none-eabi-gcc/4.8.3-2014q1/bin/../lib/gcc/arm-none-eabi/4.8.3/../../../../arm-none-eabi/lib/armv7-m\libc.a(lib_a-strcpy.o)
 .data          0x00000000        0x0 c:/users/fx/appdata/local/arduino15/packages/arduino/tools/arm-none-eabi-gcc/4.8.3-2014q1/bin/../lib/gcc/arm-none-eabi/4.8.3/../../../../arm-none-eabi/lib/armv7-m\libc.a(lib_a-strcpy.o)
 .bss           0x00000000        0x0 c:/users/fx/appdata/local/arduino15/packages/arduino/tools/arm-none-eabi-gcc/4.8.3-2014q1/bin/../lib/gcc/arm-none-eabi/4.8.3/../../../../arm-none-eabi/lib/armv7-m\libc.a(lib_a-strcpy.o)
 .text.strcpy   0x00000000       0xbc c:/users/fx/appdata/local/arduino15/packages/arduino/tools/arm-none-eabi-gcc/4.8.3-2014q1/bin/../lib/gcc/arm-none-eabi/4.8.3/../../../../arm-none-eabi/lib/armv7-m\libc.a(lib_a-strcpy.o)
 .text          0x00000000        0x0 c:/users/fx/appdata/local/arduino15/packages/arduino/tools/arm-none-eabi-gcc/4.8.3-2014q1/bin/../lib/gcc/arm-none-eabi/4.8.3/../../../../arm-none-eabi/lib/armv7-m\libc.a(lib_a-strlen.o)
 .data          0x00000000        0x0 c:/users/fx/appdata/local/arduino15/packages/arduino/tools/arm-none-eabi-gcc/4.8.3-2014q1/bin/../lib/gcc/arm-none-eabi/4.8.3/../../../../arm-none-eabi/lib/armv7-m\libc.a(lib_a-strlen.o)
 .bss           0x00000000        0x0 c:/users/fx/appdata/local/arduino15/packages/arduino/tools/arm-none-eabi-gcc/4.8.3-2014q1/bin/../lib/gcc/arm-none-eabi/4.8.3/../../../../arm-none-eabi/lib/armv7-m\libc.a(lib_a-strlen.o)
 .text          0x00000000        0x0 c:/users/fx/appdata/local/arduino15/packages/arduino/tools/arm-none-eabi-gcc/4.8.3-2014q1/bin/../lib/gcc/arm-none-eabi/4.8.3/../../../../arm-none-eabi/lib/armv7-m\libc.a(lib_a-strncpy.o)
 .data          0x00000000        0x0 c:/users/fx/appdata/local/arduino15/packages/arduino/tools/arm-none-eabi-gcc/4.8.3-2014q1/bin/../lib/gcc/arm-none-eabi/4.8.3/../../../../arm-none-eabi/lib/armv7-m\libc.a(lib_a-strncpy.o)
 .bss           0x00000000        0x0 c:/users/fx/appdata/local/arduino15/packages/arduino/tools/arm-none-eabi-gcc/4.8.3-2014q1/bin/../lib/gcc/arm-none-eabi/4.8.3/../../../../arm-none-eabi/lib/armv7-m\libc.a(lib_a-strncpy.o)
 .text.strncpy  0x00000000       0x64 c:/users/fx/appdata/local/arduino15/packages/arduino/tools/arm-none-eabi-gcc/4.8.3-2014q1/bin/../lib/gcc/arm-none-eabi/4.8.3/../../../../arm-none-eabi/lib/armv7-m\libc.a(lib_a-strncpy.o)
 .text          0x00000000        0x0 c:/users/fx/appdata/local/arduino15/packages/arduino/tools/arm-none-eabi-gcc/4.8.3-2014q1/bin/../lib/gcc/arm-none-eabi/4.8.3/../../../../arm-none-eabi/lib/armv7-m\libc.a(lib_a-svfprintf.o)
 .data          0x00000000        0x0 c:/users/fx/appdata/local/arduino15/packages/arduino/tools/arm-none-eabi-gcc/4.8.3-2014q1/bin/../lib/gcc/arm-none-eabi/4.8.3/../../../../arm-none-eabi/lib/armv7-m\libc.a(lib_a-svfprintf.o)
 .bss           0x00000000        0x0 c:/users/fx/appdata/local/arduino15/packages/arduino/tools/arm-none-eabi-gcc/4.8.3-2014q1/bin/../lib/gcc/arm-none-eabi/4.8.3/../../../../arm-none-eabi/lib/armv7-m\libc.a(lib_a-svfprintf.o)
 .text          0x00000000        0x0 c:/users/fx/appdata/local/arduino15/packages/arduino/tools/arm-none-eabi-gcc/4.8.3-2014q1/bin/../lib/gcc/arm-none-eabi/4.8.3/../../../../arm-none-eabi/lib/armv7-m\libc.a(lib_a-__call_atexit.o)
 .data          0x00000000        0x0 c:/users/fx/appdata/local/arduino15/packages/arduino/tools/arm-none-eabi-gcc/4.8.3-2014q1/bin/../lib/gcc/arm-none-eabi/4.8.3/../../../../arm-none-eabi/lib/armv7-m\libc.a(lib_a-__call_atexit.o)
 .bss           0x00000000        0x0 c:/users/fx/appdata/local/arduino15/packages/arduino/tools/arm-none-eabi-gcc/4.8.3-2014q1/bin/../lib/gcc/arm-none-eabi/4.8.3/../../../../arm-none-eabi/lib/armv7-m\libc.a(lib_a-__call_atexit.o)
 .text.__call_exitprocs
                0x00000000       0xf0 c:/users/fx/appdata/local/arduino15/packages/arduino/tools/arm-none-eabi-gcc/4.8.3-2014q1/bin/../lib/gcc/arm-none-eabi/4.8.3/../../../../arm-none-eabi/lib/armv7-m\libc.a(lib_a-__call_atexit.o)
 .text          0x00000000        0x0 c:/users/fx/appdata/local/arduino15/packages/arduino/tools/arm-none-eabi-gcc/4.8.3-2014q1/bin/../lib/gcc/arm-none-eabi/4.8.3/../../../../arm-none-eabi/lib/armv7-m\libc.a(lib_a-atexit.o)
 .data          0x00000000        0x0 c:/users/fx/appdata/local/arduino15/packages/arduino/tools/arm-none-eabi-gcc/4.8.3-2014q1/bin/../lib/gcc/arm-none-eabi/4.8.3/../../../../arm-none-eabi/lib/armv7-m\libc.a(lib_a-atexit.o)
 .bss           0x00000000        0x0 c:/users/fx/appdata/local/arduino15/packages/arduino/tools/arm-none-eabi-gcc/4.8.3-2014q1/bin/../lib/gcc/arm-none-eabi/4.8.3/../../../../arm-none-eabi/lib/armv7-m\libc.a(lib_a-atexit.o)
 .text          0x00000000        0x0 c:/users/fx/appdata/local/arduino15/packages/arduino/tools/arm-none-eabi-gcc/4.8.3-2014q1/bin/../lib/gcc/arm-none-eabi/4.8.3/../../../../arm-none-eabi/lib/armv7-m\libc.a(lib_a-dtoa.o)
 .data          0x00000000        0x0 c:/users/fx/appdata/local/arduino15/packages/arduino/tools/arm-none-eabi-gcc/4.8.3-2014q1/bin/../lib/gcc/arm-none-eabi/4.8.3/../../../../arm-none-eabi/lib/armv7-m\libc.a(lib_a-dtoa.o)
 .bss           0x00000000        0x0 c:/users/fx/appdata/local/arduino15/packages/arduino/tools/arm-none-eabi-gcc/4.8.3-2014q1/bin/../lib/gcc/arm-none-eabi/4.8.3/../../../../arm-none-eabi/lib/armv7-m\libc.a(lib_a-dtoa.o)
 .text          0x00000000        0x0 c:/users/fx/appdata/local/arduino15/packages/arduino/tools/arm-none-eabi-gcc/4.8.3-2014q1/bin/../lib/gcc/arm-none-eabi/4.8.3/../../../../arm-none-eabi/lib/armv7-m\libc.a(lib_a-fini.o)
 .data          0x00000000        0x0 c:/users/fx/appdata/local/arduino15/packages/arduino/tools/arm-none-eabi-gcc/4.8.3-2014q1/bin/../lib/gcc/arm-none-eabi/4.8.3/../../../../arm-none-eabi/lib/armv7-m\libc.a(lib_a-fini.o)
 .bss           0x00000000        0x0 c:/users/fx/appdata/local/arduino15/packages/arduino/tools/arm-none-eabi-gcc/4.8.3-2014q1/bin/../lib/gcc/arm-none-eabi/4.8.3/../../../../arm-none-eabi/lib/armv7-m\libc.a(lib_a-fini.o)
 .text          0x00000000        0x0 c:/users/fx/appdata/local/arduino15/packages/arduino/tools/arm-none-eabi-gcc/4.8.3-2014q1/bin/../lib/gcc/arm-none-eabi/4.8.3/../../../../arm-none-eabi/lib/armv7-m\libc.a(lib_a-freer.o)
 .data          0x00000000        0x0 c:/users/fx/appdata/local/arduino15/packages/arduino/tools/arm-none-eabi-gcc/4.8.3-2014q1/bin/../lib/gcc/arm-none-eabi/4.8.3/../../../../arm-none-eabi/lib/armv7-m\libc.a(lib_a-freer.o)
 .bss           0x00000000        0x0 c:/users/fx/appdata/local/arduino15/packages/arduino/tools/arm-none-eabi-gcc/4.8.3-2014q1/bin/../lib/gcc/arm-none-eabi/4.8.3/../../../../arm-none-eabi/lib/armv7-m\libc.a(lib_a-freer.o)
 .text          0x00000000        0x0 c:/users/fx/appdata/local/arduino15/packages/arduino/tools/arm-none-eabi-gcc/4.8.3-2014q1/bin/../lib/gcc/arm-none-eabi/4.8.3/../../../../arm-none-eabi/lib/armv7-m\libc.a(lib_a-locale.o)
 .data          0x00000000        0x0 c:/users/fx/appdata/local/arduino15/packages/arduino/tools/arm-none-eabi-gcc/4.8.3-2014q1/bin/../lib/gcc/arm-none-eabi/4.8.3/../../../../arm-none-eabi/lib/armv7-m\libc.a(lib_a-locale.o)
 .bss           0x00000000        0x0 c:/users/fx/appdata/local/arduino15/packages/arduino/tools/arm-none-eabi-gcc/4.8.3-2014q1/bin/../lib/gcc/arm-none-eabi/4.8.3/../../../../arm-none-eabi/lib/armv7-m\libc.a(lib_a-locale.o)
 .text._setlocale_r
                0x00000000       0x40 c:/users/fx/appdata/local/arduino15/packages/arduino/tools/arm-none-eabi-gcc/4.8.3-2014q1/bin/../lib/gcc/arm-none-eabi/4.8.3/../../../../arm-none-eabi/lib/armv7-m\libc.a(lib_a-locale.o)
 .text.__locale_charset
                0x00000000        0x8 c:/users/fx/appdata/local/arduino15/packages/arduino/tools/arm-none-eabi-gcc/4.8.3-2014q1/bin/../lib/gcc/arm-none-eabi/4.8.3/../../../../arm-none-eabi/lib/armv7-m\libc.a(lib_a-locale.o)
 .text.__locale_mb_cur_max
                0x00000000        0xc c:/users/fx/appdata/local/arduino15/packages/arduino/tools/arm-none-eabi-gcc/4.8.3-2014q1/bin/../lib/gcc/arm-none-eabi/4.8.3/../../../../arm-none-eabi/lib/armv7-m\libc.a(lib_a-locale.o)
 .text.__locale_msgcharset
                0x00000000        0x8 c:/users/fx/appdata/local/arduino15/packages/arduino/tools/arm-none-eabi-gcc/4.8.3-2014q1/bin/../lib/gcc/arm-none-eabi/4.8.3/../../../../arm-none-eabi/lib/armv7-m\libc.a(lib_a-locale.o)
 .text.__locale_cjk_lang
                0x00000000        0x4 c:/users/fx/appdata/local/arduino15/packages/arduino/tools/arm-none-eabi-gcc/4.8.3-2014q1/bin/../lib/gcc/arm-none-eabi/4.8.3/../../../../arm-none-eabi/lib/armv7-m\libc.a(lib_a-locale.o)
 .text.setlocale
                0x00000000       0x10 c:/users/fx/appdata/local/arduino15/packages/arduino/tools/arm-none-eabi-gcc/4.8.3-2014q1/bin/../lib/gcc/arm-none-eabi/4.8.3/../../../../arm-none-eabi/lib/armv7-m\libc.a(lib_a-locale.o)
 .text.localeconv
                0x00000000        0x8 c:/users/fx/appdata/local/arduino15/packages/arduino/tools/arm-none-eabi-gcc/4.8.3-2014q1/bin/../lib/gcc/arm-none-eabi/4.8.3/../../../../arm-none-eabi/lib/armv7-m\libc.a(lib_a-locale.o)
 .data.lc_message_charset
                0x00000000       0x20 c:/users/fx/appdata/local/arduino15/packages/arduino/tools/arm-none-eabi-gcc/4.8.3-2014q1/bin/../lib/gcc/arm-none-eabi/4.8.3/../../../../arm-none-eabi/lib/armv7-m\libc.a(lib_a-locale.o)
 .bss._PathLocale
                0x00000000        0x4 c:/users/fx/appdata/local/arduino15/packages/arduino/tools/arm-none-eabi-gcc/4.8.3-2014q1/bin/../lib/gcc/arm-none-eabi/4.8.3/../../../../arm-none-eabi/lib/armv7-m\libc.a(lib_a-locale.o)
 .bss.__nlocale_changed
                0x00000000        0x4 c:/users/fx/appdata/local/arduino15/packages/arduino/tools/arm-none-eabi-gcc/4.8.3-2014q1/bin/../lib/gcc/arm-none-eabi/4.8.3/../../../../arm-none-eabi/lib/armv7-m\libc.a(lib_a-locale.o)
 .bss.__mlocale_changed
                0x00000000        0x4 c:/users/fx/appdata/local/arduino15/packages/arduino/tools/arm-none-eabi-gcc/4.8.3-2014q1/bin/../lib/gcc/arm-none-eabi/4.8.3/../../../../arm-none-eabi/lib/armv7-m\libc.a(lib_a-locale.o)
 .data.lc_ctype_charset
                0x00000000       0x20 c:/users/fx/appdata/local/arduino15/packages/arduino/tools/arm-none-eabi-gcc/4.8.3-2014q1/bin/../lib/gcc/arm-none-eabi/4.8.3/../../../../arm-none-eabi/lib/armv7-m\libc.a(lib_a-locale.o)
 .data.__mb_cur_max
                0x00000000        0x4 c:/users/fx/appdata/local/arduino15/packages/arduino/tools/arm-none-eabi-gcc/4.8.3-2014q1/bin/../lib/gcc/arm-none-eabi/4.8.3/../../../../arm-none-eabi/lib/armv7-m\libc.a(lib_a-locale.o)
 .text          0x00000000        0x0 c:/users/fx/appdata/local/arduino15/packages/arduino/tools/arm-none-eabi-gcc/4.8.3-2014q1/bin/../lib/gcc/arm-none-eabi/4.8.3/../../../../arm-none-eabi/lib/armv7-m\libc.a(lib_a-mprec.o)
 .data          0x00000000        0x0 c:/users/fx/appdata/local/arduino15/packages/arduino/tools/arm-none-eabi-gcc/4.8.3-2014q1/bin/../lib/gcc/arm-none-eabi/4.8.3/../../../../arm-none-eabi/lib/armv7-m\libc.a(lib_a-mprec.o)
 .bss           0x00000000        0x0 c:/users/fx/appdata/local/arduino15/packages/arduino/tools/arm-none-eabi-gcc/4.8.3-2014q1/bin/../lib/gcc/arm-none-eabi/4.8.3/../../../../arm-none-eabi/lib/armv7-m\libc.a(lib_a-mprec.o)
 .text.__s2b    0x00000000       0x98 c:/users/fx/appdata/local/arduino15/packages/arduino/tools/arm-none-eabi-gcc/4.8.3-2014q1/bin/../lib/gcc/arm-none-eabi/4.8.3/../../../../arm-none-eabi/lib/armv7-m\libc.a(lib_a-mprec.o)
 .text.__ulp    0x00000000       0x40 c:/users/fx/appdata/local/arduino15/packages/arduino/tools/arm-none-eabi-gcc/4.8.3-2014q1/bin/../lib/gcc/arm-none-eabi/4.8.3/../../../../arm-none-eabi/lib/armv7-m\libc.a(lib_a-mprec.o)
 .text.__b2d    0x00000000       0xb8 c:/users/fx/appdata/local/arduino15/packages/arduino/tools/arm-none-eabi-gcc/4.8.3-2014q1/bin/../lib/gcc/arm-none-eabi/4.8.3/../../../../arm-none-eabi/lib/armv7-m\libc.a(lib_a-mprec.o)
 .text.__ratio  0x00000000       0x50 c:/users/fx/appdata/local/arduino15/packages/arduino/tools/arm-none-eabi-gcc/4.8.3-2014q1/bin/../lib/gcc/arm-none-eabi/4.8.3/../../../../arm-none-eabi/lib/armv7-m\libc.a(lib_a-mprec.o)
 .text._mprec_log10
                0x00000000       0x34 c:/users/fx/appdata/local/arduino15/packages/arduino/tools/arm-none-eabi-gcc/4.8.3-2014q1/bin/../lib/gcc/arm-none-eabi/4.8.3/../../../../arm-none-eabi/lib/armv7-m\libc.a(lib_a-mprec.o)
 .text.__copybits
                0x00000000       0x48 c:/users/fx/appdata/local/arduino15/packages/arduino/tools/arm-none-eabi-gcc/4.8.3-2014q1/bin/../lib/gcc/arm-none-eabi/4.8.3/../../../../arm-none-eabi/lib/armv7-m\libc.a(lib_a-mprec.o)
 .text.__any_on
                0x00000000       0x60 c:/users/fx/appdata/local/arduino15/packages/arduino/tools/arm-none-eabi-gcc/4.8.3-2014q1/bin/../lib/gcc/arm-none-eabi/4.8.3/../../../../arm-none-eabi/lib/armv7-m\libc.a(lib_a-mprec.o)
 .rodata.__mprec_tinytens
                0x00000000       0x28 c:/users/fx/appdata/local/arduino15/packages/arduino/tools/arm-none-eabi-gcc/4.8.3-2014q1/bin/../lib/gcc/arm-none-eabi/4.8.3/../../../../arm-none-eabi/lib/armv7-m\libc.a(lib_a-mprec.o)
 .text          0x00000000        0x0 c:/users/fx/appdata/local/arduino15/packages/arduino/tools/arm-none-eabi-gcc/4.8.3-2014q1/bin/../lib/gcc/arm-none-eabi/4.8.3/../../../../arm-none-eabi/lib/armv7-m\libc.a(lib_a-reent.o)
 .data          0x00000000        0x0 c:/users/fx/appdata/local/arduino15/packages/arduino/tools/arm-none-eabi-gcc/4.8.3-2014q1/bin/../lib/gcc/arm-none-eabi/4.8.3/../../../../arm-none-eabi/lib/armv7-m\libc.a(lib_a-reent.o)
 .bss           0x00000000        0x0 c:/users/fx/appdata/local/arduino15/packages/arduino/tools/arm-none-eabi-gcc/4.8.3-2014q1/bin/../lib/gcc/arm-none-eabi/4.8.3/../../../../arm-none-eabi/lib/armv7-m\libc.a(lib_a-reent.o)
 .text.cleanup_glue
                0x00000000       0x1c c:/users/fx/appdata/local/arduino15/packages/arduino/tools/arm-none-eabi-gcc/4.8.3-2014q1/bin/../lib/gcc/arm-none-eabi/4.8.3/../../../../arm-none-eabi/lib/armv7-m\libc.a(lib_a-reent.o)
 .text._reclaim_reent
                0x00000000       0x90 c:/users/fx/appdata/local/arduino15/packages/arduino/tools/arm-none-eabi-gcc/4.8.3-2014q1/bin/../lib/gcc/arm-none-eabi/4.8.3/../../../../arm-none-eabi/lib/armv7-m\libc.a(lib_a-reent.o)
 .text          0x00000000      0x23c c:/users/fx/appdata/local/arduino15/packages/arduino/tools/arm-none-eabi-gcc/4.8.3-2014q1/bin/../lib/gcc/arm-none-eabi/4.8.3/../../../../arm-none-eabi/lib/armv7-m\libc.a(lib_a-strcmp.o)
 .data          0x00000000        0x0 c:/users/fx/appdata/local/arduino15/packages/arduino/tools/arm-none-eabi-gcc/4.8.3-2014q1/bin/../lib/gcc/arm-none-eabi/4.8.3/../../../../arm-none-eabi/lib/armv7-m\libc.a(lib_a-strcmp.o)
 .bss           0x00000000        0x0 c:/users/fx/appdata/local/arduino15/packages/arduino/tools/arm-none-eabi-gcc/4.8.3-2014q1/bin/../lib/gcc/arm-none-eabi/4.8.3/../../../../arm-none-eabi/lib/armv7-m\libc.a(lib_a-strcmp.o)
 .text          0x00000000        0x0 c:/users/fx/appdata/local/arduino15/packages/arduino/tools/arm-none-eabi-gcc/4.8.3-2014q1/bin/../lib/gcc/arm-none-eabi/4.8.3/../../../../arm-none-eabi/lib/armv7-m\libc.a(lib_a-svfiprintf.o)
 .data          0x00000000        0x0 c:/users/fx/appdata/local/arduino15/packages/arduino/tools/arm-none-eabi-gcc/4.8.3-2014q1/bin/../lib/gcc/arm-none-eabi/4.8.3/../../../../arm-none-eabi/lib/armv7-m\libc.a(lib_a-svfiprintf.o)
 .bss           0x00000000        0x0 c:/users/fx/appdata/local/arduino15/packages/arduino/tools/arm-none-eabi-gcc/4.8.3-2014q1/bin/../lib/gcc/arm-none-eabi/4.8.3/../../../../arm-none-eabi/lib/armv7-m\libc.a(lib_a-svfiprintf.o)
 .text._svfiprintf_r
                0x00000000      0xb3c c:/users/fx/appdata/local/arduino15/packages/arduino/tools/arm-none-eabi-gcc/4.8.3-2014q1/bin/../lib/gcc/arm-none-eabi/4.8.3/../../../../arm-none-eabi/lib/armv7-m\libc.a(lib_a-svfiprintf.o)
 .rodata.zeroes.6704
                0x00000000       0x10 c:/users/fx/appdata/local/arduino15/packages/arduino/tools/arm-none-eabi-gcc/4.8.3-2014q1/bin/../lib/gcc/arm-none-eabi/4.8.3/../../../../arm-none-eabi/lib/armv7-m\libc.a(lib_a-svfiprintf.o)
 .rodata.str1.4
                0x00000000       0x30 c:/users/fx/appdata/local/arduino15/packages/arduino/tools/arm-none-eabi-gcc/4.8.3-2014q1/bin/../lib/gcc/arm-none-eabi/4.8.3/../../../../arm-none-eabi/lib/armv7-m\libc.a(lib_a-svfiprintf.o)
 .rodata.blanks.6703
                0x00000000       0x10 c:/users/fx/appdata/local/arduino15/packages/arduino/tools/arm-none-eabi-gcc/4.8.3-2014q1/bin/../lib/gcc/arm-none-eabi/4.8.3/../../../../arm-none-eabi/lib/armv7-m\libc.a(lib_a-svfiprintf.o)
 .text          0x00000000        0x0 c:/users/fx/appdata/local/arduino15/packages/arduino/tools/arm-none-eabi-gcc/4.8.3-2014q1/bin/../lib/gcc/arm-none-eabi/4.8.3/../../../../arm-none-eabi/lib/armv7-m\libc.a(lib_a-__atexit.o)
 .data          0x00000000        0x0 c:/users/fx/appdata/local/arduino15/packages/arduino/tools/arm-none-eabi-gcc/4.8.3-2014q1/bin/../lib/gcc/arm-none-eabi/4.8.3/../../../../arm-none-eabi/lib/armv7-m\libc.a(lib_a-__atexit.o)
 .bss           0x00000000        0x0 c:/users/fx/appdata/local/arduino15/packages/arduino/tools/arm-none-eabi-gcc/4.8.3-2014q1/bin/../lib/gcc/arm-none-eabi/4.8.3/../../../../arm-none-eabi/lib/armv7-m\libc.a(lib_a-__atexit.o)
 .text          0x00000000        0x0 c:/users/fx/appdata/local/arduino15/packages/arduino/tools/arm-none-eabi-gcc/4.8.3-2014q1/bin/../lib/gcc/arm-none-eabi/4.8.3/../../../../arm-none-eabi/lib/armv7-m\libc.a(lib_a-callocr.o)
 .data          0x00000000        0x0 c:/users/fx/appdata/local/arduino15/packages/arduino/tools/arm-none-eabi-gcc/4.8.3-2014q1/bin/../lib/gcc/arm-none-eabi/4.8.3/../../../../arm-none-eabi/lib/armv7-m\libc.a(lib_a-callocr.o)
 .bss           0x00000000        0x0 c:/users/fx/appdata/local/arduino15/packages/arduino/tools/arm-none-eabi-gcc/4.8.3-2014q1/bin/../lib/gcc/arm-none-eabi/4.8.3/../../../../arm-none-eabi/lib/armv7-m\libc.a(lib_a-callocr.o)
 .text          0x00000000        0x0 c:/users/fx/appdata/local/arduino15/packages/arduino/tools/arm-none-eabi-gcc/4.8.3-2014q1/bin/../lib/gcc/arm-none-eabi/4.8.3/../../../../arm-none-eabi/lib/armv7-m\libc.a(lib_a-memmove.o)
 .data          0x00000000        0x0 c:/users/fx/appdata/local/arduino15/packages/arduino/tools/arm-none-eabi-gcc/4.8.3-2014q1/bin/../lib/gcc/arm-none-eabi/4.8.3/../../../../arm-none-eabi/lib/armv7-m\libc.a(lib_a-memmove.o)
 .bss           0x00000000        0x0 c:/users/fx/appdata/local/arduino15/packages/arduino/tools/arm-none-eabi-gcc/4.8.3-2014q1/bin/../lib/gcc/arm-none-eabi/4.8.3/../../../../arm-none-eabi/lib/armv7-m\libc.a(lib_a-memmove.o)
 .text          0x00000000        0x0 c:/users/fx/appdata/local/arduino15/packages/arduino/tools/arm-none-eabi-gcc/4.8.3-2014q1/bin/../lib/gcc/arm-none-eabi/4.8.3/../../../../arm-none-eabi/lib/armv7-m\libc.a(lib_a-reallocr.o)
 .data          0x00000000        0x0 c:/users/fx/appdata/local/arduino15/packages/arduino/tools/arm-none-eabi-gcc/4.8.3-2014q1/bin/../lib/gcc/arm-none-eabi/4.8.3/../../../../arm-none-eabi/lib/armv7-m\libc.a(lib_a-reallocr.o)
 .bss           0x00000000        0x0 c:/users/fx/appdata/local/arduino15/packages/arduino/tools/arm-none-eabi-gcc/4.8.3-2014q1/bin/../lib/gcc/arm-none-eabi/4.8.3/../../../../arm-none-eabi/lib/armv7-m\libc.a(lib_a-reallocr.o)
 .text          0x00000000        0x0 c:/users/fx/appdata/local/arduino15/packages/arduino/tools/arm-none-eabi-gcc/4.8.3-2014q1/bin/../lib/gcc/arm-none-eabi/4.8.3/armv7-m/crtend.o
 .data          0x00000000        0x0 c:/users/fx/appdata/local/arduino15/packages/arduino/tools/arm-none-eabi-gcc/4.8.3-2014q1/bin/../lib/gcc/arm-none-eabi/4.8.3/armv7-m/crtend.o
 .bss           0x00000000        0x0 c:/users/fx/appdata/local/arduino15/packages/arduino/tools/arm-none-eabi-gcc/4.8.3-2014q1/bin/../lib/gcc/arm-none-eabi/4.8.3/armv7-m/crtend.o
 .eh_frame      0x00000000        0x4 c:/users/fx/appdata/local/arduino15/packages/arduino/tools/arm-none-eabi-gcc/4.8.3-2014q1/bin/../lib/gcc/arm-none-eabi/4.8.3/armv7-m/crtend.o
 .jcr           0x00000000        0x4 c:/users/fx/appdata/local/arduino15/packages/arduino/tools/arm-none-eabi-gcc/4.8.3-2014q1/bin/../lib/gcc/arm-none-eabi/4.8.3/armv7-m/crtend.o
 .text          0x00000000        0x0 c:/users/fx/appdata/local/arduino15/packages/arduino/tools/arm-none-eabi-gcc/4.8.3-2014q1/bin/../lib/gcc/arm-none-eabi/4.8.3/armv7-m/crtn.o
 .data          0x00000000        0x0 c:/users/fx/appdata/local/arduino15/packages/arduino/tools/arm-none-eabi-gcc/4.8.3-2014q1/bin/../lib/gcc/arm-none-eabi/4.8.3/armv7-m/crtn.o
 .bss           0x00000000        0x0 c:/users/fx/appdata/local/arduino15/packages/arduino/tools/arm-none-eabi-gcc/4.8.3-2014q1/bin/../lib/gcc/arm-none-eabi/4.8.3/armv7-m/crtn.o

Memory Configuration

Name             Origin             Length             Attributes
ram              0x20000000         0x00005000         xrw
rom              0x08000000         0x00010000         xr
*default*        0x00000000         0xffffffff

Linker script and memory map

LOAD c:/users/fx/appdata/local/arduino15/packages/arduino/tools/arm-none-eabi-gcc/4.8.3-2014q1/bin/../lib/gcc/arm-none-eabi/4.8.3/armv7-m/crti.o
LOAD c:/users/fx/appdata/local/arduino15/packages/arduino/tools/arm-none-eabi-gcc/4.8.3-2014q1/bin/../lib/gcc/arm-none-eabi/4.8.3/armv7-m/crtbegin.o
LOAD c:/users/fx/appdata/local/arduino15/packages/arduino/tools/arm-none-eabi-gcc/4.8.3-2014q1/bin/../lib/gcc/arm-none-eabi/4.8.3/../../../../arm-none-eabi/lib/armv7-m/crt0.o
LOAD c:/users/fx/appdata/local/arduino15/packages/arduino/tools/arm-none-eabi-gcc/4.8.3-2014q1/bin/../lib/gcc/arm-none-eabi/4.8.3/armv7-m\libgcc.a
START GROUP
LOAD c:\Users\fx\Upwork\weather-node\output\sketch\weatherSIM808.ino.cpp.o
LOAD c:\Users\fx\Upwork\weather-node\output\libraries\FreeRTOS821\MapleFreeRTOS821.cpp.o
LOAD c:\Users\fx\Upwork\weather-node\output\libraries\FreeRTOS821\utility\croutine.c.o
LOAD c:\Users\fx\Upwork\weather-node\output\libraries\FreeRTOS821\utility\event_groups.c.o
LOAD c:\Users\fx\Upwork\weather-node\output\libraries\FreeRTOS821\utility\heap_1.c.o
LOAD c:\Users\fx\Upwork\weather-node\output\libraries\FreeRTOS821\utility\list.c.o
LOAD c:\Users\fx\Upwork\weather-node\output\libraries\FreeRTOS821\utility\port.c.o
LOAD c:\Users\fx\Upwork\weather-node\output\libraries\FreeRTOS821\utility\queue.c.o
LOAD c:\Users\fx\Upwork\weather-node\output\libraries\FreeRTOS821\utility\tasks.c.o
LOAD c:\Users\fx\Upwork\weather-node\output\libraries\FreeRTOS821\utility\timers.c.o
LOAD c:\Users\fx\Upwork\weather-node\output\libraries\DHT_sensor_library\DHT.cpp.o
LOAD c:\Users\fx\Upwork\weather-node\output\libraries\DHT_sensor_library\DHT_U.cpp.o
LOAD c:\Users\fx\Upwork\weather-node\output\libraries\Adafruit_Unified_Sensor\Adafruit_Sensor.cpp.o
LOAD c:\Users\fx\Upwork\weather-node\output\core\board.cpp.o
LOAD c:\Users\fx\Upwork\weather-node\output\core\wirish\boards.cpp.o
LOAD c:\Users\fx\Upwork\weather-node\output\core\wirish\boards_setup.cpp.o
LOAD c:\Users\fx\Upwork\weather-node\output\core\wirish\start.S.o
LOAD c:\Users\fx\Upwork\weather-node\output\core\wirish\start_c.c.o
LOAD c:\Users\fx\Upwork\weather-node\output\core\wirish\syscalls.c.o
LOAD c:\Users\fx\Upwork\weather-node\output\core\core.a
END GROUP
LOAD c:/users/fx/appdata/local/arduino15/packages/arduino/tools/arm-none-eabi-gcc/4.8.3-2014q1/bin/../lib/gcc/arm-none-eabi/4.8.3/../../../../arm-none-eabi/lib/armv7-m\libstdc++.a
LOAD c:/users/fx/appdata/local/arduino15/packages/arduino/tools/arm-none-eabi-gcc/4.8.3-2014q1/bin/../lib/gcc/arm-none-eabi/4.8.3/../../../../arm-none-eabi/lib/armv7-m\libm.a
START GROUP
LOAD c:/users/fx/appdata/local/arduino15/packages/arduino/tools/arm-none-eabi-gcc/4.8.3-2014q1/bin/../lib/gcc/arm-none-eabi/4.8.3/armv7-m\libgcc.a
LOAD c:/users/fx/appdata/local/arduino15/packages/arduino/tools/arm-none-eabi-gcc/4.8.3-2014q1/bin/../lib/gcc/arm-none-eabi/4.8.3/../../../../arm-none-eabi/lib/armv7-m\libc.a
END GROUP
LOAD c:/users/fx/appdata/local/arduino15/packages/arduino/tools/arm-none-eabi-gcc/4.8.3-2014q1/bin/../lib/gcc/arm-none-eabi/4.8.3/armv7-m/crtend.o
LOAD c:/users/fx/appdata/local/arduino15/packages/arduino/tools/arm-none-eabi-gcc/4.8.3-2014q1/bin/../lib/gcc/arm-none-eabi/4.8.3/armv7-m/crtn.o
START GROUP
LOAD c:/users/fx/appdata/local/arduino15/packages/arduino/tools/arm-none-eabi-gcc/4.8.3-2014q1/bin/../lib/gcc/arm-none-eabi/4.8.3/armv7-m\libgcc.a
LOAD c:/users/fx/appdata/local/arduino15/packages/arduino/tools/arm-none-eabi-gcc/4.8.3-2014q1/bin/../lib/gcc/arm-none-eabi/4.8.3/../../../../arm-none-eabi/lib/armv7-m\libc.a
LOAD c:/users/fx/appdata/local/arduino15/packages/arduino/tools/arm-none-eabi-gcc/4.8.3-2014q1/bin/../lib/gcc/arm-none-eabi/4.8.3/../../../../arm-none-eabi/lib/armv7-m\libm.a
END GROUP
START GROUP
LOAD c:/users/fx/appdata/local/arduino15/packages/arduino/tools/arm-none-eabi-gcc/4.8.3-2014q1/bin/../lib/gcc/arm-none-eabi/4.8.3/../../../../arm-none-eabi/lib/armv7-m\libnosys.a
END GROUP
                0x20005000                PROVIDE (__msp_init, (ORIGIN (ram) + 0x5000))
                0x08001528                PROVIDE (__exc_reset, __start__)

.text           0x08000000     0x8bc8
                0x08000000                __text_start__ = .
 *(.stm32.interrupt_vector)
 .stm32.interrupt_vector
                0x08000000       0xec c:\Users\fx\Upwork\weather-node\output\core\core.a(vector_table.S.o)
                0x08000000                __stm32_vector_table
 *(.text .text.* .gnu.linkonce.t.*)
 .text          0x080000ec       0x54 c:/users/fx/appdata/local/arduino15/packages/arduino/tools/arm-none-eabi-gcc/4.8.3-2014q1/bin/../lib/gcc/arm-none-eabi/4.8.3/armv7-m/crtbegin.o
 .text._Z11readTempHumv
                0x08000140       0x2c c:\Users\fx\Upwork\weather-node\output\sketch\weatherSIM808.ino.cpp.o
                0x08000140                readTempHum()
 .text._Z17processingPM1Datac
                0x0800016c       0x68 c:\Users\fx\Upwork\weather-node\output\sketch\weatherSIM808.ino.cpp.o
                0x0800016c                processingPM1Data(char)
 .text._Z17processingPM2Datac
                0x080001d4       0x64 c:\Users\fx\Upwork\weather-node\output\sketch\weatherSIM808.ino.cpp.o
                0x080001d4                processingPM2Data(char)
 .text._Z9buildJSONv
                0x08000238       0xa4 c:\Users\fx\Upwork\weather-node\output\sketch\weatherSIM808.ino.cpp.o
                0x08000238                buildJSON()
 .text._Z6mPowerv
                0x080002dc       0x30 c:\Users\fx\Upwork\weather-node\output\sketch\weatherSIM808.ino.cpp.o
                0x080002dc                mPower()
 .text._Z5blinkv
                0x0800030c       0x26 c:\Users\fx\Upwork\weather-node\output\sketch\weatherSIM808.ino.cpp.o
                0x0800030c                blink()
 *fill*         0x08000332        0x2 
 .text._Z7procCGRv
                0x08000334       0x28 c:\Users\fx\Upwork\weather-node\output\sketch\weatherSIM808.ino.cpp.o
                0x08000334                procCGR()
 .text._Z7procCGNv
                0x0800035c       0x74 c:\Users\fx\Upwork\weather-node\output\sketch\weatherSIM808.ino.cpp.o
                0x0800035c                procCGN()
 .text._Z6waitOki
                0x080003d0       0x48 c:\Users\fx\Upwork\weather-node\output\sketch\weatherSIM808.ino.cpp.o
                0x080003d0                waitOk(int)
 .text._Z11sendCommandPKci
                0x08000418       0x38 c:\Users\fx\Upwork\weather-node\output\sketch\weatherSIM808.ino.cpp.o
                0x08000418                sendCommand(char const*, int)
 .text._Z10sim808Initv
                0x08000450       0x28 c:\Users\fx\Upwork\weather-node\output\sketch\weatherSIM808.ino.cpp.o
                0x08000450                sim808Init()
 .text._ZL10task_modemPv
                0x08000478      0x158 c:\Users\fx\Upwork\weather-node\output\sketch\weatherSIM808.ino.cpp.o
 .text._Z5setupv
                0x080005d0       0xc8 c:\Users\fx\Upwork\weather-node\output\sketch\weatherSIM808.ino.cpp.o
                0x080005d0                setup()
 .text._Z4loopv
                0x08000698        0x2 c:\Users\fx\Upwork\weather-node\output\sketch\weatherSIM808.ino.cpp.o
                0x08000698                loop()
 *fill*         0x0800069a        0x2 
 .text.startup._GLOBAL__sub_I_dht
                0x0800069c       0x10 c:\Users\fx\Upwork\weather-node\output\sketch\weatherSIM808.ino.cpp.o
 .text._Z7readPM1v
                0x080006ac       0x20 c:\Users\fx\Upwork\weather-node\output\sketch\weatherSIM808.ino.cpp.o
                0x080006ac                readPM1()
 .text._Z7readPM2v
                0x080006cc       0x20 c:\Users\fx\Upwork\weather-node\output\sketch\weatherSIM808.ino.cpp.o
                0x080006cc                readPM2()
 .text._ZL12task_sensorsPv
                0x080006ec       0x14 c:\Users\fx\Upwork\weather-node\output\sketch\weatherSIM808.ino.cpp.o
 .text._ZL14task_readModemPv
                0x08000700       0xf8 c:\Users\fx\Upwork\weather-node\output\sketch\weatherSIM808.ino.cpp.o
 .text.vApplicationStackOverflowHook
                0x080007f8        0x2 c:\Users\fx\Upwork\weather-node\output\libraries\FreeRTOS821\MapleFreeRTOS821.cpp.o
                0x080007f8                vApplicationStackOverflowHook
 *fill*         0x080007fa        0x2 
 .text.pvPortMalloc
                0x080007fc       0x50 c:\Users\fx\Upwork\weather-node\output\libraries\FreeRTOS821\utility\heap_1.c.o
                0x080007fc                pvPortMalloc
 .text.vPortFree
                0x0800084c        0x2 c:\Users\fx\Upwork\weather-node\output\libraries\FreeRTOS821\utility\heap_1.c.o
                0x0800084c                vPortFree
 .text.vListInitialise
                0x0800084e       0x16 c:\Users\fx\Upwork\weather-node\output\libraries\FreeRTOS821\utility\list.c.o
                0x0800084e                vListInitialise
 .text.vListInitialiseItem
                0x08000864        0x6 c:\Users\fx\Upwork\weather-node\output\libraries\FreeRTOS821\utility\list.c.o
                0x08000864                vListInitialiseItem
 .text.vListInsertEnd
                0x0800086a       0x18 c:\Users\fx\Upwork\weather-node\output\libraries\FreeRTOS821\utility\list.c.o
                0x0800086a                vListInsertEnd
 .text.vListInsert
                0x08000882       0x30 c:\Users\fx\Upwork\weather-node\output\libraries\FreeRTOS821\utility\list.c.o
                0x08000882                vListInsert
 .text.uxListRemove
                0x080008b2       0x20 c:\Users\fx\Upwork\weather-node\output\libraries\FreeRTOS821\utility\list.c.o
                0x080008b2                uxListRemove
 *fill*         0x080008d2        0x2 
 .text.prvPortStartFirstTask
                0x080008d4       0x20 c:\Users\fx\Upwork\weather-node\output\libraries\FreeRTOS821\utility\port.c.o
 .text.pxPortInitialiseStack
                0x080008f4       0x1c c:\Users\fx\Upwork\weather-node\output\libraries\FreeRTOS821\utility\port.c.o
                0x080008f4                pxPortInitialiseStack
 .text.__exc_svc
                0x08000910       0x28 c:\Users\fx\Upwork\weather-node\output\libraries\FreeRTOS821\utility\port.c.o
                0x08000910                __exc_svc
 .text.vPortYield
                0x08000938       0x18 c:\Users\fx\Upwork\weather-node\output\libraries\FreeRTOS821\utility\port.c.o
                0x08000938                vPortYield
 .text.ulPortSetInterruptMask
                0x08000950       0x10 c:\Users\fx\Upwork\weather-node\output\libraries\FreeRTOS821\utility\port.c.o
                0x08000950                ulPortSetInterruptMask
 .text.prvTaskExitError
                0x08000960        0x8 c:\Users\fx\Upwork\weather-node\output\libraries\FreeRTOS821\utility\port.c.o
 .text.xPortStartScheduler
                0x08000968       0x38 c:\Users\fx\Upwork\weather-node\output\libraries\FreeRTOS821\utility\port.c.o
                0x08000968                xPortStartScheduler
 .text.vPortEnterCritical
                0x080009a0       0x1c c:\Users\fx\Upwork\weather-node\output\libraries\FreeRTOS821\utility\port.c.o
                0x080009a0                vPortEnterCritical
 .text.vPortClearInterruptMask
                0x080009bc        0x6 c:\Users\fx\Upwork\weather-node\output\libraries\FreeRTOS821\utility\port.c.o
                0x080009bc                vPortClearInterruptMask
 *fill*         0x080009c2        0x2 
 .text.vPortExitCritical
                0x080009c4       0x14 c:\Users\fx\Upwork\weather-node\output\libraries\FreeRTOS821\utility\port.c.o
                0x080009c4                vPortExitCritical
 .text.xPortSysTickHandler
                0x080009d8       0x24 c:\Users\fx\Upwork\weather-node\output\libraries\FreeRTOS821\utility\port.c.o
                0x080009d8                xPortSysTickHandler
 .text.__exc_pendsv
                0x080009fc       0x48 c:\Users\fx\Upwork\weather-node\output\libraries\FreeRTOS821\utility\port.c.o
                0x080009fc                __exc_pendsv
 .text.prvResetNextTaskUnblockTime
                0x08000a44       0x24 c:\Users\fx\Upwork\weather-node\output\libraries\FreeRTOS821\utility\tasks.c.o
 .text.prvAddCurrentTaskToDelayedList
                0x08000a68       0x50 c:\Users\fx\Upwork\weather-node\output\libraries\FreeRTOS821\utility\tasks.c.o
 .text.xTaskGenericCreate
                0x08000ab8      0x1a4 c:\Users\fx\Upwork\weather-node\output\libraries\FreeRTOS821\utility\tasks.c.o
                0x08000ab8                xTaskGenericCreate
 .text.vTaskStartScheduler
                0x08000c5c       0x4c c:\Users\fx\Upwork\weather-node\output\libraries\FreeRTOS821\utility\tasks.c.o
                0x08000c5c                vTaskStartScheduler
 .text.vTaskSuspendAll
                0x08000ca8       0x10 c:\Users\fx\Upwork\weather-node\output\libraries\FreeRTOS821\utility\tasks.c.o
                0x08000ca8                vTaskSuspendAll
 .text.xTaskIncrementTick
                0x08000cb8       0xfc c:\Users\fx\Upwork\weather-node\output\libraries\FreeRTOS821\utility\tasks.c.o
                0x08000cb8                xTaskIncrementTick
 .text.xTaskResumeAll
                0x08000db4       0xc0 c:\Users\fx\Upwork\weather-node\output\libraries\FreeRTOS821\utility\tasks.c.o
                0x08000db4                xTaskResumeAll
 .text.vTaskDelay
                0x08000e74       0x54 c:\Users\fx\Upwork\weather-node\output\libraries\FreeRTOS821\utility\tasks.c.o
                0x08000e74                vTaskDelay
 .text.prvIdleTask
                0x08000ec8       0x64 c:\Users\fx\Upwork\weather-node\output\libraries\FreeRTOS821\utility\tasks.c.o
 .text.vTaskSwitchContext
                0x08000f2c       0x8c c:\Users\fx\Upwork\weather-node\output\libraries\FreeRTOS821\utility\tasks.c.o
                0x08000f2c                vTaskSwitchContext
 .text._ZN3DHTC2Ehhh
                0x08000fb8        0xc c:\Users\fx\Upwork\weather-node\output\libraries\DHT_sensor_library\DHT.cpp.o
                0x08000fb8                DHT::DHT(unsigned char, unsigned char, unsigned char)
                0x08000fb8                DHT::DHT(unsigned char, unsigned char, unsigned char)
 .text._ZN3DHT5beginEh
                0x08000fc4       0x20 c:\Users\fx\Upwork\weather-node\output\libraries\DHT_sensor_library\DHT.cpp.o
                0x08000fc4                DHT::begin(unsigned char)
 .text._ZN3DHT11expectPulseEb
                0x08000fe4       0x28 c:\Users\fx\Upwork\weather-node\output\libraries\DHT_sensor_library\DHT.cpp.o
                0x08000fe4                DHT::expectPulse(bool)
 .text._ZN3DHT4readEb
                0x0800100c      0x11c c:\Users\fx\Upwork\weather-node\output\libraries\DHT_sensor_library\DHT.cpp.o
                0x0800100c                DHT::read(bool)
 .text._ZN3DHT15readTemperatureEbb
                0x08001128      0x130 c:\Users\fx\Upwork\weather-node\output\libraries\DHT_sensor_library\DHT.cpp.o
                0x08001128                DHT::readTemperature(bool, bool)
 .text._ZN3DHT12readHumidityEb
                0x08001258       0x80 c:\Users\fx\Upwork\weather-node\output\libraries\DHT_sensor_library\DHT.cpp.o
                0x08001258                DHT::readHumidity(bool)
 .text._Z9boardInitv
                0x080012d8        0x2 c:\Users\fx\Upwork\weather-node\output\core\board.cpp.o
                0x080012d8                boardInit()
 *fill*         0x080012da        0x2 
 .text.startup._GLOBAL__sub_I__Z9boardInitv
                0x080012dc       0x48 c:\Users\fx\Upwork\weather-node\output\core\board.cpp.o
 .text._ZL18adc_default_configP7adc_dev
                0x08001324       0x1c c:\Users\fx\Upwork\weather-node\output\core\wirish\boards.cpp.o
 .text._ZL20timer_default_configP9timer_dev
                0x08001340       0x9e c:\Users\fx\Upwork\weather-node\output\core\wirish\boards.cpp.o
 *fill*         0x080013de        0x2 
 .text._Z4initv
                0x080013e0       0xb8 c:\Users\fx\Upwork\weather-node\output\core\wirish\boards.cpp.o
                0x080013e0                init()
 .text._ZN6wirish4priv15board_reset_pllEv
                0x08001498        0x2 c:\Users\fx\Upwork\weather-node\output\core\wirish\boards_setup.cpp.o
                0x08001498                wirish::priv::board_reset_pll()
 .text._ZN6wirish4priv28board_setup_clock_prescalersEv
                0x0800149a       0x30 c:\Users\fx\Upwork\weather-node\output\core\wirish\boards_setup.cpp.o
                0x0800149a                wirish::priv::board_setup_clock_prescalers()
 .text._ZN6wirish4priv16board_setup_gpioEv
                0x080014ca        0x4 c:\Users\fx\Upwork\weather-node\output\core\wirish\boards_setup.cpp.o
                0x080014ca                wirish::priv::board_setup_gpio()
 *fill*         0x080014ce        0x2 
 .text._ZN6wirish4priv15board_setup_usbEv
                0x080014d0       0x54 c:\Users\fx\Upwork\weather-node\output\core\wirish\boards_setup.cpp.o
                0x080014d0                wirish::priv::board_setup_usb()
 .text._ZN6wirish4priv11series_initEv
                0x08001524        0x4 c:\Users\fx\Upwork\weather-node\output\core\wirish\boards_setup.cpp.o
                0x08001524                wirish::priv::series_init()
 .text          0x08001528       0x10 c:\Users\fx\Upwork\weather-node\output\core\wirish\start.S.o
                0x08001528                __start__
 .text.start_c  0x08001538       0x58 c:\Users\fx\Upwork\weather-node\output\core\wirish\start_c.c.o
                0x08001538                start_c
 .text._sbrk    0x08001590       0x44 c:\Users\fx\Upwork\weather-node\output\core\wirish\syscalls.c.o
                0x08001590                _sbrk
 .text.rb_full_count
                0x080015d4       0x22 c:\Users\fx\Upwork\weather-node\output\core\core.a(HardwareSerial.cpp.o)
 .text._ZN14HardwareSerial4readEv
                0x080015f6       0x3a c:\Users\fx\Upwork\weather-node\output\core\core.a(HardwareSerial.cpp.o)
                0x080015f6                HardwareSerial::read()
 .text._ZN14HardwareSerial9availableEv
                0x08001630        0xc c:\Users\fx\Upwork\weather-node\output\core\core.a(HardwareSerial.cpp.o)
                0x08001630                HardwareSerial::available()
 .text._ZN14HardwareSerial4peekEv
                0x0800163c       0x22 c:\Users\fx\Upwork\weather-node\output\core\core.a(HardwareSerial.cpp.o)
                0x0800163c                HardwareSerial::peek()
 .text._ZN14HardwareSerial5flushEv
                0x0800165e       0x1a c:\Users\fx\Upwork\weather-node\output\core\core.a(HardwareSerial.cpp.o)
                0x0800165e                HardwareSerial::flush()
 .text._ZN14HardwareSerial5writeEh
                0x08001678       0x1e c:\Users\fx\Upwork\weather-node\output\core\core.a(HardwareSerial.cpp.o)
                0x08001678                HardwareSerial::write(unsigned char)
 *fill*         0x08001696        0x2 
 .text._ZN14HardwareSerialC2EP9usart_devhh
                0x08001698       0x1c c:\Users\fx\Upwork\weather-node\output\core\core.a(HardwareSerial.cpp.o)
                0x08001698                HardwareSerial::HardwareSerial(usart_dev*, unsigned char, unsigned char)
                0x08001698                HardwareSerial::HardwareSerial(usart_dev*, unsigned char, unsigned char)
 .text._ZN14HardwareSerial5beginEmh
                0x080016b4       0x78 c:\Users\fx\Upwork\weather-node\output\core\core.a(HardwareSerial.cpp.o)
                0x080016b4                HardwareSerial::begin(unsigned long, unsigned char)
 .text._ZN14HardwareSerial5beginEm
                0x0800172c        0x6 c:\Users\fx\Upwork\weather-node\output\core\core.a(HardwareSerial.cpp.o)
                0x0800172c                HardwareSerial::begin(unsigned long)
 .text._ZN5Print5writeEPKvm
                0x08001732       0x20 c:\Users\fx\Upwork\weather-node\output\core\core.a(Print.cpp.o)
                0x08001732                Print::write(void const*, unsigned long)
 .text._ZN5Print5writeEPKc
                0x08001752       0x1e c:\Users\fx\Upwork\weather-node\output\core\core.a(Print.cpp.o)
                0x08001752                Print::write(char const*)
 .text._ZN5Print5printEc
                0x08001770        0xa c:\Users\fx\Upwork\weather-node\output\core\core.a(Print.cpp.o)
                0x08001770                Print::print(char)
 .text._ZN5Print5printEPKc
                0x0800177a        0xa c:\Users\fx\Upwork\weather-node\output\core\core.a(Print.cpp.o)
                0x0800177a                Print::print(char const*)
 .text._ZN5Print7printlnEv
                0x08001784       0x18 c:\Users\fx\Upwork\weather-node\output\core\core.a(Print.cpp.o)
                0x08001784                Print::println()
 .text._ZN5Print7printlnEPKc
                0x0800179c       0x14 c:\Users\fx\Upwork\weather-node\output\core\core.a(Print.cpp.o)
                0x0800179c                Print::println(char const*)
 .text.adc_init
                0x080017b0       0x14 c:\Users\fx\Upwork\weather-node\output\core\core.a(adc.c.o)
                0x080017b0                adc_init
 .text.adc_set_extsel
                0x080017c4       0x12 c:\Users\fx\Upwork\weather-node\output\core\core.a(adc.c.o)
                0x080017c4                adc_set_extsel
 .text.adc_set_sample_rate
                0x080017d6       0x30 c:\Users\fx\Upwork\weather-node\output\core\core.a(adc.c.o)
                0x080017d6                adc_set_sample_rate
 *fill*         0x08001806        0x2 
 .text.__irq_adc
                0x08001808       0x50 c:\Users\fx\Upwork\weather-node\output\core\core.a(adc_f1.c.o)
                0x08001808                __irq_adc
 .text.adc_calibrate
                0x08001858       0x24 c:\Users\fx\Upwork\weather-node\output\core\core.a(adc_f1.c.o)
                0x08001858                adc_calibrate
 .text.adc_set_prescaler
                0x0800187c        0x8 c:\Users\fx\Upwork\weather-node\output\core\core.a(adc_f1.c.o)
                0x0800187c                adc_set_prescaler
 .text.adc_foreach
                0x08001884       0x1c c:\Users\fx\Upwork\weather-node\output\core\core.a(adc_f1.c.o)
                0x08001884                adc_foreach
 .text.adc_enable_single_swstart
                0x080018a0       0x36 c:\Users\fx\Upwork\weather-node\output\core\core.a(adc_f1.c.o)
                0x080018a0                adc_enable_single_swstart
 .text.dma_irq_handler
                0x080018d6       0x1c c:\Users\fx\Upwork\weather-node\output\core\core.a(dma_f1.c.o)
 *fill*         0x080018f2        0x2 
 .text.__irq_dma1_channel1
                0x080018f4       0x10 c:\Users\fx\Upwork\weather-node\output\core\core.a(dma_f1.c.o)
                0x080018f4                __irq_dma1_channel1
 .text.__irq_dma1_channel2
                0x08001904       0x10 c:\Users\fx\Upwork\weather-node\output\core\core.a(dma_f1.c.o)
                0x08001904                __irq_dma1_channel2
 .text.__irq_dma1_channel3
                0x08001914       0x10 c:\Users\fx\Upwork\weather-node\output\core\core.a(dma_f1.c.o)
                0x08001914                __irq_dma1_channel3
 .text.__irq_dma1_channel4
                0x08001924       0x10 c:\Users\fx\Upwork\weather-node\output\core\core.a(dma_f1.c.o)
                0x08001924                __irq_dma1_channel4
 .text.__irq_dma1_channel5
                0x08001934       0x10 c:\Users\fx\Upwork\weather-node\output\core\core.a(dma_f1.c.o)
                0x08001934                __irq_dma1_channel5
 .text.__irq_dma1_channel6
                0x08001944       0x10 c:\Users\fx\Upwork\weather-node\output\core\core.a(dma_f1.c.o)
                0x08001944                __irq_dma1_channel6
 .text.__irq_dma1_channel7
                0x08001954       0x10 c:\Users\fx\Upwork\weather-node\output\core\core.a(dma_f1.c.o)
                0x08001954                __irq_dma1_channel7
 *fill*         0x08001964        0xc 
 .text          0x08001970       0x60 c:\Users\fx\Upwork\weather-node\output\core\core.a(exc.S.o)
                0x08001970                __exc_nmi
                0x08001974                __exc_hardfault
                0x08001978                __exc_memmanage
                0x0800197c                __exc_busfault
                0x08001980                __exc_usagefault
 .text.dispatch_single_exti
                0x080019d0       0x2c c:\Users\fx\Upwork\weather-node\output\core\core.a(exti.c.o)
                0x080019d0                dispatch_single_exti
 .text.dispatch_extis
                0x080019fc       0x4c c:\Users\fx\Upwork\weather-node\output\core\core.a(exti.c.o)
                0x080019fc                dispatch_extis
 .text.__irq_exti0
                0x08001a48        0x6 c:\Users\fx\Upwork\weather-node\output\core\core.a(exti.c.o)
                0x08001a48                __irq_exti0
 .text.__irq_exti1
                0x08001a4e        0x6 c:\Users\fx\Upwork\weather-node\output\core\core.a(exti.c.o)
                0x08001a4e                __irq_exti1
 .text.__irq_exti2
                0x08001a54        0x6 c:\Users\fx\Upwork\weather-node\output\core\core.a(exti.c.o)
                0x08001a54                __irq_exti2
 .text.__irq_exti3
                0x08001a5a        0x6 c:\Users\fx\Upwork\weather-node\output\core\core.a(exti.c.o)
                0x08001a5a                __irq_exti3
 .text.__irq_exti4
                0x08001a60        0x6 c:\Users\fx\Upwork\weather-node\output\core\core.a(exti.c.o)
                0x08001a60                __irq_exti4
 .text.__irq_exti9_5
                0x08001a66        0x8 c:\Users\fx\Upwork\weather-node\output\core\core.a(exti.c.o)
                0x08001a66                __irq_exti9_5
 .text.__irq_exti15_10
                0x08001a6e        0x8 c:\Users\fx\Upwork\weather-node\output\core\core.a(exti.c.o)
                0x08001a6e                __irq_exti15_10
 *fill*         0x08001a76        0x2 
 .text.flash_set_latency
                0x08001a78       0x14 c:\Users\fx\Upwork\weather-node\output\core\core.a(flash.c.o)
                0x08001a78                flash_set_latency
 .text.gpio_init_all
                0x08001a8c       0x30 c:\Users\fx\Upwork\weather-node\output\core\core.a(gpio_f1.c.o)
                0x08001a8c                gpio_init_all
 .text.gpio_set_mode
                0x08001abc       0x50 c:\Users\fx\Upwork\weather-node\output\core\core.a(gpio_f1.c.o)
                0x08001abc                gpio_set_mode
 .text.afio_init
                0x08001b0c       0x12 c:\Users\fx\Upwork\weather-node\output\core\core.a(gpio_f1.c.o)
                0x08001b0c                afio_init
 *fill*         0x08001b1e        0x2 
 .text.__irq_i2c1_ev
                0x08001b20        0xc c:\Users\fx\Upwork\weather-node\output\core\core.a(i2c_f1.c.o)
                0x08001b20                __irq_i2c1_ev
 .text.__irq_i2c2_ev
                0x08001b2c        0xc c:\Users\fx\Upwork\weather-node\output\core\core.a(i2c_f1.c.o)
                0x08001b2c                __irq_i2c2_ev
 .text.__irq_i2c1_er
                0x08001b38        0xc c:\Users\fx\Upwork\weather-node\output\core\core.a(i2c_f1.c.o)
                0x08001b38                __irq_i2c1_er
 .text.__irq_i2c2_er
                0x08001b44        0xc c:\Users\fx\Upwork\weather-node\output\core\core.a(i2c_f1.c.o)
                0x08001b44                __irq_i2c2_er
 .text.nvic_irq_set_priority
                0x08001b50       0x28 c:\Users\fx\Upwork\weather-node\output\core\core.a(nvic.c.o)
                0x08001b50                nvic_irq_set_priority
 .text.nvic_init
                0x08001b78       0x30 c:\Users\fx\Upwork\weather-node\output\core\core.a(nvic.c.o)
                0x08001b78                nvic_init
 .text.nvic_sys_reset
                0x08001ba8       0x1c c:\Users\fx\Upwork\weather-node\output\core\core.a(nvic.c.o)
                0x08001ba8                nvic_sys_reset
 .text.rcc_dev_clk
                0x08001bc4        0xc c:\Users\fx\Upwork\weather-node\output\core\core.a(rcc.c.o)
                0x08001bc4                rcc_dev_clk
 .text.rcc_switch_sysclk
                0x08001bd0       0x20 c:\Users\fx\Upwork\weather-node\output\core\core.a(rcc.c.o)
                0x08001bd0                rcc_switch_sysclk
 .text.rcc_turn_on_clk
                0x08001bf0       0x1a c:\Users\fx\Upwork\weather-node\output\core\core.a(rcc.c.o)
                0x08001bf0                rcc_turn_on_clk
 .text.rcc_turn_off_clk
                0x08001c0a       0x1c c:\Users\fx\Upwork\weather-node\output\core\core.a(rcc.c.o)
                0x08001c0a                rcc_turn_off_clk
 .text.rcc_is_clk_ready
                0x08001c26       0x18 c:\Users\fx\Upwork\weather-node\output\core\core.a(rcc.c.o)
                0x08001c26                rcc_is_clk_ready
 *fill*         0x08001c3e        0x2 
 .text.rcc_configure_pll
                0x08001c40       0x18 c:\Users\fx\Upwork\weather-node\output\core\core.a(rcc_f1.c.o)
                0x08001c40                rcc_configure_pll
 .text.rcc_clk_enable
                0x08001c58       0x30 c:\Users\fx\Upwork\weather-node\output\core\core.a(rcc_f1.c.o)
                0x08001c58                rcc_clk_enable
 .text.rcc_reset_dev
                0x08001c88       0x34 c:\Users\fx\Upwork\weather-node\output\core\core.a(rcc_f1.c.o)
                0x08001c88                rcc_reset_dev
 .text.rcc_set_prescaler
                0x08001cbc       0x20 c:\Users\fx\Upwork\weather-node\output\core\core.a(rcc_f1.c.o)
                0x08001cbc                rcc_set_prescaler
 .text.rcc_clk_disable
                0x08001cdc       0x30 c:\Users\fx\Upwork\weather-node\output\core\core.a(rcc_f1.c.o)
                0x08001cdc                rcc_clk_disable
 .text          0x08001d0c        0x2 c:\Users\fx\Upwork\weather-node\output\core\core.a(isrs.S.o)
                0x08001d0c                __stm32reservedexception9
                0x08001d0c                __exc_debug_monitor
                0x08001d0c                __irq_can_rx1
                0x08001d0c                __irq_spi2
                0x08001d0c                __irq_can_sce
                0x08001d0c                __irq_pvd
                0x08001d0c                __irq_tamper
                0x08001d0c                __default_handler
                0x08001d0c                __irq_wwdg
                0x08001d0c                __stm32reservedexception10
                0x08001d0c                __irq_flash
                0x08001d0c                __stm32reservedexception13
                0x08001d0c                __irq_rtc
                0x08001d0c                __irq_spi1
                0x08001d0c                __stm32reservedexception7
                0x08001d0c                __irq_usb_hp_can_tx
                0x08001d0c                __irq_rtcalarm
                0x08001d0c                __stm32reservedexception8
                0x08001d0c                __irq_usbwakeup
                0x08001d0c                __irq_rcc
 *fill*         0x08001d0e        0x2 
 .text.systick_init
                0x08001d10       0x10 c:\Users\fx\Upwork\weather-node\output\core\core.a(systick.c.o)
                0x08001d10                systick_init
 .text.systick_attach_callback
                0x08001d20        0xc c:\Users\fx\Upwork\weather-node\output\core\core.a(systick.c.o)
                0x08001d20                systick_attach_callback
 .text.__exc_systick
                0x08001d2c       0x1c c:\Users\fx\Upwork\weather-node\output\core\core.a(systick.c.o)
                0x08001d2c                __exc_systick
 .text.timer_oc_set_mode
                0x08001d48       0x3a c:\Users\fx\Upwork\weather-node\output\core\core.a(timer.c.o)
 .text.dispatch_general
                0x08001d82       0x66 c:\Users\fx\Upwork\weather-node\output\core\core.a(timer.c.o)
 .text.timer_cc_enable
                0x08001de8       0x1c c:\Users\fx\Upwork\weather-node\output\core\core.a(timer.c.o)
 .text.timer_foreach
                0x08001e04       0x28 c:\Users\fx\Upwork\weather-node\output\core\core.a(timer.c.o)
                0x08001e04                timer_foreach
 .text.timer_init
                0x08001e2c       0x14 c:\Users\fx\Upwork\weather-node\output\core\core.a(timer.c.o)
                0x08001e2c                timer_init
 .text.timer_has_cc_channel
                0x08001e40       0x30 c:\Users\fx\Upwork\weather-node\output\core\core.a(timer.c.o)
                0x08001e40                timer_has_cc_channel
 .text.timer_detach_interrupt
                0x08001e70       0x1e c:\Users\fx\Upwork\weather-node\output\core\core.a(timer.c.o)
                0x08001e70                timer_detach_interrupt
 .text.input_capture_mode
                0x08001e8e       0x1a c:\Users\fx\Upwork\weather-node\output\core\core.a(timer.c.o)
                0x08001e8e                input_capture_mode
 .text.timer_set_mode
                0x08001ea8       0x8c c:\Users\fx\Upwork\weather-node\output\core\core.a(timer.c.o)
                0x08001ea8                timer_set_mode
 .text.__irq_tim1_brk
                0x08001f34       0x24 c:\Users\fx\Upwork\weather-node\output\core\core.a(timer.c.o)
                0x08001f34                __irq_tim1_brk
 .text.__irq_tim1_up
                0x08001f58       0x24 c:\Users\fx\Upwork\weather-node\output\core\core.a(timer.c.o)
                0x08001f58                __irq_tim1_up
 .text.__irq_tim1_trg_com
                0x08001f7c       0x34 c:\Users\fx\Upwork\weather-node\output\core\core.a(timer.c.o)
                0x08001f7c                __irq_tim1_trg_com
 .text.__irq_tim1_cc
                0x08001fb0       0x50 c:\Users\fx\Upwork\weather-node\output\core\core.a(timer.c.o)
                0x08001fb0                __irq_tim1_cc
 .text.__irq_tim2
                0x08002000        0xc c:\Users\fx\Upwork\weather-node\output\core\core.a(timer.c.o)
                0x08002000                __irq_tim2
 .text.__irq_tim3
                0x0800200c        0xc c:\Users\fx\Upwork\weather-node\output\core\core.a(timer.c.o)
                0x0800200c                __irq_tim3
 .text.__irq_tim4
                0x08002018        0xc c:\Users\fx\Upwork\weather-node\output\core\core.a(timer.c.o)
                0x08002018                __irq_tim4
 .text.usart_init
                0x08002024       0x4c c:\Users\fx\Upwork\weather-node\output\core\core.a(usart.c.o)
                0x08002024                usart_init
 .text.usart_enable
                0x08002070       0x14 c:\Users\fx\Upwork\weather-node\output\core\core.a(usart.c.o)
                0x08002070                usart_enable
 .text.usart_tx
                0x08002084       0x9c c:\Users\fx\Upwork\weather-node\output\core\core.a(usart.c.o)
                0x08002084                usart_tx
 .text.usart_irq
                0x08002120       0xc8 c:\Users\fx\Upwork\weather-node\output\core\core.a(usart_f1.c.o)
 .text.usart_config_gpios_async
                0x080021e8       0x4a c:\Users\fx\Upwork\weather-node\output\core\core.a(usart_f1.c.o)
                0x080021e8                usart_config_gpios_async
 .text.usart_set_baud_rate
                0x08002232       0x3c c:\Users\fx\Upwork\weather-node\output\core\core.a(usart_f1.c.o)
                0x08002232                usart_set_baud_rate
 *fill*         0x0800226e        0x2 
 .text.__irq_usart1
                0x08002270       0x18 c:\Users\fx\Upwork\weather-node\output\core\core.a(usart_f1.c.o)
                0x08002270                __irq_usart1
 .text.__irq_usart2
                0x08002288       0x18 c:\Users\fx\Upwork\weather-node\output\core\core.a(usart_f1.c.o)
                0x08002288                __irq_usart2
 .text.__irq_usart3
                0x080022a0       0x18 c:\Users\fx\Upwork\weather-node\output\core\core.a(usart_f1.c.o)
                0x080022a0                __irq_usart3
 .text._usart_clock_freq
                0x080022b8       0x24 c:\Users\fx\Upwork\weather-node\output\core\core.a(usart_private.c.o)
                0x080022b8                _usart_clock_freq
 .text.usb_resume
                0x080022dc       0xb4 c:\Users\fx\Upwork\weather-node\output\core\core.a(usb.c.o)
 .text.usb_init_usblib
                0x08002390       0x48 c:\Users\fx\Upwork\weather-node\output\core\core.a(usb.c.o)
                0x08002390                usb_init_usblib
 .text.__irq_usb_lp_can_rx0
                0x080023d8      0x1c8 c:\Users\fx\Upwork\weather-node\output\core\core.a(usb.c.o)
                0x080023d8                __irq_usb_lp_can_rx0
 .text.usb_set_ep_rx_stat
                0x080025a0       0x22 c:\Users\fx\Upwork\weather-node\output\core\core.a(usb_cdcacm.c.o)
 *fill*         0x080025c2        0x2 
 .text.vcomGetSetLineCoding
                0x080025c4       0x18 c:\Users\fx\Upwork\weather-node\output\core\core.a(usb_cdcacm.c.o)
 .text.usbDataSetup
                0x080025dc       0x54 c:\Users\fx\Upwork\weather-node\output\core\core.a(usb_cdcacm.c.o)
 .text.usbNoDataSetup
                0x08002630       0x50 c:\Users\fx\Upwork\weather-node\output\core\core.a(usb_cdcacm.c.o)
 .text.usbGetInterfaceSetting
                0x08002680       0x10 c:\Users\fx\Upwork\weather-node\output\core\core.a(usb_cdcacm.c.o)
 .text.usbSetConfiguration
                0x08002690       0x1c c:\Users\fx\Upwork\weather-node\output\core\core.a(usb_cdcacm.c.o)
 .text.usbSetDeviceAddress
                0x080026ac       0x10 c:\Users\fx\Upwork\weather-node\output\core\core.a(usb_cdcacm.c.o)
 .text.usbGetStringDescriptor
                0x080026bc       0x20 c:\Users\fx\Upwork\weather-node\output\core\core.a(usb_cdcacm.c.o)
 .text.usbGetConfigDescriptor
                0x080026dc        0xc c:\Users\fx\Upwork\weather-node\output\core\core.a(usb_cdcacm.c.o)
 .text.usbGetDeviceDescriptor
                0x080026e8        0xc c:\Users\fx\Upwork\weather-node\output\core\core.a(usb_cdcacm.c.o)
 .text.usbInit  0x080026f4       0x44 c:\Users\fx\Upwork\weather-node\output\core\core.a(usb_cdcacm.c.o)
 .text.vcomDataTxCb
                0x08002738       0xa0 c:\Users\fx\Upwork\weather-node\output\core\core.a(usb_cdcacm.c.o)
 .text.usbReset
                0x080027d8      0x160 c:\Users\fx\Upwork\weather-node\output\core\core.a(usb_cdcacm.c.o)
 .text.vcomDataRxCb
                0x08002938       0x7c c:\Users\fx\Upwork\weather-node\output\core\core.a(usb_cdcacm.c.o)
 .text.usb_cdcacm_set_hooks
                0x080029b4       0x1c c:\Users\fx\Upwork\weather-node\output\core\core.a(usb_cdcacm.c.o)
                0x080029b4                usb_cdcacm_set_hooks
 .text.usb_cdcacm_enable
                0x080029d0       0x38 c:\Users\fx\Upwork\weather-node\output\core\core.a(usb_cdcacm.c.o)
                0x080029d0                usb_cdcacm_enable
 .text.usb_cdcacm_tx
                0x08002a08       0x60 c:\Users\fx\Upwork\weather-node\output\core\core.a(usb_cdcacm.c.o)
                0x08002a08                usb_cdcacm_tx
 .text.usb_cdcacm_data_available
                0x08002a68       0x18 c:\Users\fx\Upwork\weather-node\output\core\core.a(usb_cdcacm.c.o)
                0x08002a68                usb_cdcacm_data_available
 .text.usb_cdcacm_peek
                0x08002a80       0x38 c:\Users\fx\Upwork\weather-node\output\core\core.a(usb_cdcacm.c.o)
                0x08002a80                usb_cdcacm_peek
 .text.usb_cdcacm_rx
                0x08002ab8       0x34 c:\Users\fx\Upwork\weather-node\output\core\core.a(usb_cdcacm.c.o)
                0x08002ab8                usb_cdcacm_rx
 .text.usb_cdcacm_peek_ex
                0x08002aec       0x40 c:\Users\fx\Upwork\weather-node\output\core\core.a(usb_cdcacm.c.o)
                0x08002aec                usb_cdcacm_peek_ex
 .text.usb_cdcacm_get_dtr
                0x08002b2c       0x10 c:\Users\fx\Upwork\weather-node\output\core\core.a(usb_cdcacm.c.o)
                0x08002b2c                usb_cdcacm_get_dtr
 .text.usb_set_ep_rx_count
                0x08002b3c       0x4c c:\Users\fx\Upwork\weather-node\output\core\core.a(usb_reg_map.c.o)
                0x08002b3c                usb_set_ep_rx_count
 .text.Standard_GetConfiguration
                0x08002b88       0x24 c:\Users\fx\Upwork\weather-node\output\core\core.a(usb_core.c.o)
                0x08002b88                Standard_GetConfiguration
 .text.Standard_GetInterface
                0x08002bac       0x24 c:\Users\fx\Upwork\weather-node\output\core\core.a(usb_core.c.o)
                0x08002bac                Standard_GetInterface
 .text.Standard_GetStatus
                0x08002bd0       0x90 c:\Users\fx\Upwork\weather-node\output\core\core.a(usb_core.c.o)
                0x08002bd0                Standard_GetStatus
 .text.DataStageIn
                0x08002c60       0xa8 c:\Users\fx\Upwork\weather-node\output\core\core.a(usb_core.c.o)
 .text.Standard_SetConfiguration
                0x08002d08       0x38 c:\Users\fx\Upwork\weather-node\output\core\core.a(usb_core.c.o)
                0x08002d08                Standard_SetConfiguration
 .text.Standard_SetInterface
                0x08002d40       0x48 c:\Users\fx\Upwork\weather-node\output\core\core.a(usb_core.c.o)
                0x08002d40                Standard_SetInterface
 .text.Standard_ClearFeature
                0x08002d88       0xd0 c:\Users\fx\Upwork\weather-node\output\core\core.a(usb_core.c.o)
                0x08002d88                Standard_ClearFeature
 .text.Standard_SetEndPointFeature
                0x08002e58       0x84 c:\Users\fx\Upwork\weather-node\output\core\core.a(usb_core.c.o)
                0x08002e58                Standard_SetEndPointFeature
 .text.Standard_SetDeviceFeature
                0x08002edc       0x24 c:\Users\fx\Upwork\weather-node\output\core\core.a(usb_core.c.o)
                0x08002edc                Standard_SetDeviceFeature
 .text.Standard_GetDescriptorData
                0x08002f00       0x1c c:\Users\fx\Upwork\weather-node\output\core\core.a(usb_core.c.o)
                0x08002f00                Standard_GetDescriptorData
 .text.Post0_Process
                0x08002f1c       0x40 c:\Users\fx\Upwork\weather-node\output\core\core.a(usb_core.c.o)
                0x08002f1c                Post0_Process
 .text.Setup0_Process
                0x08002f5c      0x2d0 c:\Users\fx\Upwork\weather-node\output\core\core.a(usb_core.c.o)
                0x08002f5c                Setup0_Process
 .text.Out0_Process
                0x0800322c       0xc8 c:\Users\fx\Upwork\weather-node\output\core\core.a(usb_core.c.o)
                0x0800322c                Out0_Process
 .text.SetDeviceAddress
                0x080032f4       0x38 c:\Users\fx\Upwork\weather-node\output\core\core.a(usb_core.c.o)
                0x080032f4                SetDeviceAddress
 .text.In0_Process
                0x0800332c       0x5c c:\Users\fx\Upwork\weather-node\output\core\core.a(usb_core.c.o)
                0x0800332c                In0_Process
 .text.NOP_Process
                0x08003388        0x2 c:\Users\fx\Upwork\weather-node\output\core\core.a(usb_core.c.o)
                0x08003388                NOP_Process
 .text.UserToPMABufferCopy
                0x0800338a       0x30 c:\Users\fx\Upwork\weather-node\output\core\core.a(usb_mem.c.o)
                0x0800338a                UserToPMABufferCopy
 .text.PMAToUserBufferCopy
                0x080033ba       0x32 c:\Users\fx\Upwork\weather-node\output\core\core.a(usb_mem.c.o)
                0x080033ba                PMAToUserBufferCopy
 .text.SetEPTxStatus
                0x080033ec       0x2a c:\Users\fx\Upwork\weather-node\output\core\core.a(usb_regs.c.o)
                0x080033ec                SetEPTxStatus
 .text.ClearDTOG_RX
                0x08003416       0x20 c:\Users\fx\Upwork\weather-node\output\core\core.a(usb_regs.c.o)
                0x08003416                ClearDTOG_RX
 .text.ClearDTOG_TX
                0x08003436       0x20 c:\Users\fx\Upwork\weather-node\output\core\core.a(usb_regs.c.o)
                0x08003436                ClearDTOG_TX
 *fill*         0x08003456        0x2 
 .text.GetEPTxAddr
                0x08003458       0x1c c:\Users\fx\Upwork\weather-node\output\core\core.a(usb_regs.c.o)
                0x08003458                GetEPTxAddr
 .text.GetEPRxAddr
                0x08003474       0x1c c:\Users\fx\Upwork\weather-node\output\core\core.a(usb_regs.c.o)
                0x08003474                GetEPRxAddr
 .text.SetEPTxCount
                0x08003490       0x1c c:\Users\fx\Upwork\weather-node\output\core\core.a(usb_regs.c.o)
                0x08003490                SetEPTxCount
 .text.SetEPRxCount
                0x080034ac       0x40 c:\Users\fx\Upwork\weather-node\output\core\core.a(usb_regs.c.o)
                0x080034ac                SetEPRxCount
 .text.throb    0x080034ec       0x4c c:\Users\fx\Upwork\weather-node\output\core\core.a(util.c.o)
                0x080034ec                throb
 .text.__error  0x08003538       0x14 c:\Users\fx\Upwork\weather-node\output\core\core.a(util.c.o)
                0x08003538                __error
 .text.startup._Z7premainv
                0x0800354c        0x4 c:\Users\fx\Upwork\weather-node\output\core\core.a(main.cpp.o)
                0x0800354c                premain()
 .text.startup.main
                0x08003550        0xc c:\Users\fx\Upwork\weather-node\output\core\core.a(main.cpp.o)
                0x08003550                main
 .text._Z7pinModeh13WiringPinMode
                0x0800355c       0x84 c:\Users\fx\Upwork\weather-node\output\core\core.a(wirish_digital_f1.cpp.o)
                0x0800355c                pinMode(unsigned char, WiringPinMode)
 .text._ZN9USBSerial9availableEv
                0x080035e0        0x4 c:\Users\fx\Upwork\weather-node\output\core\core.a(usb_serial.cpp.o)
                0x080035e0                USBSerial::available()
 .text._ZN9USBSerial4peekEv
                0x080035e4       0x1e c:\Users\fx\Upwork\weather-node\output\core\core.a(usb_serial.cpp.o)
                0x080035e4                USBSerial::peek()
 .text._ZN9USBSerial4readEv
                0x08003602       0x1e c:\Users\fx\Upwork\weather-node\output\core\core.a(usb_serial.cpp.o)
                0x08003602                USBSerial::read()
 .text._ZL14ifaceSetupHookjPv
                0x08003620       0x38 c:\Users\fx\Upwork\weather-node\output\core\core.a(usb_serial.cpp.o)
 .text._ZL6rxHookjPv
                0x08003658       0x6c c:\Users\fx\Upwork\weather-node\output\core\core.a(usb_serial.cpp.o)
 .text._ZN9USBSerialC2Ev
                0x080036c4       0x14 c:\Users\fx\Upwork\weather-node\output\core\core.a(usb_serial.cpp.o)
                0x080036c4                USBSerial::USBSerial()
                0x080036c4                USBSerial::USBSerial()
 .text._ZN9USBSerial5beginEv
                0x080036d8       0x34 c:\Users\fx\Upwork\weather-node\output\core\core.a(usb_serial.cpp.o)
                0x080036d8                USBSerial::begin()
 .text._ZN9USBSerial5beginEm
                0x0800370c       0x10 c:\Users\fx\Upwork\weather-node\output\core\core.a(usb_serial.cpp.o)
                0x0800370c                USBSerial::begin(unsigned long)
 .text._ZN9USBSerial5writeEPKhm
                0x0800371c       0x4c c:\Users\fx\Upwork\weather-node\output\core\core.a(usb_serial.cpp.o)
                0x0800371c                USBSerial::write(unsigned char const*, unsigned long)
 .text._ZN9USBSerial5writeEh
                0x08003768       0x16 c:\Users\fx\Upwork\weather-node\output\core\core.a(usb_serial.cpp.o)
                0x08003768                USBSerial::write(unsigned char)
 .text._ZN9USBSerial5writeEPKc
                0x0800377e       0x1a c:\Users\fx\Upwork\weather-node\output\core\core.a(usb_serial.cpp.o)
                0x0800377e                USBSerial::write(char const*)
 .text._ZN9USBSerial4readEPhm
                0x08003798       0x1c c:\Users\fx\Upwork\weather-node\output\core\core.a(usb_serial.cpp.o)
                0x08003798                USBSerial::read(unsigned char*, unsigned long)
 .text._ZN9USBSerial5flushEv
                0x080037b4       0x1c c:\Users\fx\Upwork\weather-node\output\core\core.a(usb_serial.cpp.o)
                0x080037b4                USBSerial::flush()
 .text.startup._GLOBAL__sub_I__ZN9USBSerial9_hasBegunE
                0x080037d0        0xc c:\Users\fx\Upwork\weather-node\output\core\core.a(usb_serial.cpp.o)
 .text._Z11digitalReadh
                0x080037dc       0x2c c:\Users\fx\Upwork\weather-node\output\core\core.a(wirish_digital.cpp.o)
                0x080037dc                digitalRead(unsigned char)
 .text._Z12digitalWritehh
                0x08003808       0x2c c:\Users\fx\Upwork\weather-node\output\core\core.a(wirish_digital.cpp.o)
                0x08003808                digitalWrite(unsigned char, unsigned char)
 .text._ZL6microsv
                0x08003834       0x34 c:\Users\fx\Upwork\weather-node\output\core\core.a(wirish_time.cpp.o)
 .text._Z5delaym
                0x08003868       0x2a c:\Users\fx\Upwork\weather-node\output\core\core.a(wirish_time.cpp.o)
                0x08003868                delay(unsigned long)
 .text._Z17delayMicrosecondsm
                0x08003892        0xe c:\Users\fx\Upwork\weather-node\output\core\core.a(wirish_time.cpp.o)
                0x08003892                delayMicroseconds(unsigned long)
 .text.__empty  0x080038a0        0x2 c:\Users\fx\Upwork\weather-node\output\core\core.a(hooks.c.o)
                0x080038a0                yield
 .text.bkp_init
                0x080038a2       0x18 c:\Users\fx\Upwork\weather-node\output\core\core.a(bkp_f1.c.o)
                0x080038a2                bkp_init
 *fill*         0x080038ba        0x2 
 .text.bkp_enable_writes
                0x080038bc        0xc c:\Users\fx\Upwork\weather-node\output\core\core.a(bkp_f1.c.o)
                0x080038bc                bkp_enable_writes
 .text.bkp_disable_writes
                0x080038c8        0xc c:\Users\fx\Upwork\weather-node\output\core\core.a(bkp_f1.c.o)
                0x080038c8                bkp_disable_writes
 .text.bkp_write
                0x080038d4       0x16 c:\Users\fx\Upwork\weather-node\output\core\core.a(bkp_f1.c.o)
                0x080038d4                bkp_write
 .text.gpio_init
                0x080038ea       0x14 c:\Users\fx\Upwork\weather-node\output\core\core.a(gpio.c.o)
                0x080038ea                gpio_init
 .text.i2c_disable_irq
                0x080038fe        0xc c:\Users\fx\Upwork\weather-node\output\core\core.a(i2c.c.o)
 *fill*         0x0800390a        0x2 
 .text._i2c_irq_handler
                0x0800390c      0x3d8 c:\Users\fx\Upwork\weather-node\output\core\core.a(i2c.c.o)
                0x0800390c                _i2c_irq_handler
 .text._i2c_irq_error_handler
                0x08003ce4       0x74 c:\Users\fx\Upwork\weather-node\output\core\core.a(i2c.c.o)
                0x08003ce4                _i2c_irq_error_handler
 .text.__fpclassifyd
                0x08003d58       0x50 c:/users/fx/appdata/local/arduino15/packages/arduino/tools/arm-none-eabi-gcc/4.8.3-2014q1/bin/../lib/gcc/arm-none-eabi/4.8.3/../../../../arm-none-eabi/lib/armv7-m\libm.a(lib_a-s_fpclassify.o)
                0x08003d58                __fpclassifyd
 .text          0x08003da8      0x370 c:/users/fx/appdata/local/arduino15/packages/arduino/tools/arm-none-eabi-gcc/4.8.3-2014q1/bin/../lib/gcc/arm-none-eabi/4.8.3/armv7-m\libgcc.a(_arm_addsubdf3.o)
                0x08003da8                __aeabi_drsub
                0x08003db0                __aeabi_dsub
                0x08003db0                __subdf3
                0x08003db4                __aeabi_dadd
                0x08003db4                __adddf3
                0x0800402c                __floatunsidf
                0x0800402c                __aeabi_ui2d
                0x0800404c                __floatsidf
                0x0800404c                __aeabi_i2d
                0x08004070                __aeabi_f2d
                0x08004070                __extendsfdf2
                0x080040ac                __floatundidf
                0x080040ac                __aeabi_ul2d
                0x080040bc                __floatdidf
                0x080040bc                __aeabi_l2d
 .text          0x08004118      0x424 c:/users/fx/appdata/local/arduino15/packages/arduino/tools/arm-none-eabi-gcc/4.8.3-2014q1/bin/../lib/gcc/arm-none-eabi/4.8.3/armv7-m\libgcc.a(_arm_muldivdf3.o)
                0x08004118                __aeabi_dmul
                0x08004118                __muldf3
                0x0800436c                __divdf3
                0x0800436c                __aeabi_ddiv
 .text          0x0800453c      0x110 c:/users/fx/appdata/local/arduino15/packages/arduino/tools/arm-none-eabi-gcc/4.8.3-2014q1/bin/../lib/gcc/arm-none-eabi/4.8.3/armv7-m\libgcc.a(_arm_cmpdf2.o)
                0x0800453c                __gtdf2
                0x0800453c                __gedf2
                0x08004544                __ltdf2
                0x08004544                __ledf2
                0x0800454c                __nedf2
                0x0800454c                __eqdf2
                0x0800454c                __cmpdf2
                0x080045c8                __aeabi_cdrcmple
                0x080045d8                __aeabi_cdcmpeq
                0x080045d8                __aeabi_cdcmple
                0x080045e8                __aeabi_dcmpeq
                0x080045fc                __aeabi_dcmplt
                0x08004610                __aeabi_dcmple
                0x08004624                __aeabi_dcmpge
                0x08004638                __aeabi_dcmpgt
 .text          0x0800464c       0x50 c:/users/fx/appdata/local/arduino15/packages/arduino/tools/arm-none-eabi-gcc/4.8.3-2014q1/bin/../lib/gcc/arm-none-eabi/4.8.3/armv7-m\libgcc.a(_arm_fixdfsi.o)
                0x0800464c                __aeabi_d2iz
                0x0800464c                __fixdfsi
 .text          0x0800469c       0xa0 c:/users/fx/appdata/local/arduino15/packages/arduino/tools/arm-none-eabi-gcc/4.8.3-2014q1/bin/../lib/gcc/arm-none-eabi/4.8.3/armv7-m\libgcc.a(_arm_truncdfsf2.o)
                0x0800469c                __truncdfsf2
                0x0800469c                __aeabi_d2f
 .text          0x0800473c      0x21c c:/users/fx/appdata/local/arduino15/packages/arduino/tools/arm-none-eabi-gcc/4.8.3-2014q1/bin/../lib/gcc/arm-none-eabi/4.8.3/armv7-m\libgcc.a(_arm_addsubsf3.o)
                0x0800473c                __aeabi_frsub
                0x08004744                __subsf3
                0x08004744                __aeabi_fsub
                0x08004748                __aeabi_fadd
                0x08004748                __addsf3
                0x080048a8                __aeabi_ui2f
                0x080048a8                __floatunsisf
                0x080048b0                __aeabi_i2f
                0x080048b0                __floatsisf
                0x080048cc                __aeabi_ul2f
                0x080048cc                __floatundisf
                0x080048dc                __aeabi_l2f
                0x080048dc                __floatdisf
 .text          0x08004958       0x2c c:/users/fx/appdata/local/arduino15/packages/arduino/tools/arm-none-eabi-gcc/4.8.3-2014q1/bin/../lib/gcc/arm-none-eabi/4.8.3/armv7-m\libgcc.a(_aeabi_uldivmod.o)
                0x08004958                __aeabi_uldivmod
 .text          0x08004984       0x60 c:/users/fx/appdata/local/arduino15/packages/arduino/tools/arm-none-eabi-gcc/4.8.3-2014q1/bin/../lib/gcc/arm-none-eabi/4.8.3/armv7-m\libgcc.a(bpabi.o)
                0x08004984                __gnu_ldivmod_helper
                0x080049b4                __gnu_uldivmod_helper
 .text          0x080049e4        0x4 c:/users/fx/appdata/local/arduino15/packages/arduino/tools/arm-none-eabi-gcc/4.8.3-2014q1/bin/../lib/gcc/arm-none-eabi/4.8.3/armv7-m\libgcc.a(_dvmd_tls.o)
                0x080049e4                __aeabi_idiv0
                0x080049e4                __aeabi_ldiv0
 .text          0x080049e8      0x2a0 c:/users/fx/appdata/local/arduino15/packages/arduino/tools/arm-none-eabi-gcc/4.8.3-2014q1/bin/../lib/gcc/arm-none-eabi/4.8.3/armv7-m\libgcc.a(_divdi3.o)
                0x080049e8                __divdi3
 .text          0x08004c88      0x290 c:/users/fx/appdata/local/arduino15/packages/arduino/tools/arm-none-eabi-gcc/4.8.3-2014q1/bin/../lib/gcc/arm-none-eabi/4.8.3/armv7-m\libgcc.a(_udivdi3.o)
                0x08004c88                __udivdi3
 .text.__errno  0x08004f18        0xc c:/users/fx/appdata/local/arduino15/packages/arduino/tools/arm-none-eabi-gcc/4.8.3-2014q1/bin/../lib/gcc/arm-none-eabi/4.8.3/../../../../arm-none-eabi/lib/armv7-m\libc.a(lib_a-errno.o)
                0x08004f18                __errno
 .text.__libc_init_array
                0x08004f24       0x50 c:/users/fx/appdata/local/arduino15/packages/arduino/tools/arm-none-eabi-gcc/4.8.3-2014q1/bin/../lib/gcc/arm-none-eabi/4.8.3/../../../../arm-none-eabi/lib/armv7-m\libc.a(lib_a-init.o)
                0x08004f24                __libc_init_array
 .text.malloc   0x08004f74       0x10 c:/users/fx/appdata/local/arduino15/packages/arduino/tools/arm-none-eabi-gcc/4.8.3-2014q1/bin/../lib/gcc/arm-none-eabi/4.8.3/../../../../arm-none-eabi/lib/armv7-m\libc.a(lib_a-malloc.o)
                0x08004f74                malloc
 .text._malloc_r
                0x08004f84      0x538 c:/users/fx/appdata/local/arduino15/packages/arduino/tools/arm-none-eabi-gcc/4.8.3-2014q1/bin/../lib/gcc/arm-none-eabi/4.8.3/../../../../arm-none-eabi/lib/armv7-m\libc.a(lib_a-mallocr.o)
                0x08004f84                _malloc_r
 .text.memchr   0x080054bc       0x94 c:/users/fx/appdata/local/arduino15/packages/arduino/tools/arm-none-eabi-gcc/4.8.3-2014q1/bin/../lib/gcc/arm-none-eabi/4.8.3/../../../../arm-none-eabi/lib/armv7-m\libc.a(lib_a-memchr-stub.o)
                0x080054bc                memchr
 .text.memcmp   0x08005550       0x68 c:/users/fx/appdata/local/arduino15/packages/arduino/tools/arm-none-eabi-gcc/4.8.3-2014q1/bin/../lib/gcc/arm-none-eabi/4.8.3/../../../../arm-none-eabi/lib/armv7-m\libc.a(lib_a-memcmp.o)
                0x08005550                memcmp
 .text          0x080055b8       0xec c:/users/fx/appdata/local/arduino15/packages/arduino/tools/arm-none-eabi-gcc/4.8.3-2014q1/bin/../lib/gcc/arm-none-eabi/4.8.3/../../../../arm-none-eabi/lib/armv7-m\libc.a(lib_a-memcpy.o)
                0x080055b8                memcpy
 .text.memset   0x080056a4       0x94 c:/users/fx/appdata/local/arduino15/packages/arduino/tools/arm-none-eabi-gcc/4.8.3-2014q1/bin/../lib/gcc/arm-none-eabi/4.8.3/../../../../arm-none-eabi/lib/armv7-m\libc.a(lib_a-memset.o)
                0x080056a4                memset
 .text.__malloc_lock
                0x08005738        0x4 c:/users/fx/appdata/local/arduino15/packages/arduino/tools/arm-none-eabi-gcc/4.8.3-2014q1/bin/../lib/gcc/arm-none-eabi/4.8.3/../../../../arm-none-eabi/lib/armv7-m\libc.a(lib_a-mlock.o)
                0x08005738                __malloc_lock
 .text.__malloc_unlock
                0x0800573c        0x4 c:/users/fx/appdata/local/arduino15/packages/arduino/tools/arm-none-eabi-gcc/4.8.3-2014q1/bin/../lib/gcc/arm-none-eabi/4.8.3/../../../../arm-none-eabi/lib/armv7-m\libc.a(lib_a-mlock.o)
                0x0800573c                __malloc_unlock
 .text._sbrk_r  0x08005740       0x24 c:/users/fx/appdata/local/arduino15/packages/arduino/tools/arm-none-eabi-gcc/4.8.3-2014q1/bin/../lib/gcc/arm-none-eabi/4.8.3/../../../../arm-none-eabi/lib/armv7-m\libc.a(lib_a-sbrkr.o)
                0x08005740                _sbrk_r
 .text.sprintf  0x08005764       0x4c c:/users/fx/appdata/local/arduino15/packages/arduino/tools/arm-none-eabi-gcc/4.8.3-2014q1/bin/../lib/gcc/arm-none-eabi/4.8.3/../../../../arm-none-eabi/lib/armv7-m\libc.a(lib_a-sprintf.o)
                0x08005764                sprintf
 .text.strlen   0x080057b0       0x60 c:/users/fx/appdata/local/arduino15/packages/arduino/tools/arm-none-eabi-gcc/4.8.3-2014q1/bin/../lib/gcc/arm-none-eabi/4.8.3/../../../../arm-none-eabi/lib/armv7-m\libc.a(lib_a-strlen.o)
                0x080057b0                strlen
 .text._svfprintf_r
                0x08005810     0x14e0 c:/users/fx/appdata/local/arduino15/packages/arduino/tools/arm-none-eabi-gcc/4.8.3-2014q1/bin/../lib/gcc/arm-none-eabi/4.8.3/../../../../arm-none-eabi/lib/armv7-m\libc.a(lib_a-svfprintf.o)
                0x08005810                _svfprintf_r
 .text.startup.register_fini
                0x08006cf0       0x14 c:/users/fx/appdata/local/arduino15/packages/arduino/tools/arm-none-eabi-gcc/4.8.3-2014q1/bin/../lib/gcc/arm-none-eabi/4.8.3/../../../../arm-none-eabi/lib/armv7-m\libc.a(lib_a-__call_atexit.o)
 .text.atexit   0x08006d04        0xc c:/users/fx/appdata/local/arduino15/packages/arduino/tools/arm-none-eabi-gcc/4.8.3-2014q1/bin/../lib/gcc/arm-none-eabi/4.8.3/../../../../arm-none-eabi/lib/armv7-m\libc.a(lib_a-atexit.o)
                0x08006d04                atexit
 .text.quorem   0x08006d10      0x134 c:/users/fx/appdata/local/arduino15/packages/arduino/tools/arm-none-eabi-gcc/4.8.3-2014q1/bin/../lib/gcc/arm-none-eabi/4.8.3/../../../../arm-none-eabi/lib/armv7-m\libc.a(lib_a-dtoa.o)
 *fill*         0x08006e44        0x4 
 .text._dtoa_r  0x08006e48      0xe38 c:/users/fx/appdata/local/arduino15/packages/arduino/tools/arm-none-eabi-gcc/4.8.3-2014q1/bin/../lib/gcc/arm-none-eabi/4.8.3/../../../../arm-none-eabi/lib/armv7-m\libc.a(lib_a-dtoa.o)
                0x08006e48                _dtoa_r
 .text.__libc_fini_array
                0x08007c80       0x30 c:/users/fx/appdata/local/arduino15/packages/arduino/tools/arm-none-eabi-gcc/4.8.3-2014q1/bin/../lib/gcc/arm-none-eabi/4.8.3/../../../../arm-none-eabi/lib/armv7-m\libc.a(lib_a-fini.o)
                0x08007c80                __libc_fini_array
 .text._malloc_trim_r
                0x08007cb0       0x9c c:/users/fx/appdata/local/arduino15/packages/arduino/tools/arm-none-eabi-gcc/4.8.3-2014q1/bin/../lib/gcc/arm-none-eabi/4.8.3/../../../../arm-none-eabi/lib/armv7-m\libc.a(lib_a-freer.o)
                0x08007cb0                _malloc_trim_r
 .text._free_r  0x08007d4c      0x198 c:/users/fx/appdata/local/arduino15/packages/arduino/tools/arm-none-eabi-gcc/4.8.3-2014q1/bin/../lib/gcc/arm-none-eabi/4.8.3/../../../../arm-none-eabi/lib/armv7-m\libc.a(lib_a-freer.o)
                0x08007d4c                _free_r
 .text._localeconv_r
                0x08007ee4        0x8 c:/users/fx/appdata/local/arduino15/packages/arduino/tools/arm-none-eabi-gcc/4.8.3-2014q1/bin/../lib/gcc/arm-none-eabi/4.8.3/../../../../arm-none-eabi/lib/armv7-m\libc.a(lib_a-locale.o)
                0x08007ee4                _localeconv_r
 .text._Balloc  0x08007eec       0x4c c:/users/fx/appdata/local/arduino15/packages/arduino/tools/arm-none-eabi-gcc/4.8.3-2014q1/bin/../lib/gcc/arm-none-eabi/4.8.3/../../../../arm-none-eabi/lib/armv7-m\libc.a(lib_a-mprec.o)
                0x08007eec                _Balloc
 .text._Bfree   0x08007f38       0x14 c:/users/fx/appdata/local/arduino15/packages/arduino/tools/arm-none-eabi-gcc/4.8.3-2014q1/bin/../lib/gcc/arm-none-eabi/4.8.3/../../../../arm-none-eabi/lib/armv7-m\libc.a(lib_a-mprec.o)
                0x08007f38                _Bfree
 .text.__multadd
                0x08007f4c       0x94 c:/users/fx/appdata/local/arduino15/packages/arduino/tools/arm-none-eabi-gcc/4.8.3-2014q1/bin/../lib/gcc/arm-none-eabi/4.8.3/../../../../arm-none-eabi/lib/armv7-m\libc.a(lib_a-mprec.o)
                0x08007f4c                __multadd
 .text.__hi0bits
                0x08007fe0       0x40 c:/users/fx/appdata/local/arduino15/packages/arduino/tools/arm-none-eabi-gcc/4.8.3-2014q1/bin/../lib/gcc/arm-none-eabi/4.8.3/../../../../arm-none-eabi/lib/armv7-m\libc.a(lib_a-mprec.o)
                0x08007fe0                __hi0bits
 .text.__lo0bits
                0x08008020       0x5c c:/users/fx/appdata/local/arduino15/packages/arduino/tools/arm-none-eabi-gcc/4.8.3-2014q1/bin/../lib/gcc/arm-none-eabi/4.8.3/../../../../arm-none-eabi/lib/armv7-m\libc.a(lib_a-mprec.o)
                0x08008020                __lo0bits
 .text.__i2b    0x0800807c       0x14 c:/users/fx/appdata/local/arduino15/packages/arduino/tools/arm-none-eabi-gcc/4.8.3-2014q1/bin/../lib/gcc/arm-none-eabi/4.8.3/../../../../arm-none-eabi/lib/armv7-m\libc.a(lib_a-mprec.o)
                0x0800807c                __i2b
 .text.__multiply
                0x08008090      0x13c c:/users/fx/appdata/local/arduino15/packages/arduino/tools/arm-none-eabi-gcc/4.8.3-2014q1/bin/../lib/gcc/arm-none-eabi/4.8.3/../../../../arm-none-eabi/lib/armv7-m\libc.a(lib_a-mprec.o)
                0x08008090                __multiply
 .text.__pow5mult
                0x080081cc       0x9c c:/users/fx/appdata/local/arduino15/packages/arduino/tools/arm-none-eabi-gcc/4.8.3-2014q1/bin/../lib/gcc/arm-none-eabi/4.8.3/../../../../arm-none-eabi/lib/armv7-m\libc.a(lib_a-mprec.o)
                0x080081cc                __pow5mult
 .text.__lshift
                0x08008268       0xbc c:/users/fx/appdata/local/arduino15/packages/arduino/tools/arm-none-eabi-gcc/4.8.3-2014q1/bin/../lib/gcc/arm-none-eabi/4.8.3/../../../../arm-none-eabi/lib/armv7-m\libc.a(lib_a-mprec.o)
                0x08008268                __lshift
 .text.__mcmp   0x08008324       0x48 c:/users/fx/appdata/local/arduino15/packages/arduino/tools/arm-none-eabi-gcc/4.8.3-2014q1/bin/../lib/gcc/arm-none-eabi/4.8.3/../../../../arm-none-eabi/lib/armv7-m\libc.a(lib_a-mprec.o)
                0x08008324                __mcmp
 .text.__mdiff  0x0800836c       0xd8 c:/users/fx/appdata/local/arduino15/packages/arduino/tools/arm-none-eabi-gcc/4.8.3-2014q1/bin/../lib/gcc/arm-none-eabi/4.8.3/../../../../arm-none-eabi/lib/armv7-m\libc.a(lib_a-mprec.o)
                0x0800836c                __mdiff
 .text.__d2b    0x08008444       0xbc c:/users/fx/appdata/local/arduino15/packages/arduino/tools/arm-none-eabi-gcc/4.8.3-2014q1/bin/../lib/gcc/arm-none-eabi/4.8.3/../../../../arm-none-eabi/lib/armv7-m\libc.a(lib_a-mprec.o)
                0x08008444                __d2b
 .text.__ssprint_r
                0x08008500      0x100 c:/users/fx/appdata/local/arduino15/packages/arduino/tools/arm-none-eabi-gcc/4.8.3-2014q1/bin/../lib/gcc/arm-none-eabi/4.8.3/../../../../arm-none-eabi/lib/armv7-m\libc.a(lib_a-svfiprintf.o)
                0x08008500                __ssprint_r
 .text.__register_exitproc
                0x08008600       0xa8 c:/users/fx/appdata/local/arduino15/packages/arduino/tools/arm-none-eabi-gcc/4.8.3-2014q1/bin/../lib/gcc/arm-none-eabi/4.8.3/../../../../arm-none-eabi/lib/armv7-m\libc.a(lib_a-__atexit.o)
                0x08008600                __register_exitproc
 .text._calloc_r
                0x080086a8       0x60 c:/users/fx/appdata/local/arduino15/packages/arduino/tools/arm-none-eabi-gcc/4.8.3-2014q1/bin/../lib/gcc/arm-none-eabi/4.8.3/../../../../arm-none-eabi/lib/armv7-m\libc.a(lib_a-callocr.o)
                0x080086a8                _calloc_r
 .text.memmove  0x08008708       0xcc c:/users/fx/appdata/local/arduino15/packages/arduino/tools/arm-none-eabi-gcc/4.8.3-2014q1/bin/../lib/gcc/arm-none-eabi/4.8.3/../../../../arm-none-eabi/lib/armv7-m\libc.a(lib_a-memmove.o)
                0x08008708                memmove
 .text._realloc_r
                0x080087d4      0x3c0 c:/users/fx/appdata/local/arduino15/packages/arduino/tools/arm-none-eabi-gcc/4.8.3-2014q1/bin/../lib/gcc/arm-none-eabi/4.8.3/../../../../arm-none-eabi/lib/armv7-m\libc.a(lib_a-reallocr.o)
                0x080087d4                _realloc_r
 *(.plt)
 *(.gnu.warning)
 *(.glue_7t)
 .glue_7t       0x00000000        0x0 linker stubs
 *(.glue_7)
 .glue_7        0x00000000        0x0 linker stubs
 *(.vfp11_veneer)
 .vfp11_veneer  0x00000000        0x0 linker stubs
 *(.ARM.extab* .gnu.linkonce.armextab.*)
 *(.gcc_except_table)
 *(.eh_frame_hdr)
 *(.eh_frame)
 .eh_frame      0x08008b94        0x0 c:/users/fx/appdata/local/arduino15/packages/arduino/tools/arm-none-eabi-gcc/4.8.3-2014q1/bin/../lib/gcc/arm-none-eabi/4.8.3/armv7-m/crtbegin.o
                0x08008b94                . = ALIGN (0x4)
 *(.init)
 .init          0x08008b94        0x4 c:/users/fx/appdata/local/arduino15/packages/arduino/tools/arm-none-eabi-gcc/4.8.3-2014q1/bin/../lib/gcc/arm-none-eabi/4.8.3/armv7-m/crti.o
                0x08008b94                _init
 .init          0x08008b98        0x8 c:/users/fx/appdata/local/arduino15/packages/arduino/tools/arm-none-eabi-gcc/4.8.3-2014q1/bin/../lib/gcc/arm-none-eabi/4.8.3/armv7-m/crtn.o
                0x08008ba0                . = ALIGN (0x4)
                0x08008ba0                __preinit_array_start = .
 *(.preinit_array)
                0x08008ba0                __preinit_array_end = .
                0x08008ba0                . = ALIGN (0x4)
                0x08008ba0                __init_array_start = .
 *(SORT(.init_array.*))
 .init_array.00000
                0x08008ba0        0x4 c:/users/fx/appdata/local/arduino15/packages/arduino/tools/arm-none-eabi-gcc/4.8.3-2014q1/bin/../lib/gcc/arm-none-eabi/4.8.3/../../../../arm-none-eabi/lib/armv7-m\libc.a(lib_a-__call_atexit.o)
 .init_array.00101
                0x08008ba4        0x4 c:\Users\fx\Upwork\weather-node\output\core\core.a(main.cpp.o)
 *(.init_array)
 .init_array    0x08008ba8        0x4 c:/users/fx/appdata/local/arduino15/packages/arduino/tools/arm-none-eabi-gcc/4.8.3-2014q1/bin/../lib/gcc/arm-none-eabi/4.8.3/armv7-m/crtbegin.o
 .init_array    0x08008bac        0x4 c:\Users\fx\Upwork\weather-node\output\sketch\weatherSIM808.ino.cpp.o
 .init_array    0x08008bb0        0x4 c:\Users\fx\Upwork\weather-node\output\core\board.cpp.o
 .init_array    0x08008bb4        0x4 c:\Users\fx\Upwork\weather-node\output\core\core.a(usb_serial.cpp.o)
                0x08008bb8                __init_array_end = .
                0x08008bb8                . = ALIGN (0x4)
 *crtbegin.o(.ctors)
 *(EXCLUDE_FILE(*crtend.o) .ctors)
 *(SORT(.ctors.*))
 *crtend.o(.ctors)
                0x08008bb8                . = ALIGN (0x4)
 *(.fini)
 .fini          0x08008bb8        0x4 c:/users/fx/appdata/local/arduino15/packages/arduino/tools/arm-none-eabi-gcc/4.8.3-2014q1/bin/../lib/gcc/arm-none-eabi/4.8.3/armv7-m/crti.o
                0x08008bb8                _fini
 .fini          0x08008bbc        0x8 c:/users/fx/appdata/local/arduino15/packages/arduino/tools/arm-none-eabi-gcc/4.8.3-2014q1/bin/../lib/gcc/arm-none-eabi/4.8.3/armv7-m/crtn.o
                0x08008bc4                . = ALIGN (0x4)
                0x08008bc4                __fini_array_start = .
 *(.fini_array)
 .fini_array    0x08008bc4        0x4 c:/users/fx/appdata/local/arduino15/packages/arduino/tools/arm-none-eabi-gcc/4.8.3-2014q1/bin/../lib/gcc/arm-none-eabi/4.8.3/armv7-m/crtbegin.o
 *(SORT(.fini_array.*))
                0x08008bc8                __fini_array_end = .
 *crtbegin.o(.dtors)
 *(EXCLUDE_FILE(*crtend.o) .dtors)
 *(SORT(.dtors.*))
 *crtend.o(.dtors)

.v4_bx          0x08008bc8        0x0
 .v4_bx         0x00000000        0x0 linker stubs

.iplt           0x08008bc8        0x0
 .iplt          0x00000000        0x0 c:/users/fx/appdata/local/arduino15/packages/arduino/tools/arm-none-eabi-gcc/4.8.3-2014q1/bin/../lib/gcc/arm-none-eabi/4.8.3/armv7-m/crtbegin.o

.text.align     0x08008bc8        0x0
                0x08008bc8                . = ALIGN (0x8)
                0x08008bc8                __text_end__ = .
                0x08008bc8                __exidx_start = .

.ARM.exidx      0x08008bc8        0x8
 *(.ARM.exidx* .gnu.linkonce.armexidx.*)
 .ARM.exidx     0x08008bc8        0x8 c:\Users\fx\Upwork\weather-node\output\core\wirish\start.S.o
 .ARM.exidx     0x08008bd0        0x0 c:/users/fx/appdata/local/arduino15/packages/arduino/tools/arm-none-eabi-gcc/4.8.3-2014q1/bin/../lib/gcc/arm-none-eabi/4.8.3/armv7-m\libgcc.a(_divdi3.o)
                                  0x8 (size before relaxing)
 .ARM.exidx     0x08008bd0        0x0 c:/users/fx/appdata/local/arduino15/packages/arduino/tools/arm-none-eabi-gcc/4.8.3-2014q1/bin/../lib/gcc/arm-none-eabi/4.8.3/armv7-m\libgcc.a(_udivdi3.o)
                                  0x8 (size before relaxing)
                0x08008bd0                __exidx_end = .

.data           0x20000000      0xd10 load address 0x08008bd0
                0x20000000                __data_start__ = .
                0x20000000        0x4 LONG 0x0
                0x20000008                . = ALIGN (0x8)
 *fill*         0x20000004        0x4 
 *(.got.plt)
 *(.got)
 *(.data .data.* .gnu.linkonce.d.*)
 .data.timestamp
                0x20000008       0x13 c:\Users\fx\Upwork\weather-node\output\sketch\weatherSIM808.ino.cpp.o
                0x20000008                timestamp
 .data.longitude
                0x2000001b        0xb c:\Users\fx\Upwork\weather-node\output\sketch\weatherSIM808.ino.cpp.o
                0x2000001b                longitude
 .data.latitude
                0x20000026        0xb c:\Users\fx\Upwork\weather-node\output\sketch\weatherSIM808.ino.cpp.o
                0x20000026                latitude
 *fill*         0x20000031        0x3 
 .data.uxCriticalNesting
                0x20000034        0x4 c:\Users\fx\Upwork\weather-node\output\libraries\FreeRTOS821\utility\port.c.o
 .data.xNextTaskUnblockTime
                0x20000038        0x4 c:\Users\fx\Upwork\weather-node\output\libraries\FreeRTOS821\utility\tasks.c.o
 .data._ZN6wirish4privL8pll_dataE
                0x2000003c        0x4 c:\Users\fx\Upwork\weather-node\output\core\wirish\boards_setup.cpp.o
 .data._ZN6wirish4priv9w_adc_smpE
                0x20000040        0x1 c:\Users\fx\Upwork\weather-node\output\core\wirish\boards_setup.cpp.o
                0x20000040                wirish::priv::w_adc_smp
 *fill*         0x20000041        0x1 
 .data._ZN6wirish4priv9w_adc_preE
                0x20000042        0x2 c:\Users\fx\Upwork\weather-node\output\core\wirish\boards_setup.cpp.o
                0x20000042                wirish::priv::w_adc_pre
 .data._ZN6wirish4priv15w_board_pll_cfgE
                0x20000044        0x8 c:\Users\fx\Upwork\weather-node\output\core\wirish\boards_setup.cpp.o
                0x20000044                wirish::priv::w_board_pll_cfg
 .data.adc2     0x2000004c        0x8 c:\Users\fx\Upwork\weather-node\output\core\core.a(adc_f1.c.o)
                0x2000004c                adc2
 .data.adc1     0x20000054       0x18 c:\Users\fx\Upwork\weather-node\output\core\core.a(adc_f1.c.o)
                0x20000054                adc1
 .data.ADC2     0x2000006c        0x4 c:\Users\fx\Upwork\weather-node\output\core\core.a(adc_f1.c.o)
                0x2000006c                ADC2
 .data.ADC1     0x20000070        0x4 c:\Users\fx\Upwork\weather-node\output\core\core.a(adc_f1.c.o)
                0x20000070                ADC1
 .data.dma1     0x20000074       0x40 c:\Users\fx\Upwork\weather-node\output\core\core.a(dma_f1.c.o)
 .data.DMA1     0x200000b4        0x4 c:\Users\fx\Upwork\weather-node\output\core\core.a(dma_f1.c.o)
                0x200000b4                DMA1
 .data.gpioa    0x200000b8        0x8 c:\Users\fx\Upwork\weather-node\output\core\core.a(gpio_f1.c.o)
                0x200000b8                gpioa
 .data.gpiob    0x200000c0        0x8 c:\Users\fx\Upwork\weather-node\output\core\core.a(gpio_f1.c.o)
                0x200000c0                gpiob
 .data.gpioc    0x200000c8        0x8 c:\Users\fx\Upwork\weather-node\output\core\core.a(gpio_f1.c.o)
                0x200000c8                gpioc
 .data.gpiod    0x200000d0        0x8 c:\Users\fx\Upwork\weather-node\output\core\core.a(gpio_f1.c.o)
                0x200000d0                gpiod
 .data.i2c1     0x200000d8       0x38 c:\Users\fx\Upwork\weather-node\output\core\core.a(i2c_f1.c.o)
 .data.i2c2     0x20000110       0x38 c:\Users\fx\Upwork\weather-node\output\core\core.a(i2c_f1.c.o)
 .data.enable_regs.4411
                0x20000148        0xc c:\Users\fx\Upwork\weather-node\output\core\core.a(rcc_f1.c.o)
 .data.reset_regs.4415
                0x20000154        0x8 c:\Users\fx\Upwork\weather-node\output\core\core.a(rcc_f1.c.o)
 .data.enable_regs.4424
                0x2000015c        0xc c:\Users\fx\Upwork\weather-node\output\core\core.a(rcc_f1.c.o)
 .data.timer3   0x20000168       0x24 c:\Users\fx\Upwork\weather-node\output\core\core.a(timer.c.o)
                0x20000168                timer3
 .data.timer4   0x2000018c       0x24 c:\Users\fx\Upwork\weather-node\output\core\core.a(timer.c.o)
                0x2000018c                timer4
 .data.timer1   0x200001b0       0x28 c:\Users\fx\Upwork\weather-node\output\core\core.a(timer.c.o)
                0x200001b0                timer1
 .data.timer2   0x200001d8       0x24 c:\Users\fx\Upwork\weather-node\output\core\core.a(timer.c.o)
                0x200001d8                timer2
 .data.USART1   0x200001fc        0x4 c:\Users\fx\Upwork\weather-node\output\core\core.a(usart_f1.c.o)
                0x200001fc                USART1
 .data.USART2   0x20000200        0x4 c:\Users\fx\Upwork\weather-node\output\core\core.a(usart_f1.c.o)
                0x20000200                USART2
 .data.USART3   0x20000204        0x4 c:\Users\fx\Upwork\weather-node\output\core\core.a(usart_f1.c.o)
                0x20000204                USART3
 .data.usart1   0x20000208       0x94 c:\Users\fx\Upwork\weather-node\output\core\core.a(usart_f1.c.o)
 .data.usart2   0x2000029c       0x94 c:\Users\fx\Upwork\weather-node\output\core\core.a(usart_f1.c.o)
 .data.usart3   0x20000330       0x94 c:\Users\fx\Upwork\weather-node\output\core\core.a(usart_f1.c.o)
 .data.USBLIB   0x200003c4        0x4 c:\Users\fx\Upwork\weather-node\output\core\core.a(usb.c.o)
                0x200003c4                USBLIB
 .data.usblib   0x200003c8       0x10 c:\Users\fx\Upwork\weather-node\output\core\core.a(usb.c.o)
 .data.Config_Descriptor
                0x200003d8        0x8 c:\Users\fx\Upwork\weather-node\output\core\core.a(usb_cdcacm.c.o)
 .data.Device_Property
                0x200003e0       0x30 c:\Users\fx\Upwork\weather-node\output\core\core.a(usb_cdcacm.c.o)
                0x200003e0                Device_Property
 .data.ep_int_in
                0x20000410       0x1c c:\Users\fx\Upwork\weather-node\output\core\core.a(usb_cdcacm.c.o)
 .data.String_Descriptor
                0x2000042c       0x18 c:\Users\fx\Upwork\weather-node\output\core\core.a(usb_cdcacm.c.o)
 .data.ep_int_out
                0x20000444       0x1c c:\Users\fx\Upwork\weather-node\output\core\core.a(usb_cdcacm.c.o)
 .data.line_coding
                0x20000460        0x7 c:\Users\fx\Upwork\weather-node\output\core\core.a(usb_cdcacm.c.o)
 *fill*         0x20000467        0x1 
 .data.User_Standard_Requests
                0x20000468       0x24 c:\Users\fx\Upwork\weather-node\output\core\core.a(usb_cdcacm.c.o)
                0x20000468                User_Standard_Requests
 .data.Device_Descriptor
                0x2000048c        0x8 c:\Users\fx\Upwork\weather-node\output\core\core.a(usb_cdcacm.c.o)
 .data.Device_Table
                0x20000494        0x2 c:\Users\fx\Upwork\weather-node\output\core\core.a(usb_cdcacm.c.o)
                0x20000494                Device_Table
 *fill*         0x20000496        0x2 
 .data.impure_data
                0x20000498      0x428 c:/users/fx/appdata/local/arduino15/packages/arduino/tools/arm-none-eabi-gcc/4.8.3-2014q1/bin/../lib/gcc/arm-none-eabi/4.8.3/../../../../arm-none-eabi/lib/armv7-m\libc.a(lib_a-impure.o)
 .data._impure_ptr
                0x200008c0        0x4 c:/users/fx/appdata/local/arduino15/packages/arduino/tools/arm-none-eabi-gcc/4.8.3-2014q1/bin/../lib/gcc/arm-none-eabi/4.8.3/../../../../arm-none-eabi/lib/armv7-m\libc.a(lib_a-impure.o)
                0x200008c0                _impure_ptr
 .data.__malloc_av_
                0x200008c4      0x408 c:/users/fx/appdata/local/arduino15/packages/arduino/tools/arm-none-eabi-gcc/4.8.3-2014q1/bin/../lib/gcc/arm-none-eabi/4.8.3/../../../../arm-none-eabi/lib/armv7-m\libc.a(lib_a-mallocr.o)
                0x200008c4                __malloc_av_
 .data.__malloc_trim_threshold
                0x20000ccc        0x4 c:/users/fx/appdata/local/arduino15/packages/arduino/tools/arm-none-eabi-gcc/4.8.3-2014q1/bin/../lib/gcc/arm-none-eabi/4.8.3/../../../../arm-none-eabi/lib/armv7-m\libc.a(lib_a-mallocr.o)
                0x20000ccc                __malloc_trim_threshold
 .data.__malloc_sbrk_base
                0x20000cd0        0x4 c:/users/fx/appdata/local/arduino15/packages/arduino/tools/arm-none-eabi-gcc/4.8.3-2014q1/bin/../lib/gcc/arm-none-eabi/4.8.3/../../../../arm-none-eabi/lib/armv7-m\libc.a(lib_a-mallocr.o)
                0x20000cd0                __malloc_sbrk_base
 .data.lconv    0x20000cd4       0x38 c:/users/fx/appdata/local/arduino15/packages/arduino/tools/arm-none-eabi-gcc/4.8.3-2014q1/bin/../lib/gcc/arm-none-eabi/4.8.3/../../../../arm-none-eabi/lib/armv7-m\libc.a(lib_a-locale.o)
                0x20000d10                . = ALIGN (0x8)
 *fill*         0x20000d0c        0x4 
                0x20000d10                __data_end__ = .

.jcr            0x20000d10        0x0 load address 0x080098e0
 .jcr           0x20000d10        0x0 c:/users/fx/appdata/local/arduino15/packages/arduino/tools/arm-none-eabi-gcc/4.8.3-2014q1/bin/../lib/gcc/arm-none-eabi/4.8.3/armv7-m/crtbegin.o

.igot.plt       0x20000d10        0x0 load address 0x080098e0
 .igot.plt      0x00000000        0x0 c:/users/fx/appdata/local/arduino15/packages/arduino/tools/arm-none-eabi-gcc/4.8.3-2014q1/bin/../lib/gcc/arm-none-eabi/4.8.3/armv7-m/crtbegin.o

.rodata         0x080098e0      0x730
 *(.rodata .rodata.* .gnu.linkonce.r.*)
 .rodata._ZL13key_pm2_value
                0x080098e0        0x3 c:\Users\fx\Upwork\weather-node\output\sketch\weatherSIM808.ino.cpp.o
 .rodata._ZL12key_humidity
                0x080098e3        0x3 c:\Users\fx\Upwork\weather-node\output\sketch\weatherSIM808.ino.cpp.o
 .rodata._ZL13key_timestamp
                0x080098e6        0x3 c:\Users\fx\Upwork\weather-node\output\sketch\weatherSIM808.ino.cpp.o
 .rodata._ZL12key_latitude
                0x080098e9        0x3 c:\Users\fx\Upwork\weather-node\output\sketch\weatherSIM808.ino.cpp.o
 .rodata._ZL15key_temperature
                0x080098ec        0x3 c:\Users\fx\Upwork\weather-node\output\sketch\weatherSIM808.ino.cpp.o
 .rodata.str1.1
                0x080098ef      0x207 c:\Users\fx\Upwork\weather-node\output\sketch\weatherSIM808.ino.cpp.o
                                0x20c (size before relaxing)
 .rodata._ZL13key_longitude
                0x08009af6        0x3 c:\Users\fx\Upwork\weather-node\output\sketch\weatherSIM808.ino.cpp.o
 .rodata._ZL13key_pm1_value
                0x08009af9        0x3 c:\Users\fx\Upwork\weather-node\output\sketch\weatherSIM808.ino.cpp.o
 .rodata.ucExpectedStackBytes.5340
                0x08009afc       0x14 c:\Users\fx\Upwork\weather-node\output\libraries\FreeRTOS821\utility\tasks.c.o
 .rodata.str1.1
                0x08009b10        0x5 c:\Users\fx\Upwork\weather-node\output\libraries\FreeRTOS821\utility\tasks.c.o
 *fill*         0x08009b15        0x3 
 .rodata.PIN_MAP
                0x08009b18      0x230 c:\Users\fx\Upwork\weather-node\output\core\board.cpp.o
                0x08009b18                PIN_MAP
 .rodata._ZTV14HardwareSerial
                0x08009d48       0x28 c:\Users\fx\Upwork\weather-node\output\core\core.a(HardwareSerial.cpp.o)
                0x08009d48                vtable for HardwareSerial
 .rodata.GPIOC  0x08009d70        0x4 c:\Users\fx\Upwork\weather-node\output\core\core.a(gpio_f1.c.o)
                0x08009d70                GPIOC
 .rodata.rcc_dev_table
                0x08009d74       0x5c c:\Users\fx\Upwork\weather-node\output\core\core.a(rcc_f1.c.o)
                0x08009d74                rcc_dev_table
 .rodata.masks.4420
                0x08009dd0       0x14 c:\Users\fx\Upwork\weather-node\output\core\core.a(rcc_f1.c.o)
 .rodata.usbVcomDescriptor_iProduct
                0x08009de4        0xc c:\Users\fx\Upwork\weather-node\output\core\core.a(usb_cdcacm.c.o)
 .rodata.usbVcomDescriptor_iManufacturer
                0x08009df0       0x12 c:\Users\fx\Upwork\weather-node\output\core\core.a(usb_cdcacm.c.o)
 .rodata.usbVcomDescriptor_Device
                0x08009e02       0x12 c:\Users\fx\Upwork\weather-node\output\core\core.a(usb_cdcacm.c.o)
 .rodata.usbVcomDescriptor_Config
                0x08009e14       0x43 c:\Users\fx\Upwork\weather-node\output\core\core.a(usb_cdcacm.c.o)
 .rodata.usbVcomDescriptor_LangID
                0x08009e57        0x4 c:\Users\fx\Upwork\weather-node\output\core\core.a(usb_cdcacm.c.o)
 *fill*         0x08009e5b        0x5 
 .rodata._ZTV9USBSerial
                0x08009e60       0x28 c:\Users\fx\Upwork\weather-node\output\core\core.a(usb_serial.cpp.o)
                0x08009e60                vtable for USBSerial
 .rodata.str1.4
                0x08009e88        0x2 c:/users/fx/appdata/local/arduino15/packages/arduino/tools/arm-none-eabi-gcc/4.8.3-2014q1/bin/../lib/gcc/arm-none-eabi/4.8.3/../../../../arm-none-eabi/lib/armv7-m\libc.a(lib_a-impure.o)
                                  0x4 (size before relaxing)
 *fill*         0x08009e8a        0x2 
 .rodata._global_impure_ptr
                0x08009e8c        0x4 c:/users/fx/appdata/local/arduino15/packages/arduino/tools/arm-none-eabi-gcc/4.8.3-2014q1/bin/../lib/gcc/arm-none-eabi/4.8.3/../../../../arm-none-eabi/lib/armv7-m\libc.a(lib_a-impure.o)
                0x08009e8c                _global_impure_ptr
 .rodata.zeroes.6760
                0x08009e90       0x10 c:/users/fx/appdata/local/arduino15/packages/arduino/tools/arm-none-eabi-gcc/4.8.3-2014q1/bin/../lib/gcc/arm-none-eabi/4.8.3/../../../../arm-none-eabi/lib/armv7-m\libc.a(lib_a-svfprintf.o)
 .rodata.str1.4
                0x08009ea0       0x42 c:/users/fx/appdata/local/arduino15/packages/arduino/tools/arm-none-eabi-gcc/4.8.3-2014q1/bin/../lib/gcc/arm-none-eabi/4.8.3/../../../../arm-none-eabi/lib/armv7-m\libc.a(lib_a-svfprintf.o)
                                 0x44 (size before relaxing)
 *fill*         0x08009ee2        0x2 
 .rodata.blanks.6759
                0x08009ee4       0x10 c:/users/fx/appdata/local/arduino15/packages/arduino/tools/arm-none-eabi-gcc/4.8.3-2014q1/bin/../lib/gcc/arm-none-eabi/4.8.3/../../../../arm-none-eabi/lib/armv7-m\libc.a(lib_a-svfprintf.o)
 .rodata.str1.4
                0x08009ef4       0x10 c:/users/fx/appdata/local/arduino15/packages/arduino/tools/arm-none-eabi-gcc/4.8.3-2014q1/bin/../lib/gcc/arm-none-eabi/4.8.3/../../../../arm-none-eabi/lib/armv7-m\libc.a(lib_a-dtoa.o)
                                 0x14 (size before relaxing)
 .rodata.str1.4
                0x08009f04        0xc c:/users/fx/appdata/local/arduino15/packages/arduino/tools/arm-none-eabi-gcc/4.8.3-2014q1/bin/../lib/gcc/arm-none-eabi/4.8.3/../../../../arm-none-eabi/lib/armv7-m\libc.a(lib_a-locale.o)
                                 0x14 (size before relaxing)
 .rodata.__mprec_tens
                0x08009f10       0xc8 c:/users/fx/appdata/local/arduino15/packages/arduino/tools/arm-none-eabi-gcc/4.8.3-2014q1/bin/../lib/gcc/arm-none-eabi/4.8.3/../../../../arm-none-eabi/lib/armv7-m\libc.a(lib_a-mprec.o)
                0x08009f10                __mprec_tens
 .rodata.__mprec_bigtens
                0x08009fd8       0x28 c:/users/fx/appdata/local/arduino15/packages/arduino/tools/arm-none-eabi-gcc/4.8.3-2014q1/bin/../lib/gcc/arm-none-eabi/4.8.3/../../../../arm-none-eabi/lib/armv7-m\libc.a(lib_a-mprec.o)
                0x08009fd8                __mprec_bigtens
 .rodata.p05.5266
                0x0800a000        0xc c:/users/fx/appdata/local/arduino15/packages/arduino/tools/arm-none-eabi-gcc/4.8.3-2014q1/bin/../lib/gcc/arm-none-eabi/4.8.3/../../../../arm-none-eabi/lib/armv7-m\libc.a(lib_a-mprec.o)
 *(.USER_FLASH)
                0x0800a00c                . = ALIGN (0x4)
                0x0800a00c                _lm_rom_img_cfgp = .
                0x0800a00c        0x4 LONG 0x8008bd0 LOADADDR (.data)
                0x200033b0                _lm_heap_start = DEFINED (_lm_heap_start)?_lm_heap_start:_end
                0x20005000                _lm_heap_end = DEFINED (_lm_heap_end)?_lm_heap_end:__msp_init

.rel.dyn        0x0800a010        0x0
 .rel.iplt      0x00000000        0x0 c:/users/fx/appdata/local/arduino15/packages/arduino/tools/arm-none-eabi-gcc/4.8.3-2014q1/bin/../lib/gcc/arm-none-eabi/4.8.3/armv7-m/crtbegin.o

.bss            0x20000d10     0x26a0
                0x20000d10                . = ALIGN (0x8)
                0x20000d10                __bss_start__ = .
 *(.bss .bss.* .gnu.linkonce.b.*)
 .bss           0x20000d10       0x1c c:/users/fx/appdata/local/arduino15/packages/arduino/tools/arm-none-eabi-gcc/4.8.3-2014q1/bin/../lib/gcc/arm-none-eabi/4.8.3/armv7-m/crtbegin.o
 .bss.pm1_ok    0x20000d2c        0x1 c:\Users\fx\Upwork\weather-node\output\sketch\weatherSIM808.ino.cpp.o
                0x20000d2c                pm1_ok
 .bss.flagREG   0x20000d2d        0x1 c:\Users\fx\Upwork\weather-node\output\sketch\weatherSIM808.ino.cpp.o
                0x20000d2d                flagREG
 *fill*         0x20000d2e        0x2 
 .bss.pm2_i     0x20000d30        0x4 c:\Users\fx\Upwork\weather-node\output\sketch\weatherSIM808.ino.cpp.o
                0x20000d30                pm2_i
 .bss.flagERROR
                0x20000d34        0x1 c:\Users\fx\Upwork\weather-node\output\sketch\weatherSIM808.ino.cpp.o
                0x20000d34                flagERROR
 .bss.pm1_buff  0x20000d35        0xf c:\Users\fx\Upwork\weather-node\output\sketch\weatherSIM808.ino.cpp.o
                0x20000d35                pm1_buff
 .bss.flagHTTPACT
                0x20000d44        0x1 c:\Users\fx\Upwork\weather-node\output\sketch\weatherSIM808.ino.cpp.o
                0x20000d44                flagHTTPACT
 .bss.flagDOWNLOAD
                0x20000d45        0x1 c:\Users\fx\Upwork\weather-node\output\sketch\weatherSIM808.ino.cpp.o
                0x20000d45                flagDOWNLOAD
 .bss.pm2_buff  0x20000d46       0x28 c:\Users\fx\Upwork\weather-node\output\sketch\weatherSIM808.ino.cpp.o
                0x20000d46                pm2_buff
 *fill*         0x20000d6e        0x2 
 .bss.pm1_value
                0x20000d70        0x4 c:\Users\fx\Upwork\weather-node\output\sketch\weatherSIM808.ino.cpp.o
                0x20000d70                pm1_value
 .bss.pm1_i     0x20000d74        0x4 c:\Users\fx\Upwork\weather-node\output\sketch\weatherSIM808.ino.cpp.o
                0x20000d74                pm1_i
 .bss.humidity  0x20000d78        0x4 c:\Users\fx\Upwork\weather-node\output\sketch\weatherSIM808.ino.cpp.o
                0x20000d78                humidity
 .bss.pm2_ok    0x20000d7c        0x1 c:\Users\fx\Upwork\weather-node\output\sketch\weatherSIM808.ino.cpp.o
                0x20000d7c                pm2_ok
 .bss.flagOK    0x20000d7d        0x1 c:\Users\fx\Upwork\weather-node\output\sketch\weatherSIM808.ino.cpp.o
                0x20000d7d                flagOK
 *fill*         0x20000d7e        0x2 
 .bss.pm2_value
                0x20000d80        0x4 c:\Users\fx\Upwork\weather-node\output\sketch\weatherSIM808.ino.cpp.o
                0x20000d80                pm2_value
 .bss.flagGNS   0x20000d84        0x1 c:\Users\fx\Upwork\weather-node\output\sketch\weatherSIM808.ino.cpp.o
                0x20000d84                flagGNS
 *fill*         0x20000d85        0x3 
 .bss.dht       0x20000d88       0x14 c:\Users\fx\Upwork\weather-node\output\sketch\weatherSIM808.ino.cpp.o
                0x20000d88                dht
 .bss.modem_buffer
                0x20000d9c       0xc8 c:\Users\fx\Upwork\weather-node\output\sketch\weatherSIM808.ino.cpp.o
                0x20000d9c                modem_buffer
 .bss.post_buffer
                0x20000e64       0x78 c:\Users\fx\Upwork\weather-node\output\sketch\weatherSIM808.ino.cpp.o
                0x20000e64                post_buffer
 .bss.temperature
                0x20000edc        0x4 c:\Users\fx\Upwork\weather-node\output\sketch\weatherSIM808.ino.cpp.o
                0x20000edc                temperature
 .bss.modem_i   0x20000ee0        0x4 c:\Users\fx\Upwork\weather-node\output\sketch\weatherSIM808.ino.cpp.o
                0x20000ee0                modem_i
 .bss.xNextFreeByte
                0x20000ee4        0x4 c:\Users\fx\Upwork\weather-node\output\libraries\FreeRTOS821\utility\heap_1.c.o
 .bss.ucHeap    0x20000ee8     0x2000 c:\Users\fx\Upwork\weather-node\output\libraries\FreeRTOS821\utility\heap_1.c.o
 .bss.pucAlignedHeap.4932
                0x20002ee8        0x4 c:\Users\fx\Upwork\weather-node\output\libraries\FreeRTOS821\utility\heap_1.c.o
 .bss.xNumOfOverflows
                0x20002eec        0x4 c:\Users\fx\Upwork\weather-node\output\libraries\FreeRTOS821\utility\tasks.c.o
 .bss.pxDelayedTaskList
                0x20002ef0        0x4 c:\Users\fx\Upwork\weather-node\output\libraries\FreeRTOS821\utility\tasks.c.o
 .bss.xSchedulerRunning
                0x20002ef4        0x4 c:\Users\fx\Upwork\weather-node\output\libraries\FreeRTOS821\utility\tasks.c.o
 .bss.uxTasksDeleted
                0x20002ef8        0x4 c:\Users\fx\Upwork\weather-node\output\libraries\FreeRTOS821\utility\tasks.c.o
 .bss.xDelayedTaskList1
                0x20002efc       0x14 c:\Users\fx\Upwork\weather-node\output\libraries\FreeRTOS821\utility\tasks.c.o
 .bss.xDelayedTaskList2
                0x20002f10       0x14 c:\Users\fx\Upwork\weather-node\output\libraries\FreeRTOS821\utility\tasks.c.o
 .bss.uxPendedTicks
                0x20002f24        0x4 c:\Users\fx\Upwork\weather-node\output\libraries\FreeRTOS821\utility\tasks.c.o
 .bss.pxReadyTasksLists
                0x20002f28       0x64 c:\Users\fx\Upwork\weather-node\output\libraries\FreeRTOS821\utility\tasks.c.o
 .bss.xTasksWaitingTermination
                0x20002f8c       0x14 c:\Users\fx\Upwork\weather-node\output\libraries\FreeRTOS821\utility\tasks.c.o
 .bss.pxCurrentTCB
                0x20002fa0        0x4 c:\Users\fx\Upwork\weather-node\output\libraries\FreeRTOS821\utility\tasks.c.o
                0x20002fa0                pxCurrentTCB
 .bss.xPendingReadyList
                0x20002fa4       0x14 c:\Users\fx\Upwork\weather-node\output\libraries\FreeRTOS821\utility\tasks.c.o
 .bss.uxSchedulerSuspended
                0x20002fb8        0x4 c:\Users\fx\Upwork\weather-node\output\libraries\FreeRTOS821\utility\tasks.c.o
 .bss.xTickCount
                0x20002fbc        0x4 c:\Users\fx\Upwork\weather-node\output\libraries\FreeRTOS821\utility\tasks.c.o
 .bss.pxOverflowDelayedTaskList
                0x20002fc0        0x4 c:\Users\fx\Upwork\weather-node\output\libraries\FreeRTOS821\utility\tasks.c.o
 .bss.uxTaskNumber
                0x20002fc4        0x4 c:\Users\fx\Upwork\weather-node\output\libraries\FreeRTOS821\utility\tasks.c.o
 .bss.uxCurrentNumberOfTasks
                0x20002fc8        0x4 c:\Users\fx\Upwork\weather-node\output\libraries\FreeRTOS821\utility\tasks.c.o
 .bss.xSuspendedTaskList
                0x20002fcc       0x14 c:\Users\fx\Upwork\weather-node\output\libraries\FreeRTOS821\utility\tasks.c.o
 .bss.uxTopReadyPriority
                0x20002fe0        0x4 c:\Users\fx\Upwork\weather-node\output\libraries\FreeRTOS821\utility\tasks.c.o
 .bss.xYieldPending
                0x20002fe4        0x4 c:\Users\fx\Upwork\weather-node\output\libraries\FreeRTOS821\utility\tasks.c.o
 .bss.Serial1   0x20002fe8       0x18 c:\Users\fx\Upwork\weather-node\output\core\board.cpp.o
                0x20002fe8                Serial1
 .bss.Serial2   0x20003000       0x18 c:\Users\fx\Upwork\weather-node\output\core\board.cpp.o
                0x20003000                Serial2
 .bss.Serial3   0x20003018       0x18 c:\Users\fx\Upwork\weather-node\output\core\board.cpp.o
                0x20003018                Serial3
 .bss.pbreak.4444
                0x20003030        0x4 c:\Users\fx\Upwork\weather-node\output\core\wirish\syscalls.c.o
 .bss.exti_channels
                0x20003034       0x80 c:\Users\fx\Upwork\weather-node\output\core\core.a(exti.c.o)
                0x20003034                exti_channels
 .bss.systick_user_callback
                0x200030b4        0x4 c:\Users\fx\Upwork\weather-node\output\core\core.a(systick.c.o)
 .bss.usart1_wb
                0x200030b8        0xc c:\Users\fx\Upwork\weather-node\output\core\core.a(usart_f1.c.o)
 .bss.usart1_rb
                0x200030c4        0xc c:\Users\fx\Upwork\weather-node\output\core\core.a(usart_f1.c.o)
 .bss.usart2_rb
                0x200030d0        0xc c:\Users\fx\Upwork\weather-node\output\core\core.a(usart_f1.c.o)
 .bss.usart3_rb
                0x200030dc        0xc c:\Users\fx\Upwork\weather-node\output\core\core.a(usart_f1.c.o)
 .bss.usart2_wb
                0x200030e8        0xc c:\Users\fx\Upwork\weather-node\output\core\core.a(usart_f1.c.o)
 .bss.usart3_wb
                0x200030f4        0xc c:\Users\fx\Upwork\weather-node\output\core\core.a(usart_f1.c.o)
 .bss.line_dtr_rts
                0x20003100        0x1 c:\Users\fx\Upwork\weather-node\output\core\core.a(usb_cdcacm.c.o)
 .bss.vcomBufferTx
                0x20003101      0x100 c:\Users\fx\Upwork\weather-node\output\core\core.a(usb_cdcacm.c.o)
 *fill*         0x20003201        0x3 
 .bss.tx_head   0x20003204        0x4 c:\Users\fx\Upwork\weather-node\output\core\core.a(usb_cdcacm.c.o)
 .bss.rx_hook   0x20003208        0x4 c:\Users\fx\Upwork\weather-node\output\core\core.a(usb_cdcacm.c.o)
 .bss.vcomBufferRx
                0x2000320c      0x100 c:\Users\fx\Upwork\weather-node\output\core\core.a(usb_cdcacm.c.o)
 .bss.transmitting
                0x2000330c        0x1 c:\Users\fx\Upwork\weather-node\output\core\core.a(usb_cdcacm.c.o)
 *fill*         0x2000330d        0x3 
 .bss.rx_tail   0x20003310        0x4 c:\Users\fx\Upwork\weather-node\output\core\core.a(usb_cdcacm.c.o)
 .bss.iface_setup_hook
                0x20003314        0x4 c:\Users\fx\Upwork\weather-node\output\core\core.a(usb_cdcacm.c.o)
 .bss.rx_head   0x20003318        0x4 c:\Users\fx\Upwork\weather-node\output\core\core.a(usb_cdcacm.c.o)
 .bss.tx_tail   0x2000331c        0x4 c:\Users\fx\Upwork\weather-node\output\core\core.a(usb_cdcacm.c.o)
 .bss.Data_Mul_MaxPacketSize
                0x20003320        0x1 c:\Users\fx\Upwork\weather-node\output\core\core.a(usb_core.c.o)
                0x20003320                Data_Mul_MaxPacketSize
 .bss._ZN9USBSerial9_hasBegunE
                0x20003321        0x1 c:\Users\fx\Upwork\weather-node\output\core\core.a(usb_serial.cpp.o)
                0x20003321                USBSerial::_hasBegun
 *fill*         0x20003322        0x2 
 .bss.Serial    0x20003324       0x10 c:\Users\fx\Upwork\weather-node\output\core\core.a(usb_serial.cpp.o)
                0x20003324                Serial
 .bss._ZL11reset_state
                0x20003334        0x1 c:\Users\fx\Upwork\weather-node\output\core\core.a(usb_serial.cpp.o)
 .bss._ZN9USBSerial11_isBlockingE
                0x20003335        0x1 c:\Users\fx\Upwork\weather-node\output\core\core.a(usb_serial.cpp.o)
                0x20003335                USBSerial::_isBlocking
 *fill*         0x20003336        0x2 
 .bss.__malloc_max_total_mem
                0x20003338        0x4 c:/users/fx/appdata/local/arduino15/packages/arduino/tools/arm-none-eabi-gcc/4.8.3-2014q1/bin/../lib/gcc/arm-none-eabi/4.8.3/../../../../arm-none-eabi/lib/armv7-m\libc.a(lib_a-mallocr.o)
                0x20003338                __malloc_max_total_mem
 .bss.__malloc_max_sbrked_mem
                0x2000333c        0x4 c:/users/fx/appdata/local/arduino15/packages/arduino/tools/arm-none-eabi-gcc/4.8.3-2014q1/bin/../lib/gcc/arm-none-eabi/4.8.3/../../../../arm-none-eabi/lib/armv7-m\libc.a(lib_a-mallocr.o)
                0x2000333c                __malloc_max_sbrked_mem
 .bss.__malloc_top_pad
                0x20003340        0x4 c:/users/fx/appdata/local/arduino15/packages/arduino/tools/arm-none-eabi-gcc/4.8.3-2014q1/bin/../lib/gcc/arm-none-eabi/4.8.3/../../../../arm-none-eabi/lib/armv7-m\libc.a(lib_a-mallocr.o)
                0x20003340                __malloc_top_pad
 .bss.__malloc_current_mallinfo
                0x20003344       0x28 c:/users/fx/appdata/local/arduino15/packages/arduino/tools/arm-none-eabi-gcc/4.8.3-2014q1/bin/../lib/gcc/arm-none-eabi/4.8.3/../../../../arm-none-eabi/lib/armv7-m\libc.a(lib_a-mallocr.o)
                0x20003344                __malloc_current_mallinfo
 *(COMMON)
 COMMON         0x2000336c        0x4 c:\Users\fx\Upwork\weather-node\output\core\core.a(systick.c.o)
                0x2000336c                systick_uptime_millis
 COMMON         0x20003370        0x6 c:\Users\fx\Upwork\weather-node\output\core\core.a(usb.c.o)
                0x20003370                SaveRState
                0x20003372                SaveTState
                0x20003374                ResumeS
 COMMON         0x20003376        0x2 c:\Users\fx\Upwork\weather-node\output\core\core.a(usb_core.c.o)
                0x20003376                StatusInfo
 COMMON         0x20003378       0x32 c:\Users\fx\Upwork\weather-node\output\core\core.a(usb_init.c.o)
                0x20003378                SaveState
                0x2000337c                pProperty
                0x20003380                EPindex
                0x20003384                Device_Info
                0x200033a0                pUser_Standard_Requests
                0x200033a4                pInformation
                0x200033a8                wInterrupt_Mask
 *fill*         0x200033aa        0x2 
 COMMON         0x200033ac        0x4 c:/users/fx/appdata/local/arduino15/packages/arduino/tools/arm-none-eabi-gcc/4.8.3-2014q1/bin/../lib/gcc/arm-none-eabi/4.8.3/../../../../arm-none-eabi/lib/armv7-m\libc.a(lib_a-reent.o)
                0x200033ac                errno
                0x200033b0                . = ALIGN (0x8)
                0x200033b0                __bss_end__ = .
                0x200033b0                _end = __bss_end__

.stab
 *(.stab)

.stabstr
 *(.stabstr)

.debug
 *(.debug)

.line
 *(.line)

.debug_srcinfo
 *(.debug_srcinfo)

.debug_sfnames
 *(.debug_sfnames)

.debug_aranges  0x00000000     0x15d0
 *(.debug_aranges)
 .debug_aranges
                0x00000000       0xc0 c:\Users\fx\Upwork\weather-node\output\sketch\weatherSIM808.ino.cpp.o
 .debug_aranges
                0x000000c0       0x20 c:\Users\fx\Upwork\weather-node\output\libraries\FreeRTOS821\MapleFreeRTOS821.cpp.o
 .debug_aranges
                0x000000e0       0x18 c:\Users\fx\Upwork\weather-node\output\libraries\FreeRTOS821\utility\croutine.c.o
 .debug_aranges
                0x000000f8       0x68 c:\Users\fx\Upwork\weather-node\output\libraries\FreeRTOS821\utility\event_groups.c.o
 .debug_aranges
                0x00000160       0x38 c:\Users\fx\Upwork\weather-node\output\libraries\FreeRTOS821\utility\heap_1.c.o
 .debug_aranges
                0x00000198       0x40 c:\Users\fx\Upwork\weather-node\output\libraries\FreeRTOS821\utility\list.c.o
 .debug_aranges
                0x000001d8       0x88 c:\Users\fx\Upwork\weather-node\output\libraries\FreeRTOS821\utility\port.c.o
 .debug_aranges
                0x00000260       0xd8 c:\Users\fx\Upwork\weather-node\output\libraries\FreeRTOS821\utility\queue.c.o
 .debug_aranges
                0x00000338      0x178 c:\Users\fx\Upwork\weather-node\output\libraries\FreeRTOS821\utility\tasks.c.o
 .debug_aranges
                0x000004b0       0x18 c:\Users\fx\Upwork\weather-node\output\libraries\FreeRTOS821\utility\timers.c.o
 .debug_aranges
                0x000004c8       0x68 c:\Users\fx\Upwork\weather-node\output\libraries\DHT_sensor_library\DHT.cpp.o
 .debug_aranges
                0x00000530       0xa0 c:\Users\fx\Upwork\weather-node\output\libraries\DHT_sensor_library\DHT_U.cpp.o
 .debug_aranges
                0x000005d0       0x20 c:\Users\fx\Upwork\weather-node\output\libraries\Adafruit_Unified_Sensor\Adafruit_Sensor.cpp.o
 .debug_aranges
                0x000005f0       0x28 c:\Users\fx\Upwork\weather-node\output\core\board.cpp.o
 .debug_aranges
                0x00000618       0x40 c:\Users\fx\Upwork\weather-node\output\core\wirish\boards.cpp.o
 .debug_aranges
                0x00000658       0x40 c:\Users\fx\Upwork\weather-node\output\core\wirish\boards_setup.cpp.o
 .debug_aranges
                0x00000698       0x20 c:\Users\fx\Upwork\weather-node\output\core\wirish\start.S.o
 .debug_aranges
                0x000006b8       0x20 c:\Users\fx\Upwork\weather-node\output\core\wirish\start_c.c.o
 .debug_aranges
                0x000006d8       0x88 c:\Users\fx\Upwork\weather-node\output\core\wirish\syscalls.c.o
 .debug_aranges
                0x00000760       0x70 c:\Users\fx\Upwork\weather-node\output\core\core.a(HardwareSerial.cpp.o)
 .debug_aranges
                0x000007d0      0x110 c:\Users\fx\Upwork\weather-node\output\core\core.a(Print.cpp.o)
 .debug_aranges
                0x000008e0       0x28 c:\Users\fx\Upwork\weather-node\output\core\core.a(cxxabi-compat.cpp.o)
 .debug_aranges
                0x00000908       0x38 c:\Users\fx\Upwork\weather-node\output\core\core.a(adc.c.o)
 .debug_aranges
                0x00000940       0x58 c:\Users\fx\Upwork\weather-node\output\core\core.a(adc_f1.c.o)
 .debug_aranges
                0x00000998       0xb0 c:\Users\fx\Upwork\weather-node\output\core\core.a(dma_f1.c.o)
 .debug_aranges
                0x00000a48       0x20 c:\Users\fx\Upwork\weather-node\output\core\core.a(exc.S.o)
 .debug_aranges
                0x00000a68       0x80 c:\Users\fx\Upwork\weather-node\output\core\core.a(exti.c.o)
 .debug_aranges
                0x00000ae8       0x20 c:\Users\fx\Upwork\weather-node\output\core\core.a(exti_f1.c.o)
 .debug_aranges
                0x00000b08       0x20 c:\Users\fx\Upwork\weather-node\output\core\core.a(flash.c.o)
 .debug_aranges
                0x00000b28       0x48 c:\Users\fx\Upwork\weather-node\output\core\core.a(gpio_f1.c.o)
 .debug_aranges
                0x00000b70       0x50 c:\Users\fx\Upwork\weather-node\output\core\core.a(i2c_f1.c.o)
 .debug_aranges
                0x00000bc0       0x38 c:\Users\fx\Upwork\weather-node\output\core\core.a(nvic.c.o)
 .debug_aranges
                0x00000bf8       0x48 c:\Users\fx\Upwork\weather-node\output\core\core.a(rcc.c.o)
 .debug_aranges
                0x00000c40       0x48 c:\Users\fx\Upwork\weather-node\output\core\core.a(rcc_f1.c.o)
 .debug_aranges
                0x00000c88       0x20 c:\Users\fx\Upwork\weather-node\output\core\core.a(isrs.S.o)
 .debug_aranges
                0x00000ca8       0x40 c:\Users\fx\Upwork\weather-node\output\core\core.a(systick.c.o)
 .debug_aranges
                0x00000ce8       0xb0 c:\Users\fx\Upwork\weather-node\output\core\core.a(timer.c.o)
 .debug_aranges
                0x00000d98       0x48 c:\Users\fx\Upwork\weather-node\output\core\core.a(usart.c.o)
 .debug_aranges
                0x00000de0       0x50 c:\Users\fx\Upwork\weather-node\output\core\core.a(usart_f1.c.o)
 .debug_aranges
                0x00000e30       0x20 c:\Users\fx\Upwork\weather-node\output\core\core.a(usart_private.c.o)
 .debug_aranges
                0x00000e50       0x38 c:\Users\fx\Upwork\weather-node\output\core\core.a(usb.c.o)
 .debug_aranges
                0x00000e88      0x128 c:\Users\fx\Upwork\weather-node\output\core\core.a(usb_cdcacm.c.o)
 .debug_aranges
                0x00000fb0       0x20 c:\Users\fx\Upwork\weather-node\output\core\core.a(usb_reg_map.c.o)
 .debug_aranges
                0x00000fd0       0x98 c:\Users\fx\Upwork\weather-node\output\core\core.a(usb_core.c.o)
 .debug_aranges
                0x00001068       0x20 c:\Users\fx\Upwork\weather-node\output\core\core.a(usb_init.c.o)
 .debug_aranges
                0x00001088       0x28 c:\Users\fx\Upwork\weather-node\output\core\core.a(usb_mem.c.o)
 .debug_aranges
                0x000010b0      0x1f0 c:\Users\fx\Upwork\weather-node\output\core\core.a(usb_regs.c.o)
 .debug_aranges
                0x000012a0       0x50 c:\Users\fx\Upwork\weather-node\output\core\core.a(util.c.o)
 .debug_aranges
                0x000012f0       0x28 c:\Users\fx\Upwork\weather-node\output\core\core.a(main.cpp.o)
 .debug_aranges
                0x00001318       0x38 c:\Users\fx\Upwork\weather-node\output\core\core.a(new.cpp.o)
 .debug_aranges
                0x00001350       0x20 c:\Users\fx\Upwork\weather-node\output\core\core.a(wirish_digital_f1.cpp.o)
 .debug_aranges
                0x00001370       0xd8 c:\Users\fx\Upwork\weather-node\output\core\core.a(usb_serial.cpp.o)
 .debug_aranges
                0x00001448       0x28 c:\Users\fx\Upwork\weather-node\output\core\core.a(wirish_digital.cpp.o)
 .debug_aranges
                0x00001470       0x30 c:\Users\fx\Upwork\weather-node\output\core\core.a(wirish_time.cpp.o)
 .debug_aranges
                0x000014a0       0x20 c:\Users\fx\Upwork\weather-node\output\core\core.a(hooks.c.o)
 .debug_aranges
                0x000014c0       0x40 c:\Users\fx\Upwork\weather-node\output\core\core.a(bkp_f1.c.o)
 .debug_aranges
                0x00001500       0x28 c:\Users\fx\Upwork\weather-node\output\core\core.a(dma.c.o)
 .debug_aranges
                0x00001528       0x20 c:\Users\fx\Upwork\weather-node\output\core\core.a(gpio.c.o)
 .debug_aranges
                0x00001548       0x88 c:\Users\fx\Upwork\weather-node\output\core\core.a(i2c.c.o)

.debug_pubnames
 *(.debug_pubnames)

.debug_info     0x00000000    0x287ec
 *(.debug_info .gnu.linkonce.wi.*)
 .debug_info    0x00000000     0x17dc c:\Users\fx\Upwork\weather-node\output\sketch\weatherSIM808.ino.cpp.o
 .debug_info    0x000017dc      0x16b c:\Users\fx\Upwork\weather-node\output\libraries\FreeRTOS821\MapleFreeRTOS821.cpp.o
 .debug_info    0x00001947       0x75 c:\Users\fx\Upwork\weather-node\output\libraries\FreeRTOS821\utility\croutine.c.o
 .debug_info    0x000019bc      0x951 c:\Users\fx\Upwork\weather-node\output\libraries\FreeRTOS821\utility\event_groups.c.o
 .debug_info    0x0000230d      0x1b1 c:\Users\fx\Upwork\weather-node\output\libraries\FreeRTOS821\utility\heap_1.c.o
 .debug_info    0x000024be      0x29b c:\Users\fx\Upwork\weather-node\output\libraries\FreeRTOS821\utility\list.c.o
 .debug_info    0x00002759      0x305 c:\Users\fx\Upwork\weather-node\output\libraries\FreeRTOS821\utility\port.c.o
 .debug_info    0x00002a5e     0x129d c:\Users\fx\Upwork\weather-node\output\libraries\FreeRTOS821\utility\queue.c.o
 .debug_info    0x00003cfb     0x21cd c:\Users\fx\Upwork\weather-node\output\libraries\FreeRTOS821\utility\tasks.c.o
 .debug_info    0x00005ec8       0x75 c:\Users\fx\Upwork\weather-node\output\libraries\FreeRTOS821\utility\timers.c.o
 .debug_info    0x00005f3d      0xb60 c:\Users\fx\Upwork\weather-node\output\libraries\DHT_sensor_library\DHT.cpp.o
 .debug_info    0x00006a9d     0x1270 c:\Users\fx\Upwork\weather-node\output\libraries\DHT_sensor_library\DHT_U.cpp.o
 .debug_info    0x00007d0d      0x8eb c:\Users\fx\Upwork\weather-node\output\libraries\Adafruit_Unified_Sensor\Adafruit_Sensor.cpp.o
 .debug_info    0x000085f8      0xf2e c:\Users\fx\Upwork\weather-node\output\core\board.cpp.o
 .debug_info    0x00009526     0x142b c:\Users\fx\Upwork\weather-node\output\core\wirish\boards.cpp.o
 .debug_info    0x0000a951     0x10c7 c:\Users\fx\Upwork\weather-node\output\core\wirish\boards_setup.cpp.o
 .debug_info    0x0000ba18       0xf1 c:\Users\fx\Upwork\weather-node\output\core\wirish\start.S.o
 .debug_info    0x0000bb09      0x14d c:\Users\fx\Upwork\weather-node\output\core\wirish\start_c.c.o
 .debug_info    0x0000bc56      0x5cd c:\Users\fx\Upwork\weather-node\output\core\wirish\syscalls.c.o
 .debug_info    0x0000c223     0x29ea c:\Users\fx\Upwork\weather-node\output\core\core.a(HardwareSerial.cpp.o)
 .debug_info    0x0000ec0d     0x258c c:\Users\fx\Upwork\weather-node\output\core\core.a(Print.cpp.o)
 .debug_info    0x00011199      0x526 c:\Users\fx\Upwork\weather-node\output\core\core.a(cxxabi-compat.cpp.o)
 .debug_info    0x000116bf      0x79a c:\Users\fx\Upwork\weather-node\output\core\core.a(adc.c.o)
 .debug_info    0x00011e59      0xe4a c:\Users\fx\Upwork\weather-node\output\core\core.a(adc_f1.c.o)
 .debug_info    0x00012ca3     0x18b1 c:\Users\fx\Upwork\weather-node\output\core\core.a(dma_f1.c.o)
 .debug_info    0x00014554       0xe1 c:\Users\fx\Upwork\weather-node\output\core\core.a(exc.S.o)
 .debug_info    0x00014635      0xd3c c:\Users\fx\Upwork\weather-node\output\core\core.a(exti.c.o)
 .debug_info    0x00015371      0x213 c:\Users\fx\Upwork\weather-node\output\core\core.a(exti_f1.c.o)
 .debug_info    0x00015584      0x128 c:\Users\fx\Upwork\weather-node\output\core\core.a(flash.c.o)
 .debug_info    0x000156ac      0x715 c:\Users\fx\Upwork\weather-node\output\core\core.a(gpio_f1.c.o)
 .debug_info    0x00015dc1      0xc25 c:\Users\fx\Upwork\weather-node\output\core\core.a(i2c_f1.c.o)
 .debug_info    0x000169e6      0x5a2 c:\Users\fx\Upwork\weather-node\output\core\core.a(nvic.c.o)
 .debug_info    0x00016f88      0x556 c:\Users\fx\Upwork\weather-node\output\core\core.a(rcc.c.o)
 .debug_info    0x000174de      0xb64 c:\Users\fx\Upwork\weather-node\output\core\core.a(rcc_f1.c.o)
 .debug_info    0x00018042       0xf6 c:\Users\fx\Upwork\weather-node\output\core\core.a(isrs.S.o)
 .debug_info    0x00018138      0x182 c:\Users\fx\Upwork\weather-node\output\core\core.a(systick.c.o)
 .debug_info    0x000182ba     0x197d c:\Users\fx\Upwork\weather-node\output\core\core.a(timer.c.o)
 .debug_info    0x00019c37      0xc32 c:\Users\fx\Upwork\weather-node\output\core\core.a(usart.c.o)
 .debug_info    0x0001a869      0xb89 c:\Users\fx\Upwork\weather-node\output\core\core.a(usart_f1.c.o)
 .debug_info    0x0001b3f2      0x595 c:\Users\fx\Upwork\weather-node\output\core\core.a(usart_private.c.o)
 .debug_info    0x0001b987      0xd16 c:\Users\fx\Upwork\weather-node\output\core\core.a(usb.c.o)
 .debug_info    0x0001c69d     0x22d2 c:\Users\fx\Upwork\weather-node\output\core\core.a(usb_cdcacm.c.o)
 .debug_info    0x0001e96f      0x26c c:\Users\fx\Upwork\weather-node\output\core\core.a(usb_reg_map.c.o)
 .debug_info    0x0001ebdb      0xddf c:\Users\fx\Upwork\weather-node\output\core\core.a(usb_core.c.o)
 .debug_info    0x0001f9ba      0x3ed c:\Users\fx\Upwork\weather-node\output\core\core.a(usb_init.c.o)
 .debug_info    0x0001fda7      0x183 c:\Users\fx\Upwork\weather-node\output\core\core.a(usb_mem.c.o)
 .debug_info    0x0001ff2a      0xc88 c:\Users\fx\Upwork\weather-node\output\core\core.a(usb_regs.c.o)
 .debug_info    0x00020bb2      0xad2 c:\Users\fx\Upwork\weather-node\output\core\core.a(util.c.o)
 .debug_info    0x00021684       0x99 c:\Users\fx\Upwork\weather-node\output\core\core.a(main.cpp.o)
 .debug_info    0x0002171d      0x1a1 c:\Users\fx\Upwork\weather-node\output\core\core.a(new.cpp.o)
 .debug_info    0x000218be      0xc8a c:\Users\fx\Upwork\weather-node\output\core\core.a(wirish_digital_f1.cpp.o)
 .debug_info    0x00022548     0x2afa c:\Users\fx\Upwork\weather-node\output\core\core.a(usb_serial.cpp.o)
 .debug_info    0x00025042      0xb0b c:\Users\fx\Upwork\weather-node\output\core\core.a(wirish_digital.cpp.o)
 .debug_info    0x00025b4d      0x2c6 c:\Users\fx\Upwork\weather-node\output\core\core.a(wirish_time.cpp.o)
 .debug_info    0x00025e13       0x33 c:\Users\fx\Upwork\weather-node\output\core\core.a(hooks.c.o)
 .debug_info    0x00025e46      0x4ca c:\Users\fx\Upwork\weather-node\output\core\core.a(bkp_f1.c.o)
 .debug_info    0x00026310      0x6f7 c:\Users\fx\Upwork\weather-node\output\core\core.a(dma.c.o)
 .debug_info    0x00026a07      0x313 c:\Users\fx\Upwork\weather-node\output\core\core.a(gpio.c.o)
 .debug_info    0x00026d1a     0x1ad2 c:\Users\fx\Upwork\weather-node\output\core\core.a(i2c.c.o)

.debug_abbrev   0x00000000     0x7f3c
 *(.debug_abbrev)
 .debug_abbrev  0x00000000      0x478 c:\Users\fx\Upwork\weather-node\output\sketch\weatherSIM808.ino.cpp.o
 .debug_abbrev  0x00000478       0xb2 c:\Users\fx\Upwork\weather-node\output\libraries\FreeRTOS821\MapleFreeRTOS821.cpp.o
 .debug_abbrev  0x0000052a       0x24 c:\Users\fx\Upwork\weather-node\output\libraries\FreeRTOS821\utility\croutine.c.o
 .debug_abbrev  0x0000054e      0x28b c:\Users\fx\Upwork\weather-node\output\libraries\FreeRTOS821\utility\event_groups.c.o
 .debug_abbrev  0x000007d9      0x12a c:\Users\fx\Upwork\weather-node\output\libraries\FreeRTOS821\utility\heap_1.c.o
 .debug_abbrev  0x00000903       0xda c:\Users\fx\Upwork\weather-node\output\libraries\FreeRTOS821\utility\list.c.o
 .debug_abbrev  0x000009dd      0x1e0 c:\Users\fx\Upwork\weather-node\output\libraries\FreeRTOS821\utility\port.c.o
 .debug_abbrev  0x00000bbd      0x2aa c:\Users\fx\Upwork\weather-node\output\libraries\FreeRTOS821\utility\queue.c.o
 .debug_abbrev  0x00000e67      0x386 c:\Users\fx\Upwork\weather-node\output\libraries\FreeRTOS821\utility\tasks.c.o
 .debug_abbrev  0x000011ed       0x24 c:\Users\fx\Upwork\weather-node\output\libraries\FreeRTOS821\utility\timers.c.o
 .debug_abbrev  0x00001211      0x428 c:\Users\fx\Upwork\weather-node\output\libraries\DHT_sensor_library\DHT.cpp.o
 .debug_abbrev  0x00001639      0x467 c:\Users\fx\Upwork\weather-node\output\libraries\DHT_sensor_library\DHT_U.cpp.o
 .debug_abbrev  0x00001aa0      0x2e5 c:\Users\fx\Upwork\weather-node\output\libraries\Adafruit_Unified_Sensor\Adafruit_Sensor.cpp.o
 .debug_abbrev  0x00001d85      0x1ea c:\Users\fx\Upwork\weather-node\output\core\board.cpp.o
 .debug_abbrev  0x00001f6f      0x3dd c:\Users\fx\Upwork\weather-node\output\core\wirish\boards.cpp.o
 .debug_abbrev  0x0000234c      0x2af c:\Users\fx\Upwork\weather-node\output\core\wirish\boards_setup.cpp.o
 .debug_abbrev  0x000025fb       0x14 c:\Users\fx\Upwork\weather-node\output\core\wirish\start.S.o
 .debug_abbrev  0x0000260f       0xfd c:\Users\fx\Upwork\weather-node\output\core\wirish\start_c.c.o
 .debug_abbrev  0x0000270c      0x17e c:\Users\fx\Upwork\weather-node\output\core\wirish\syscalls.c.o
 .debug_abbrev  0x0000288a      0x535 c:\Users\fx\Upwork\weather-node\output\core\core.a(HardwareSerial.cpp.o)
 .debug_abbrev  0x00002dbf      0x414 c:\Users\fx\Upwork\weather-node\output\core\core.a(Print.cpp.o)
 .debug_abbrev  0x000031d3      0x163 c:\Users\fx\Upwork\weather-node\output\core\core.a(cxxabi-compat.cpp.o)
 .debug_abbrev  0x00003336      0x20b c:\Users\fx\Upwork\weather-node\output\core\core.a(adc.c.o)
 .debug_abbrev  0x00003541      0x2e6 c:\Users\fx\Upwork\weather-node\output\core\core.a(adc_f1.c.o)
 .debug_abbrev  0x00003827      0x3e9 c:\Users\fx\Upwork\weather-node\output\core\core.a(dma_f1.c.o)
 .debug_abbrev  0x00003c10       0x14 c:\Users\fx\Upwork\weather-node\output\core\core.a(exc.S.o)
 .debug_abbrev  0x00003c24      0x286 c:\Users\fx\Upwork\weather-node\output\core\core.a(exti.c.o)
 .debug_abbrev  0x00003eaa       0xdb c:\Users\fx\Upwork\weather-node\output\core\core.a(exti_f1.c.o)
 .debug_abbrev  0x00003f85       0x9f c:\Users\fx\Upwork\weather-node\output\core\core.a(flash.c.o)
 .debug_abbrev  0x00004024      0x191 c:\Users\fx\Upwork\weather-node\output\core\core.a(gpio_f1.c.o)
 .debug_abbrev  0x000041b5      0x20b c:\Users\fx\Upwork\weather-node\output\core\core.a(i2c_f1.c.o)
 .debug_abbrev  0x000043c0      0x1ac c:\Users\fx\Upwork\weather-node\output\core\core.a(nvic.c.o)
 .debug_abbrev  0x0000456c      0x17f c:\Users\fx\Upwork\weather-node\output\core\core.a(rcc.c.o)
 .debug_abbrev  0x000046eb      0x28c c:\Users\fx\Upwork\weather-node\output\core\core.a(rcc_f1.c.o)
 .debug_abbrev  0x00004977       0x14 c:\Users\fx\Upwork\weather-node\output\core\core.a(isrs.S.o)
 .debug_abbrev  0x0000498b      0x10f c:\Users\fx\Upwork\weather-node\output\core\core.a(systick.c.o)
 .debug_abbrev  0x00004a9a      0x4c8 c:\Users\fx\Upwork\weather-node\output\core\core.a(timer.c.o)
 .debug_abbrev  0x00004f62      0x2ff c:\Users\fx\Upwork\weather-node\output\core\core.a(usart.c.o)
 .debug_abbrev  0x00005261      0x2ad c:\Users\fx\Upwork\weather-node\output\core\core.a(usart_f1.c.o)
 .debug_abbrev  0x0000550e      0x144 c:\Users\fx\Upwork\weather-node\output\core\core.a(usart_private.c.o)
 .debug_abbrev  0x00005652      0x352 c:\Users\fx\Upwork\weather-node\output\core\core.a(usb.c.o)
 .debug_abbrev  0x000059a4      0x47d c:\Users\fx\Upwork\weather-node\output\core\core.a(usb_cdcacm.c.o)
 .debug_abbrev  0x00005e21      0x193 c:\Users\fx\Upwork\weather-node\output\core\core.a(usb_reg_map.c.o)
 .debug_abbrev  0x00005fb4      0x3a6 c:\Users\fx\Upwork\weather-node\output\core\core.a(usb_core.c.o)
 .debug_abbrev  0x0000635a      0x101 c:\Users\fx\Upwork\weather-node\output\core\core.a(usb_init.c.o)
 .debug_abbrev  0x0000645b       0xa6 c:\Users\fx\Upwork\weather-node\output\core\core.a(usb_mem.c.o)
 .debug_abbrev  0x00006501      0x1f3 c:\Users\fx\Upwork\weather-node\output\core\core.a(usb_regs.c.o)
 .debug_abbrev  0x000066f4      0x2cb c:\Users\fx\Upwork\weather-node\output\core\core.a(util.c.o)
 .debug_abbrev  0x000069bf       0x7b c:\Users\fx\Upwork\weather-node\output\core\core.a(main.cpp.o)
 .debug_abbrev  0x00006a3a       0xda c:\Users\fx\Upwork\weather-node\output\core\core.a(new.cpp.o)
 .debug_abbrev  0x00006b14      0x240 c:\Users\fx\Upwork\weather-node\output\core\core.a(wirish_digital_f1.cpp.o)
 .debug_abbrev  0x00006d54      0x635 c:\Users\fx\Upwork\weather-node\output\core\core.a(usb_serial.cpp.o)
 .debug_abbrev  0x00007389      0x17e c:\Users\fx\Upwork\weather-node\output\core\core.a(wirish_digital.cpp.o)
 .debug_abbrev  0x00007507      0x189 c:\Users\fx\Upwork\weather-node\output\core\core.a(wirish_time.cpp.o)
 .debug_abbrev  0x00007690       0x26 c:\Users\fx\Upwork\weather-node\output\core\core.a(hooks.c.o)
 .debug_abbrev  0x000076b6      0x1c4 c:\Users\fx\Upwork\weather-node\output\core\core.a(bkp_f1.c.o)
 .debug_abbrev  0x0000787a      0x182 c:\Users\fx\Upwork\weather-node\output\core\core.a(dma.c.o)
 .debug_abbrev  0x000079fc      0x113 c:\Users\fx\Upwork\weather-node\output\core\core.a(gpio.c.o)
 .debug_abbrev  0x00007b0f      0x42d c:\Users\fx\Upwork\weather-node\output\core\core.a(i2c.c.o)

.debug_line     0x00000000     0xde7a
 *(.debug_line)
 .debug_line    0x00000000      0x7de c:\Users\fx\Upwork\weather-node\output\sketch\weatherSIM808.ino.cpp.o
 .debug_line    0x000007de      0x345 c:\Users\fx\Upwork\weather-node\output\libraries\FreeRTOS821\MapleFreeRTOS821.cpp.o
 .debug_line    0x00000b23       0x1d c:\Users\fx\Upwork\weather-node\output\libraries\FreeRTOS821\utility\croutine.c.o
 .debug_line    0x00000b40      0x3d8 c:\Users\fx\Upwork\weather-node\output\libraries\FreeRTOS821\utility\event_groups.c.o
 .debug_line    0x00000f18      0x2a7 c:\Users\fx\Upwork\weather-node\output\libraries\FreeRTOS821\utility\heap_1.c.o
 .debug_line    0x000011bf      0x23f c:\Users\fx\Upwork\weather-node\output\libraries\FreeRTOS821\utility\list.c.o
 .debug_line    0x000013fe      0x2e1 c:\Users\fx\Upwork\weather-node\output\libraries\FreeRTOS821\utility\port.c.o
 .debug_line    0x000016df      0x5c8 c:\Users\fx\Upwork\weather-node\output\libraries\FreeRTOS821\utility\queue.c.o
 .debug_line    0x00001ca7      0xa3f c:\Users\fx\Upwork\weather-node\output\libraries\FreeRTOS821\utility\tasks.c.o
 .debug_line    0x000026e6       0x1d c:\Users\fx\Upwork\weather-node\output\libraries\FreeRTOS821\utility\timers.c.o
 .debug_line    0x00002703      0x54d c:\Users\fx\Upwork\weather-node\output\libraries\DHT_sensor_library\DHT.cpp.o
 .debug_line    0x00002c50      0x603 c:\Users\fx\Upwork\weather-node\output\libraries\DHT_sensor_library\DHT_U.cpp.o
 .debug_line    0x00003253      0x3ef c:\Users\fx\Upwork\weather-node\output\libraries\Adafruit_Unified_Sensor\Adafruit_Sensor.cpp.o
 .debug_line    0x00003642      0x448 c:\Users\fx\Upwork\weather-node\output\core\board.cpp.o
 .debug_line    0x00003a8a      0x4c1 c:\Users\fx\Upwork\weather-node\output\core\wirish\boards.cpp.o
 .debug_line    0x00003f4b      0x4b2 c:\Users\fx\Upwork\weather-node\output\core\wirish\boards_setup.cpp.o
 .debug_line    0x000043fd       0xb3 c:\Users\fx\Upwork\weather-node\output\core\wirish\start.S.o
 .debug_line    0x000044b0       0xc1 c:\Users\fx\Upwork\weather-node\output\core\wirish\start_c.c.o
 .debug_line    0x00004571      0x303 c:\Users\fx\Upwork\weather-node\output\core\wirish\syscalls.c.o
 .debug_line    0x00004874      0x54e c:\Users\fx\Upwork\weather-node\output\core\core.a(HardwareSerial.cpp.o)
 .debug_line    0x00004dc2      0x5bd c:\Users\fx\Upwork\weather-node\output\core\core.a(Print.cpp.o)
 .debug_line    0x0000537f      0x262 c:\Users\fx\Upwork\weather-node\output\core\core.a(cxxabi-compat.cpp.o)
 .debug_line    0x000055e1      0x339 c:\Users\fx\Upwork\weather-node\output\core\core.a(adc.c.o)
 .debug_line    0x0000591a      0x3e5 c:\Users\fx\Upwork\weather-node\output\core\core.a(adc_f1.c.o)
 .debug_line    0x00005cff      0x669 c:\Users\fx\Upwork\weather-node\output\core\core.a(dma_f1.c.o)
 .debug_line    0x00006368       0xb6 c:\Users\fx\Upwork\weather-node\output\core\core.a(exc.S.o)
 .debug_line    0x0000641e      0x412 c:\Users\fx\Upwork\weather-node\output\core\core.a(exti.c.o)
 .debug_line    0x00006830      0x33a c:\Users\fx\Upwork\weather-node\output\core\core.a(exti_f1.c.o)
 .debug_line    0x00006b6a      0x2bb c:\Users\fx\Upwork\weather-node\output\core\core.a(flash.c.o)
 .debug_line    0x00006e25      0x364 c:\Users\fx\Upwork\weather-node\output\core\core.a(gpio_f1.c.o)
 .debug_line    0x00007189      0x447 c:\Users\fx\Upwork\weather-node\output\core\core.a(i2c_f1.c.o)
 .debug_line    0x000075d0      0x323 c:\Users\fx\Upwork\weather-node\output\core\core.a(nvic.c.o)
 .debug_line    0x000078f3      0x3bb c:\Users\fx\Upwork\weather-node\output\core\core.a(rcc.c.o)
 .debug_line    0x00007cae      0x408 c:\Users\fx\Upwork\weather-node\output\core\core.a(rcc_f1.c.o)
 .debug_line    0x000080b6       0xb3 c:\Users\fx\Upwork\weather-node\output\core\core.a(isrs.S.o)
 .debug_line    0x00008169      0x28e c:\Users\fx\Upwork\weather-node\output\core\core.a(systick.c.o)
 .debug_line    0x000083f7      0x61b c:\Users\fx\Upwork\weather-node\output\core\core.a(timer.c.o)
 .debug_line    0x00008a12      0x451 c:\Users\fx\Upwork\weather-node\output\core\core.a(usart.c.o)
 .debug_line    0x00008e63      0x458 c:\Users\fx\Upwork\weather-node\output\core\core.a(usart_f1.c.o)
 .debug_line    0x000092bb      0x2f7 c:\Users\fx\Upwork\weather-node\output\core\core.a(usart_private.c.o)
 .debug_line    0x000095b2      0x52d c:\Users\fx\Upwork\weather-node\output\core\core.a(usb.c.o)
 .debug_line    0x00009adf      0x93b c:\Users\fx\Upwork\weather-node\output\core\core.a(usb_cdcacm.c.o)
 .debug_line    0x0000a41a      0x2ee c:\Users\fx\Upwork\weather-node\output\core\core.a(usb_reg_map.c.o)
 .debug_line    0x0000a708      0x42f c:\Users\fx\Upwork\weather-node\output\core\core.a(usb_core.c.o)
 .debug_line    0x0000ab37      0x144 c:\Users\fx\Upwork\weather-node\output\core\core.a(usb_init.c.o)
 .debug_line    0x0000ac7b      0x17e c:\Users\fx\Upwork\weather-node\output\core\core.a(usb_mem.c.o)
 .debug_line    0x0000adf9      0x5a8 c:\Users\fx\Upwork\weather-node\output\core\core.a(usb_regs.c.o)
 .debug_line    0x0000b3a1      0x3bf c:\Users\fx\Upwork\weather-node\output\core\core.a(util.c.o)
 .debug_line    0x0000b760       0xae c:\Users\fx\Upwork\weather-node\output\core\core.a(main.cpp.o)
 .debug_line    0x0000b80e      0x1ce c:\Users\fx\Upwork\weather-node\output\core\core.a(new.cpp.o)
 .debug_line    0x0000b9dc      0x3e8 c:\Users\fx\Upwork\weather-node\output\core\core.a(wirish_digital_f1.cpp.o)
 .debug_line    0x0000bdc4      0x6be c:\Users\fx\Upwork\weather-node\output\core\core.a(usb_serial.cpp.o)
 .debug_line    0x0000c482      0x36d c:\Users\fx\Upwork\weather-node\output\core\core.a(wirish_digital.cpp.o)
 .debug_line    0x0000c7ef      0x351 c:\Users\fx\Upwork\weather-node\output\core\core.a(wirish_time.cpp.o)
 .debug_line    0x0000cb40       0x97 c:\Users\fx\Upwork\weather-node\output\core\core.a(hooks.c.o)
 .debug_line    0x0000cbd7      0x335 c:\Users\fx\Upwork\weather-node\output\core\core.a(bkp_f1.c.o)
 .debug_line    0x0000cf0c      0x384 c:\Users\fx\Upwork\weather-node\output\core\core.a(dma.c.o)
 .debug_line    0x0000d290      0x2e0 c:\Users\fx\Upwork\weather-node\output\core\core.a(gpio.c.o)
 .debug_line    0x0000d570      0x90a c:\Users\fx\Upwork\weather-node\output\core\core.a(i2c.c.o)

.debug_frame    0x00000000     0x3a2c
 *(.debug_frame)
 .debug_frame   0x00000000      0x230 c:\Users\fx\Upwork\weather-node\output\sketch\weatherSIM808.ino.cpp.o
 .debug_frame   0x00000230       0x20 c:\Users\fx\Upwork\weather-node\output\libraries\FreeRTOS821\MapleFreeRTOS821.cpp.o
 .debug_frame   0x00000250      0x108 c:\Users\fx\Upwork\weather-node\output\libraries\FreeRTOS821\utility\event_groups.c.o
 .debug_frame   0x00000358       0x5c c:\Users\fx\Upwork\weather-node\output\libraries\FreeRTOS821\utility\heap_1.c.o
 .debug_frame   0x000003b4       0x6c c:\Users\fx\Upwork\weather-node\output\libraries\FreeRTOS821\utility\list.c.o
 .debug_frame   0x00000420      0x110 c:\Users\fx\Upwork\weather-node\output\libraries\FreeRTOS821\utility\port.c.o
 .debug_frame   0x00000530      0x274 c:\Users\fx\Upwork\weather-node\output\libraries\FreeRTOS821\utility\queue.c.o
 .debug_frame   0x000007a4      0x478 c:\Users\fx\Upwork\weather-node\output\libraries\FreeRTOS821\utility\tasks.c.o
 .debug_frame   0x00000c1c      0x128 c:\Users\fx\Upwork\weather-node\output\libraries\DHT_sensor_library\DHT.cpp.o
 .debug_frame   0x00000d44      0x18c c:\Users\fx\Upwork\weather-node\output\libraries\DHT_sensor_library\DHT_U.cpp.o
 .debug_frame   0x00000ed0       0x2c c:\Users\fx\Upwork\weather-node\output\libraries\Adafruit_Unified_Sensor\Adafruit_Sensor.cpp.o
 .debug_frame   0x00000efc       0x38 c:\Users\fx\Upwork\weather-node\output\core\board.cpp.o
 .debug_frame   0x00000f34       0x84 c:\Users\fx\Upwork\weather-node\output\core\wirish\boards.cpp.o
 .debug_frame   0x00000fb8       0x74 c:\Users\fx\Upwork\weather-node\output\core\wirish\boards_setup.cpp.o
 .debug_frame   0x0000102c       0x28 c:\Users\fx\Upwork\weather-node\output\core\wirish\start_c.c.o
 .debug_frame   0x00001054      0x130 c:\Users\fx\Upwork\weather-node\output\core\wirish\syscalls.c.o
 .debug_frame   0x00001184      0x10c c:\Users\fx\Upwork\weather-node\output\core\core.a(HardwareSerial.cpp.o)
 .debug_frame   0x00001290      0x378 c:\Users\fx\Upwork\weather-node\output\core\core.a(Print.cpp.o)
 .debug_frame   0x00001608       0x38 c:\Users\fx\Upwork\weather-node\output\core\core.a(cxxabi-compat.cpp.o)
 .debug_frame   0x00001640       0x64 c:\Users\fx\Upwork\weather-node\output\core\core.a(adc.c.o)
 .debug_frame   0x000016a4       0xb4 c:\Users\fx\Upwork\weather-node\output\core\core.a(adc_f1.c.o)
 .debug_frame   0x00001758      0x190 c:\Users\fx\Upwork\weather-node\output\core\core.a(dma_f1.c.o)
 .debug_frame   0x000018e8      0x11c c:\Users\fx\Upwork\weather-node\output\core\core.a(exti.c.o)
 .debug_frame   0x00001a04       0x20 c:\Users\fx\Upwork\weather-node\output\core\core.a(exti_f1.c.o)
 .debug_frame   0x00001a24       0x20 c:\Users\fx\Upwork\weather-node\output\core\core.a(flash.c.o)
 .debug_frame   0x00001a44       0x8c c:\Users\fx\Upwork\weather-node\output\core\core.a(gpio_f1.c.o)
 .debug_frame   0x00001ad0       0x94 c:\Users\fx\Upwork\weather-node\output\core\core.a(i2c_f1.c.o)
 .debug_frame   0x00001b64       0x5c c:\Users\fx\Upwork\weather-node\output\core\core.a(nvic.c.o)
 .debug_frame   0x00001bc0       0x70 c:\Users\fx\Upwork\weather-node\output\core\core.a(rcc.c.o)
 .debug_frame   0x00001c30       0x98 c:\Users\fx\Upwork\weather-node\output\core\core.a(rcc_f1.c.o)
 .debug_frame   0x00001cc8       0x68 c:\Users\fx\Upwork\weather-node\output\core\core.a(systick.c.o)
 .debug_frame   0x00001d30      0x1c0 c:\Users\fx\Upwork\weather-node\output\core\core.a(timer.c.o)
 .debug_frame   0x00001ef0       0xb4 c:\Users\fx\Upwork\weather-node\output\core\core.a(usart.c.o)
 .debug_frame   0x00001fa4       0xac c:\Users\fx\Upwork\weather-node\output\core\core.a(usart_f1.c.o)
 .debug_frame   0x00002050       0x28 c:\Users\fx\Upwork\weather-node\output\core\core.a(usart_private.c.o)
 .debug_frame   0x00002078       0x6c c:\Users\fx\Upwork\weather-node\output\core\core.a(usb.c.o)
 .debug_frame   0x000020e4      0x2cc c:\Users\fx\Upwork\weather-node\output\core\core.a(usb_cdcacm.c.o)
 .debug_frame   0x000023b0       0x20 c:\Users\fx\Upwork\weather-node\output\core\core.a(usb_reg_map.c.o)
 .debug_frame   0x000023d0      0x1ac c:\Users\fx\Upwork\weather-node\output\core\core.a(usb_core.c.o)
 .debug_frame   0x0000257c       0x28 c:\Users\fx\Upwork\weather-node\output\core\core.a(usb_init.c.o)
 .debug_frame   0x000025a4       0x4c c:\Users\fx\Upwork\weather-node\output\core\core.a(usb_mem.c.o)
 .debug_frame   0x000025f0      0x3d0 c:\Users\fx\Upwork\weather-node\output\core\core.a(usb_regs.c.o)
 .debug_frame   0x000029c0       0xc8 c:\Users\fx\Upwork\weather-node\output\core\core.a(util.c.o)
 .debug_frame   0x00002a88       0x38 c:\Users\fx\Upwork\weather-node\output\core\core.a(main.cpp.o)
 .debug_frame   0x00002ac0       0x50 c:\Users\fx\Upwork\weather-node\output\core\core.a(new.cpp.o)
 .debug_frame   0x00002b10       0x2c c:\Users\fx\Upwork\weather-node\output\core\core.a(wirish_digital_f1.cpp.o)
 .debug_frame   0x00002b3c      0x244 c:\Users\fx\Upwork\weather-node\output\core\core.a(usb_serial.cpp.o)
 .debug_frame   0x00002d80       0x30 c:\Users\fx\Upwork\weather-node\output\core\core.a(wirish_digital.cpp.o)
 .debug_frame   0x00002db0       0x4c c:\Users\fx\Upwork\weather-node\output\core\core.a(wirish_time.cpp.o)
 .debug_frame   0x00002dfc       0x20 c:\Users\fx\Upwork\weather-node\output\core\core.a(hooks.c.o)
 .debug_frame   0x00002e1c       0x68 c:\Users\fx\Upwork\weather-node\output\core\core.a(bkp_f1.c.o)
 .debug_frame   0x00002e84       0x30 c:\Users\fx\Upwork\weather-node\output\core\core.a(dma.c.o)
 .debug_frame   0x00002eb4       0x28 c:\Users\fx\Upwork\weather-node\output\core\core.a(gpio.c.o)
 .debug_frame   0x00002edc      0x14c c:\Users\fx\Upwork\weather-node\output\core\core.a(i2c.c.o)
 .debug_frame   0x00003028       0x38 c:/users/fx/appdata/local/arduino15/packages/arduino/tools/arm-none-eabi-gcc/4.8.3-2014q1/bin/../lib/gcc/arm-none-eabi/4.8.3/../../../../arm-none-eabi/lib/armv7-m\libm.a(lib_a-w_sqrt.o)
 .debug_frame   0x00003060       0x34 c:/users/fx/appdata/local/arduino15/packages/arduino/tools/arm-none-eabi-gcc/4.8.3-2014q1/bin/../lib/gcc/arm-none-eabi/4.8.3/../../../../arm-none-eabi/lib/armv7-m\libm.a(lib_a-e_sqrt.o)
 .debug_frame   0x00003094       0x28 c:/users/fx/appdata/local/arduino15/packages/arduino/tools/arm-none-eabi-gcc/4.8.3-2014q1/bin/../lib/gcc/arm-none-eabi/4.8.3/../../../../arm-none-eabi/lib/armv7-m\libm.a(lib_a-s_fpclassify.o)
 .debug_frame   0x000030bc       0x20 c:/users/fx/appdata/local/arduino15/packages/arduino/tools/arm-none-eabi-gcc/4.8.3-2014q1/bin/../lib/gcc/arm-none-eabi/4.8.3/../../../../arm-none-eabi/lib/armv7-m\libm.a(lib_a-s_matherr.o)
 .debug_frame   0x000030dc       0x2c c:/users/fx/appdata/local/arduino15/packages/arduino/tools/arm-none-eabi-gcc/4.8.3-2014q1/bin/../lib/gcc/arm-none-eabi/4.8.3/armv7-m\libgcc.a(_fixdfdi.o)
 .debug_frame   0x00003108       0x2c c:/users/fx/appdata/local/arduino15/packages/arduino/tools/arm-none-eabi-gcc/4.8.3-2014q1/bin/../lib/gcc/arm-none-eabi/4.8.3/armv7-m\libgcc.a(_fixunsdfdi.o)
 .debug_frame   0x00003134       0x58 c:/users/fx/appdata/local/arduino15/packages/arduino/tools/arm-none-eabi-gcc/4.8.3-2014q1/bin/../lib/gcc/arm-none-eabi/4.8.3/armv7-m\libgcc.a(bpabi.o)
 .debug_frame   0x0000318c       0x34 c:/users/fx/appdata/local/arduino15/packages/arduino/tools/arm-none-eabi-gcc/4.8.3-2014q1/bin/../lib/gcc/arm-none-eabi/4.8.3/armv7-m\libgcc.a(_divdi3.o)
 .debug_frame   0x000031c0       0x34 c:/users/fx/appdata/local/arduino15/packages/arduino/tools/arm-none-eabi-gcc/4.8.3-2014q1/bin/../lib/gcc/arm-none-eabi/4.8.3/armv7-m\libgcc.a(_udivdi3.o)
 .debug_frame   0x000031f4       0x20 c:/users/fx/appdata/local/arduino15/packages/arduino/tools/arm-none-eabi-gcc/4.8.3-2014q1/bin/../lib/gcc/arm-none-eabi/4.8.3/../../../../arm-none-eabi/lib/armv7-m\libc.a(lib_a-errno.o)
 .debug_frame   0x00003214       0x28 c:/users/fx/appdata/local/arduino15/packages/arduino/tools/arm-none-eabi-gcc/4.8.3-2014q1/bin/../lib/gcc/arm-none-eabi/4.8.3/../../../../arm-none-eabi/lib/armv7-m\libc.a(lib_a-exit.o)
 .debug_frame   0x0000323c       0x2c c:/users/fx/appdata/local/arduino15/packages/arduino/tools/arm-none-eabi-gcc/4.8.3-2014q1/bin/../lib/gcc/arm-none-eabi/4.8.3/../../../../arm-none-eabi/lib/armv7-m\libc.a(lib_a-init.o)
 .debug_frame   0x00003268       0x30 c:/users/fx/appdata/local/arduino15/packages/arduino/tools/arm-none-eabi-gcc/4.8.3-2014q1/bin/../lib/gcc/arm-none-eabi/4.8.3/../../../../arm-none-eabi/lib/armv7-m\libc.a(lib_a-malloc.o)
 .debug_frame   0x00003298       0x38 c:/users/fx/appdata/local/arduino15/packages/arduino/tools/arm-none-eabi-gcc/4.8.3-2014q1/bin/../lib/gcc/arm-none-eabi/4.8.3/../../../../arm-none-eabi/lib/armv7-m\libc.a(lib_a-mallocr.o)
 .debug_frame   0x000032d0       0x2c c:/users/fx/appdata/local/arduino15/packages/arduino/tools/arm-none-eabi-gcc/4.8.3-2014q1/bin/../lib/gcc/arm-none-eabi/4.8.3/../../../../arm-none-eabi/lib/armv7-m\libc.a(lib_a-memchr-stub.o)
 .debug_frame   0x000032fc       0x2c c:/users/fx/appdata/local/arduino15/packages/arduino/tools/arm-none-eabi-gcc/4.8.3-2014q1/bin/../lib/gcc/arm-none-eabi/4.8.3/../../../../arm-none-eabi/lib/armv7-m\libc.a(lib_a-memcmp.o)
 .debug_frame   0x00003328       0x2c c:/users/fx/appdata/local/arduino15/packages/arduino/tools/arm-none-eabi-gcc/4.8.3-2014q1/bin/../lib/gcc/arm-none-eabi/4.8.3/../../../../arm-none-eabi/lib/armv7-m\libc.a(lib_a-memset.o)
 .debug_frame   0x00003354       0x30 c:/users/fx/appdata/local/arduino15/packages/arduino/tools/arm-none-eabi-gcc/4.8.3-2014q1/bin/../lib/gcc/arm-none-eabi/4.8.3/../../../../arm-none-eabi/lib/armv7-m\libc.a(lib_a-mlock.o)
 .debug_frame   0x00003384       0x2c c:/users/fx/appdata/local/arduino15/packages/arduino/tools/arm-none-eabi-gcc/4.8.3-2014q1/bin/../lib/gcc/arm-none-eabi/4.8.3/../../../../arm-none-eabi/lib/armv7-m\libc.a(lib_a-sbrkr.o)
 .debug_frame   0x000033b0       0x64 c:/users/fx/appdata/local/arduino15/packages/arduino/tools/arm-none-eabi-gcc/4.8.3-2014q1/bin/../lib/gcc/arm-none-eabi/4.8.3/../../../../arm-none-eabi/lib/armv7-m\libc.a(lib_a-sprintf.o)
 .debug_frame   0x00003414       0x20 c:/users/fx/appdata/local/arduino15/packages/arduino/tools/arm-none-eabi-gcc/4.8.3-2014q1/bin/../lib/gcc/arm-none-eabi/4.8.3/../../../../arm-none-eabi/lib/armv7-m\libc.a(lib_a-strcpy.o)
 .debug_frame   0x00003434       0x20 c:/users/fx/appdata/local/arduino15/packages/arduino/tools/arm-none-eabi-gcc/4.8.3-2014q1/bin/../lib/gcc/arm-none-eabi/4.8.3/../../../../arm-none-eabi/lib/armv7-m\libc.a(lib_a-strlen.o)
 .debug_frame   0x00003454       0x2c c:/users/fx/appdata/local/arduino15/packages/arduino/tools/arm-none-eabi-gcc/4.8.3-2014q1/bin/../lib/gcc/arm-none-eabi/4.8.3/../../../../arm-none-eabi/lib/armv7-m\libc.a(lib_a-strncpy.o)
 .debug_frame   0x00003480       0x3c c:/users/fx/appdata/local/arduino15/packages/arduino/tools/arm-none-eabi-gcc/4.8.3-2014q1/bin/../lib/gcc/arm-none-eabi/4.8.3/../../../../arm-none-eabi/lib/armv7-m\libc.a(lib_a-svfprintf.o)
 .debug_frame   0x000034bc       0x48 c:/users/fx/appdata/local/arduino15/packages/arduino/tools/arm-none-eabi-gcc/4.8.3-2014q1/bin/../lib/gcc/arm-none-eabi/4.8.3/../../../../arm-none-eabi/lib/armv7-m\libc.a(lib_a-__call_atexit.o)
 .debug_frame   0x00003504       0x20 c:/users/fx/appdata/local/arduino15/packages/arduino/tools/arm-none-eabi-gcc/4.8.3-2014q1/bin/../lib/gcc/arm-none-eabi/4.8.3/../../../../arm-none-eabi/lib/armv7-m\libc.a(lib_a-atexit.o)
 .debug_frame   0x00003524       0x64 c:/users/fx/appdata/local/arduino15/packages/arduino/tools/arm-none-eabi-gcc/4.8.3-2014q1/bin/../lib/gcc/arm-none-eabi/4.8.3/../../../../arm-none-eabi/lib/armv7-m\libc.a(lib_a-dtoa.o)
 .debug_frame   0x00003588       0x2c c:/users/fx/appdata/local/arduino15/packages/arduino/tools/arm-none-eabi-gcc/4.8.3-2014q1/bin/../lib/gcc/arm-none-eabi/4.8.3/../../../../arm-none-eabi/lib/armv7-m\libc.a(lib_a-fini.o)
 .debug_frame   0x000035b4       0x50 c:/users/fx/appdata/local/arduino15/packages/arduino/tools/arm-none-eabi-gcc/4.8.3-2014q1/bin/../lib/gcc/arm-none-eabi/4.8.3/../../../../arm-none-eabi/lib/armv7-m\libc.a(lib_a-freer.o)
 .debug_frame   0x00003604       0x98 c:/users/fx/appdata/local/arduino15/packages/arduino/tools/arm-none-eabi-gcc/4.8.3-2014q1/bin/../lib/gcc/arm-none-eabi/4.8.3/../../../../arm-none-eabi/lib/armv7-m\libc.a(lib_a-locale.o)
 .debug_frame   0x0000369c      0x228 c:/users/fx/appdata/local/arduino15/packages/arduino/tools/arm-none-eabi-gcc/4.8.3-2014q1/bin/../lib/gcc/arm-none-eabi/4.8.3/../../../../arm-none-eabi/lib/armv7-m\libc.a(lib_a-mprec.o)
 .debug_frame   0x000038c4       0x48 c:/users/fx/appdata/local/arduino15/packages/arduino/tools/arm-none-eabi-gcc/4.8.3-2014q1/bin/../lib/gcc/arm-none-eabi/4.8.3/../../../../arm-none-eabi/lib/armv7-m\libc.a(lib_a-reent.o)
 .debug_frame   0x0000390c       0x64 c:/users/fx/appdata/local/arduino15/packages/arduino/tools/arm-none-eabi-gcc/4.8.3-2014q1/bin/../lib/gcc/arm-none-eabi/4.8.3/../../../../arm-none-eabi/lib/armv7-m\libc.a(lib_a-svfiprintf.o)
 .debug_frame   0x00003970       0x30 c:/users/fx/appdata/local/arduino15/packages/arduino/tools/arm-none-eabi-gcc/4.8.3-2014q1/bin/../lib/gcc/arm-none-eabi/4.8.3/../../../../arm-none-eabi/lib/armv7-m\libc.a(lib_a-__atexit.o)
 .debug_frame   0x000039a0       0x28 c:/users/fx/appdata/local/arduino15/packages/arduino/tools/arm-none-eabi-gcc/4.8.3-2014q1/bin/../lib/gcc/arm-none-eabi/4.8.3/../../../../arm-none-eabi/lib/armv7-m\libc.a(lib_a-callocr.o)
 .debug_frame   0x000039c8       0x2c c:/users/fx/appdata/local/arduino15/packages/arduino/tools/arm-none-eabi-gcc/4.8.3-2014q1/bin/../lib/gcc/arm-none-eabi/4.8.3/../../../../arm-none-eabi/lib/armv7-m\libc.a(lib_a-memmove.o)
 .debug_frame   0x000039f4       0x38 c:/users/fx/appdata/local/arduino15/packages/arduino/tools/arm-none-eabi-gcc/4.8.3-2014q1/bin/../lib/gcc/arm-none-eabi/4.8.3/../../../../arm-none-eabi/lib/armv7-m\libc.a(lib_a-reallocr.o)

.debug_str      0x00000000     0xa3c7
 *(.debug_str)
 .debug_str     0x00000000      0xa03 c:\Users\fx\Upwork\weather-node\output\sketch\weatherSIM808.ino.cpp.o
                                0xb1d (size before relaxing)
 .debug_str     0x00000a03       0xaf c:\Users\fx\Upwork\weather-node\output\libraries\FreeRTOS821\MapleFreeRTOS821.cpp.o
                                0x328 (size before relaxing)
 .debug_str     0x00000ab2      0x147 c:\Users\fx\Upwork\weather-node\output\libraries\FreeRTOS821\utility\croutine.c.o
                                0x1e5 (size before relaxing)
 .debug_str     0x00000bf9      0x4aa c:\Users\fx\Upwork\weather-node\output\libraries\FreeRTOS821\utility\event_groups.c.o
                                0x68d (size before relaxing)
 .debug_str     0x000010a3       0xdf c:\Users\fx\Upwork\weather-node\output\libraries\FreeRTOS821\utility\heap_1.c.o
                                0x2b5 (size before relaxing)
 .debug_str     0x00001182       0xf6 c:\Users\fx\Upwork\weather-node\output\libraries\FreeRTOS821\utility\list.c.o
                                0x334 (size before relaxing)
 .debug_str     0x00001278      0x180 c:\Users\fx\Upwork\weather-node\output\libraries\FreeRTOS821\utility\port.c.o
                                0x3a5 (size before relaxing)
 .debug_str     0x000013f8      0x580 c:\Users\fx\Upwork\weather-node\output\libraries\FreeRTOS821\utility\queue.c.o
                                0x8e2 (size before relaxing)
 .debug_str     0x00001978      0x93e c:\Users\fx\Upwork\weather-node\output\libraries\FreeRTOS821\utility\tasks.c.o
                                0xfce (size before relaxing)
 .debug_str     0x000022b6       0x7b c:\Users\fx\Upwork\weather-node\output\libraries\FreeRTOS821\utility\timers.c.o
                                0x1e3 (size before relaxing)
 .debug_str     0x00002331      0x16c c:\Users\fx\Upwork\weather-node\output\libraries\DHT_sensor_library\DHT.cpp.o
                                0x640 (size before relaxing)
 .debug_str     0x0000249d      0x719 c:\Users\fx\Upwork\weather-node\output\libraries\DHT_sensor_library\DHT_U.cpp.o
                                0xc0f (size before relaxing)
 .debug_str     0x00002bb6       0xe4 c:\Users\fx\Upwork\weather-node\output\libraries\Adafruit_Unified_Sensor\Adafruit_Sensor.cpp.o
                                0x844 (size before relaxing)
 .debug_str     0x00002c9a      0xa09 c:\Users\fx\Upwork\weather-node\output\core\board.cpp.o
                                0xd4a (size before relaxing)
 .debug_str     0x000036a3      0x777 c:\Users\fx\Upwork\weather-node\output\core\wirish\boards.cpp.o
                               0x1155 (size before relaxing)
 .debug_str     0x00003e1a      0x52a c:\Users\fx\Upwork\weather-node\output\core\wirish\boards_setup.cpp.o
                               0x12c9 (size before relaxing)
 .debug_str     0x00004344       0xf8 c:\Users\fx\Upwork\weather-node\output\core\wirish\start_c.c.o
                                0x1fb (size before relaxing)
 .debug_str     0x0000443c      0x1de c:\Users\fx\Upwork\weather-node\output\core\wirish\syscalls.c.o
                                0x38c (size before relaxing)
 .debug_str     0x0000461a     0x1021 c:\Users\fx\Upwork\weather-node\output\core\core.a(HardwareSerial.cpp.o)
                               0x1c27 (size before relaxing)
 .debug_str     0x0000563b      0x339 c:\Users\fx\Upwork\weather-node\output\core\core.a(Print.cpp.o)
                                0xff5 (size before relaxing)
 .debug_str     0x00005974      0x179 c:\Users\fx\Upwork\weather-node\output\core\core.a(cxxabi-compat.cpp.o)
                                0x3b4 (size before relaxing)
 .debug_str     0x00005aed      0x230 c:\Users\fx\Upwork\weather-node\output\core\core.a(adc.c.o)
                                0xad4 (size before relaxing)
 .debug_str     0x00005d1d      0x176 c:\Users\fx\Upwork\weather-node\output\core\core.a(adc_f1.c.o)
                                0xdef (size before relaxing)
 .debug_str     0x00005e93      0xaed c:\Users\fx\Upwork\weather-node\output\core\core.a(dma_f1.c.o)
                               0x13b2 (size before relaxing)
 .debug_str     0x00006980      0x238 c:\Users\fx\Upwork\weather-node\output\core\core.a(exti.c.o)
                                0x933 (size before relaxing)
 .debug_str     0x00006bb8       0xb0 c:\Users\fx\Upwork\weather-node\output\core\core.a(exti_f1.c.o)
                                0x2f9 (size before relaxing)
 .debug_str     0x00006c68       0x7d c:\Users\fx\Upwork\weather-node\output\core\core.a(flash.c.o)
                                0x218 (size before relaxing)
 .debug_str     0x00006ce5      0x2c8 c:\Users\fx\Upwork\weather-node\output\core\core.a(gpio_f1.c.o)
                                0x7f1 (size before relaxing)
 .debug_str     0x00006fad      0x2cf c:\Users\fx\Upwork\weather-node\output\core\core.a(i2c_f1.c.o)
                                0xdca (size before relaxing)
 .debug_str     0x0000727c       0xec c:\Users\fx\Upwork\weather-node\output\core\core.a(nvic.c.o)
                                0x721 (size before relaxing)
 .debug_str     0x00007368      0x110 c:\Users\fx\Upwork\weather-node\output\core\core.a(rcc.c.o)
                                0x56d (size before relaxing)
 .debug_str     0x00007478      0x104 c:\Users\fx\Upwork\weather-node\output\core\core.a(rcc_f1.c.o)
                                0x80e (size before relaxing)
 .debug_str     0x0000757c       0xd1 c:\Users\fx\Upwork\weather-node\output\core\core.a(systick.c.o)
                                0x27e (size before relaxing)
 .debug_str     0x0000764d      0x36f c:\Users\fx\Upwork\weather-node\output\core\core.a(timer.c.o)
                                0xec7 (size before relaxing)
 .debug_str     0x000079bc       0xed c:\Users\fx\Upwork\weather-node\output\core\core.a(usart.c.o)
                                0x9e4 (size before relaxing)
 .debug_str     0x00007aa9      0x14c c:\Users\fx\Upwork\weather-node\output\core\core.a(usart_f1.c.o)
                                0xad8 (size before relaxing)
 .debug_str     0x00007bf5       0x79 c:\Users\fx\Upwork\weather-node\output\core\core.a(usart_private.c.o)
                                0x8a3 (size before relaxing)
 .debug_str     0x00007c6e      0x61b c:\Users\fx\Upwork\weather-node\output\core\core.a(usb.c.o)
                                0xa7b (size before relaxing)
 .debug_str     0x00008289      0x998 c:\Users\fx\Upwork\weather-node\output\core\core.a(usb_cdcacm.c.o)
                               0x184c (size before relaxing)
 .debug_str     0x00008c21       0xa6 c:\Users\fx\Upwork\weather-node\output\core\core.a(usb_reg_map.c.o)
                                0x2a1 (size before relaxing)
 .debug_str     0x00008cc7      0x4a6 c:\Users\fx\Upwork\weather-node\output\core\core.a(usb_core.c.o)
                                0xad9 (size before relaxing)
 .debug_str     0x0000916d       0xab c:\Users\fx\Upwork\weather-node\output\core\core.a(usb_init.c.o)
                                0x53d (size before relaxing)
 .debug_str     0x00009218       0xb7 c:\Users\fx\Upwork\weather-node\output\core\core.a(usb_mem.c.o)
                                0x1fb (size before relaxing)
 .debug_str     0x000092cf      0x3e9 c:\Users\fx\Upwork\weather-node\output\core\core.a(usb_regs.c.o)
                                0x57b (size before relaxing)
 .debug_str     0x000096b8       0xf7 c:\Users\fx\Upwork\weather-node\output\core\core.a(util.c.o)
                                0xa50 (size before relaxing)
 .debug_str     0x000097af       0x7d c:\Users\fx\Upwork\weather-node\output\core\core.a(main.cpp.o)
                                0x1c1 (size before relaxing)
 .debug_str     0x0000982c       0xb7 c:\Users\fx\Upwork\weather-node\output\core\core.a(new.cpp.o)
                                0x29d (size before relaxing)
 .debug_str     0x000098e3       0x89 c:\Users\fx\Upwork\weather-node\output\core\core.a(wirish_digital_f1.cpp.o)
                                0xc70 (size before relaxing)
 .debug_str     0x0000996c      0x428 c:\Users\fx\Upwork\weather-node\output\core\core.a(usb_serial.cpp.o)
                               0x1d8a (size before relaxing)
 .debug_str     0x00009d94       0x81 c:\Users\fx\Upwork\weather-node\output\core\core.a(wirish_digital.cpp.o)
                                0xae1 (size before relaxing)
 .debug_str     0x00009e15       0xa2 c:\Users\fx\Upwork\weather-node\output\core\core.a(wirish_time.cpp.o)
                                0x373 (size before relaxing)
 .debug_str     0x00009eb7       0x70 c:\Users\fx\Upwork\weather-node\output\core\core.a(hooks.c.o)
                                0x13a (size before relaxing)
 .debug_str     0x00009f27       0xb4 c:\Users\fx\Upwork\weather-node\output\core\core.a(bkp_f1.c.o)
                                0x48d (size before relaxing)
 .debug_str     0x00009fdb      0x147 c:\Users\fx\Upwork\weather-node\output\core\core.a(dma.c.o)
                                0xa4c (size before relaxing)
 .debug_str     0x0000a122       0x70 c:\Users\fx\Upwork\weather-node\output\core\core.a(gpio.c.o)
                                0x45c (size before relaxing)
 .debug_str     0x0000a192      0x235 c:\Users\fx\Upwork\weather-node\output\core\core.a(i2c.c.o)
                                0xfcd (size before relaxing)

.debug_loc      0x00000000     0xc7be
 *(.debug_loc)
 .debug_loc     0x00000000      0x2c4 c:\Users\fx\Upwork\weather-node\output\sketch\weatherSIM808.ino.cpp.o
 .debug_loc     0x000002c4      0x6f1 c:\Users\fx\Upwork\weather-node\output\libraries\FreeRTOS821\utility\event_groups.c.o
 .debug_loc     0x000009b5       0xa2 c:\Users\fx\Upwork\weather-node\output\libraries\FreeRTOS821\utility\heap_1.c.o
 .debug_loc     0x00000a57       0x75 c:\Users\fx\Upwork\weather-node\output\libraries\FreeRTOS821\utility\list.c.o
 .debug_loc     0x00000acc       0x66 c:\Users\fx\Upwork\weather-node\output\libraries\FreeRTOS821\utility\port.c.o
 .debug_loc     0x00000b32      0xcef c:\Users\fx\Upwork\weather-node\output\libraries\FreeRTOS821\utility\queue.c.o
 .debug_loc     0x00001821     0x16e7 c:\Users\fx\Upwork\weather-node\output\libraries\FreeRTOS821\utility\tasks.c.o
 .debug_loc     0x00002f08      0x6d4 c:\Users\fx\Upwork\weather-node\output\libraries\DHT_sensor_library\DHT.cpp.o
 .debug_loc     0x000035dc      0x40c c:\Users\fx\Upwork\weather-node\output\libraries\DHT_sensor_library\DHT_U.cpp.o
 .debug_loc     0x000039e8       0x21 c:\Users\fx\Upwork\weather-node\output\libraries\Adafruit_Unified_Sensor\Adafruit_Sensor.cpp.o
 .debug_loc     0x00003a09      0x246 c:\Users\fx\Upwork\weather-node\output\core\wirish\boards.cpp.o
 .debug_loc     0x00003c4f       0x13 c:\Users\fx\Upwork\weather-node\output\core\wirish\boards_setup.cpp.o
 .debug_loc     0x00003c62       0x87 c:\Users\fx\Upwork\weather-node\output\core\wirish\start_c.c.o
 .debug_loc     0x00003ce9      0x38a c:\Users\fx\Upwork\weather-node\output\core\wirish\syscalls.c.o
 .debug_loc     0x00004073      0x39a c:\Users\fx\Upwork\weather-node\output\core\core.a(HardwareSerial.cpp.o)
 .debug_loc     0x0000440d     0x10a7 c:\Users\fx\Upwork\weather-node\output\core\core.a(Print.cpp.o)
 .debug_loc     0x000054b4       0x81 c:\Users\fx\Upwork\weather-node\output\core\core.a(cxxabi-compat.cpp.o)
 .debug_loc     0x00005535      0x145 c:\Users\fx\Upwork\weather-node\output\core\core.a(adc.c.o)
 .debug_loc     0x0000567a      0x2c7 c:\Users\fx\Upwork\weather-node\output\core\core.a(adc_f1.c.o)
 .debug_loc     0x00005941      0xb40 c:\Users\fx\Upwork\weather-node\output\core\core.a(dma_f1.c.o)
 .debug_loc     0x00006481      0x5ee c:\Users\fx\Upwork\weather-node\output\core\core.a(exti.c.o)
 .debug_loc     0x00006a6f       0x42 c:\Users\fx\Upwork\weather-node\output\core\core.a(exti_f1.c.o)
 .debug_loc     0x00006ab1       0x3f c:\Users\fx\Upwork\weather-node\output\core\core.a(flash.c.o)
 .debug_loc     0x00006af0      0x2ba c:\Users\fx\Upwork\weather-node\output\core\core.a(gpio_f1.c.o)
 .debug_loc     0x00006daa      0x1b9 c:\Users\fx\Upwork\weather-node\output\core\core.a(i2c_f1.c.o)
 .debug_loc     0x00006f63      0x121 c:\Users\fx\Upwork\weather-node\output\core\core.a(nvic.c.o)
 .debug_loc     0x00007084      0x131 c:\Users\fx\Upwork\weather-node\output\core\core.a(rcc.c.o)
 .debug_loc     0x000071b5      0x352 c:\Users\fx\Upwork\weather-node\output\core\core.a(rcc_f1.c.o)
 .debug_loc     0x00007507      0xb8c c:\Users\fx\Upwork\weather-node\output\core\core.a(timer.c.o)
 .debug_loc     0x00008093      0x3af c:\Users\fx\Upwork\weather-node\output\core\core.a(usart.c.o)
 .debug_loc     0x00008442      0x2d2 c:\Users\fx\Upwork\weather-node\output\core\core.a(usart_f1.c.o)
 .debug_loc     0x00008714       0x3f c:\Users\fx\Upwork\weather-node\output\core\core.a(usart_private.c.o)
 .debug_loc     0x00008753      0x4c8 c:\Users\fx\Upwork\weather-node\output\core\core.a(usb.c.o)
 .debug_loc     0x00008c1b      0xaab c:\Users\fx\Upwork\weather-node\output\core\core.a(usb_cdcacm.c.o)
 .debug_loc     0x000096c6      0x119 c:\Users\fx\Upwork\weather-node\output\core\core.a(usb_reg_map.c.o)
 .debug_loc     0x000097df      0x7a1 c:\Users\fx\Upwork\weather-node\output\core\core.a(usb_core.c.o)
 .debug_loc     0x00009f80      0x260 c:\Users\fx\Upwork\weather-node\output\core\core.a(usb_mem.c.o)
 .debug_loc     0x0000a1e0      0xbab c:\Users\fx\Upwork\weather-node\output\core\core.a(usb_regs.c.o)
 .debug_loc     0x0000ad8b      0x27f c:\Users\fx\Upwork\weather-node\output\core\core.a(util.c.o)
 .debug_loc     0x0000b00a       0x84 c:\Users\fx\Upwork\weather-node\output\core\core.a(new.cpp.o)
 .debug_loc     0x0000b08e      0x137 c:\Users\fx\Upwork\weather-node\output\core\core.a(wirish_digital_f1.cpp.o)
 .debug_loc     0x0000b1c5      0x743 c:\Users\fx\Upwork\weather-node\output\core\core.a(usb_serial.cpp.o)
 .debug_loc     0x0000b908       0x7c c:\Users\fx\Upwork\weather-node\output\core\core.a(wirish_digital.cpp.o)
 .debug_loc     0x0000b984       0x82 c:\Users\fx\Upwork\weather-node\output\core\core.a(wirish_time.cpp.o)
 .debug_loc     0x0000ba06       0xb3 c:\Users\fx\Upwork\weather-node\output\core\core.a(bkp_f1.c.o)
 .debug_loc     0x0000bab9       0x42 c:\Users\fx\Upwork\weather-node\output\core\core.a(dma.c.o)
 .debug_loc     0x0000bafb       0x2c c:\Users\fx\Upwork\weather-node\output\core\core.a(gpio.c.o)
 .debug_loc     0x0000bb27      0xc97 c:\Users\fx\Upwork\weather-node\output\core\core.a(i2c.c.o)

.debug_macinfo
 *(.debug_macinfo)

.debug_weaknames
 *(.debug_weaknames)

.debug_funcnames
 *(.debug_funcnames)

.debug_typenames
 *(.debug_typenames)

.debug_varnames
 *(.debug_varnames)

.note.gnu.arm.ident
 *(.note.gnu.arm.ident)

.ARM.attributes
                0x00000000       0x29
 *(.ARM.attributes)
 .ARM.attributes
                0x00000000       0x1d c:/users/fx/appdata/local/arduino15/packages/arduino/tools/arm-none-eabi-gcc/4.8.3-2014q1/bin/../lib/gcc/arm-none-eabi/4.8.3/armv7-m/crti.o
 .ARM.attributes
                0x0000001d       0x2d c:/users/fx/appdata/local/arduino15/packages/arduino/tools/arm-none-eabi-gcc/4.8.3-2014q1/bin/../lib/gcc/arm-none-eabi/4.8.3/armv7-m/crtbegin.o
 .ARM.attributes
                0x0000004a       0x1b c:/users/fx/appdata/local/arduino15/packages/arduino/tools/arm-none-eabi-gcc/4.8.3-2014q1/bin/../lib/gcc/arm-none-eabi/4.8.3/../../../../arm-none-eabi/lib/armv7-m/crt0.o
 .ARM.attributes
                0x00000065       0x33 c:\Users\fx\Upwork\weather-node\output\sketch\weatherSIM808.ino.cpp.o
 .ARM.attributes
                0x00000098       0x33 c:\Users\fx\Upwork\weather-node\output\libraries\FreeRTOS821\MapleFreeRTOS821.cpp.o
 .ARM.attributes
                0x000000cb       0x33 c:\Users\fx\Upwork\weather-node\output\libraries\FreeRTOS821\utility\croutine.c.o
 .ARM.attributes
                0x000000fe       0x33 c:\Users\fx\Upwork\weather-node\output\libraries\FreeRTOS821\utility\event_groups.c.o
 .ARM.attributes
                0x00000131       0x33 c:\Users\fx\Upwork\weather-node\output\libraries\FreeRTOS821\utility\heap_1.c.o
 .ARM.attributes
                0x00000164       0x33 c:\Users\fx\Upwork\weather-node\output\libraries\FreeRTOS821\utility\list.c.o
 .ARM.attributes
                0x00000197       0x33 c:\Users\fx\Upwork\weather-node\output\libraries\FreeRTOS821\utility\port.c.o
 .ARM.attributes
                0x000001ca       0x33 c:\Users\fx\Upwork\weather-node\output\libraries\FreeRTOS821\utility\queue.c.o
 .ARM.attributes
                0x000001fd       0x33 c:\Users\fx\Upwork\weather-node\output\libraries\FreeRTOS821\utility\tasks.c.o
 .ARM.attributes
                0x00000230       0x33 c:\Users\fx\Upwork\weather-node\output\libraries\FreeRTOS821\utility\timers.c.o
 .ARM.attributes
                0x00000263       0x33 c:\Users\fx\Upwork\weather-node\output\libraries\DHT_sensor_library\DHT.cpp.o
 .ARM.attributes
                0x00000296       0x33 c:\Users\fx\Upwork\weather-node\output\libraries\DHT_sensor_library\DHT_U.cpp.o
 .ARM.attributes
                0x000002c9       0x33 c:\Users\fx\Upwork\weather-node\output\libraries\Adafruit_Unified_Sensor\Adafruit_Sensor.cpp.o
 .ARM.attributes
                0x000002fc       0x33 c:\Users\fx\Upwork\weather-node\output\core\board.cpp.o
 .ARM.attributes
                0x0000032f       0x33 c:\Users\fx\Upwork\weather-node\output\core\wirish\boards.cpp.o
 .ARM.attributes
                0x00000362       0x33 c:\Users\fx\Upwork\weather-node\output\core\wirish\boards_setup.cpp.o
 .ARM.attributes
                0x00000395       0x1b c:\Users\fx\Upwork\weather-node\output\core\wirish\start.S.o
 .ARM.attributes
                0x000003b0       0x33 c:\Users\fx\Upwork\weather-node\output\core\wirish\start_c.c.o
 .ARM.attributes
                0x000003e3       0x33 c:\Users\fx\Upwork\weather-node\output\core\wirish\syscalls.c.o
 .ARM.attributes
                0x00000416       0x33 c:\Users\fx\Upwork\weather-node\output\core\core.a(HardwareSerial.cpp.o)
 .ARM.attributes
                0x00000449       0x33 c:\Users\fx\Upwork\weather-node\output\core\core.a(Print.cpp.o)
 .ARM.attributes
                0x0000047c       0x33 c:\Users\fx\Upwork\weather-node\output\core\core.a(cxxabi-compat.cpp.o)
 .ARM.attributes
                0x000004af       0x33 c:\Users\fx\Upwork\weather-node\output\core\core.a(adc.c.o)
 .ARM.attributes
                0x000004e2       0x33 c:\Users\fx\Upwork\weather-node\output\core\core.a(adc_f1.c.o)
 .ARM.attributes
                0x00000515       0x33 c:\Users\fx\Upwork\weather-node\output\core\core.a(dma_f1.c.o)
 .ARM.attributes
                0x00000548       0x1b c:\Users\fx\Upwork\weather-node\output\core\core.a(exc.S.o)
 .ARM.attributes
                0x00000563       0x33 c:\Users\fx\Upwork\weather-node\output\core\core.a(exti.c.o)
 .ARM.attributes
                0x00000596       0x33 c:\Users\fx\Upwork\weather-node\output\core\core.a(exti_f1.c.o)
 .ARM.attributes
                0x000005c9       0x33 c:\Users\fx\Upwork\weather-node\output\core\core.a(flash.c.o)
 .ARM.attributes
                0x000005fc       0x33 c:\Users\fx\Upwork\weather-node\output\core\core.a(gpio_f1.c.o)
 .ARM.attributes
                0x0000062f       0x33 c:\Users\fx\Upwork\weather-node\output\core\core.a(i2c_f1.c.o)
 .ARM.attributes
                0x00000662       0x33 c:\Users\fx\Upwork\weather-node\output\core\core.a(nvic.c.o)
 .ARM.attributes
                0x00000695       0x33 c:\Users\fx\Upwork\weather-node\output\core\core.a(rcc.c.o)
 .ARM.attributes
                0x000006c8       0x33 c:\Users\fx\Upwork\weather-node\output\core\core.a(rcc_f1.c.o)
 .ARM.attributes
                0x000006fb       0x1b c:\Users\fx\Upwork\weather-node\output\core\core.a(isrs.S.o)
 .ARM.attributes
                0x00000716       0x1b c:\Users\fx\Upwork\weather-node\output\core\core.a(vector_table.S.o)
 .ARM.attributes
                0x00000731       0x33 c:\Users\fx\Upwork\weather-node\output\core\core.a(systick.c.o)
 .ARM.attributes
                0x00000764       0x33 c:\Users\fx\Upwork\weather-node\output\core\core.a(timer.c.o)
 .ARM.attributes
                0x00000797       0x33 c:\Users\fx\Upwork\weather-node\output\core\core.a(usart.c.o)
 .ARM.attributes
                0x000007ca       0x33 c:\Users\fx\Upwork\weather-node\output\core\core.a(usart_f1.c.o)
 .ARM.attributes
                0x000007fd       0x33 c:\Users\fx\Upwork\weather-node\output\core\core.a(usart_private.c.o)
 .ARM.attributes
                0x00000830       0x33 c:\Users\fx\Upwork\weather-node\output\core\core.a(usb.c.o)
 .ARM.attributes
                0x00000863       0x33 c:\Users\fx\Upwork\weather-node\output\core\core.a(usb_cdcacm.c.o)
 .ARM.attributes
                0x00000896       0x33 c:\Users\fx\Upwork\weather-node\output\core\core.a(usb_reg_map.c.o)
 .ARM.attributes
                0x000008c9       0x33 c:\Users\fx\Upwork\weather-node\output\core\core.a(usb_core.c.o)
 .ARM.attributes
                0x000008fc       0x33 c:\Users\fx\Upwork\weather-node\output\core\core.a(usb_init.c.o)
 .ARM.attributes
                0x0000092f       0x33 c:\Users\fx\Upwork\weather-node\output\core\core.a(usb_mem.c.o)
 .ARM.attributes
                0x00000962       0x33 c:\Users\fx\Upwork\weather-node\output\core\core.a(usb_regs.c.o)
 .ARM.attributes
                0x00000995       0x33 c:\Users\fx\Upwork\weather-node\output\core\core.a(util.c.o)
 .ARM.attributes
                0x000009c8       0x33 c:\Users\fx\Upwork\weather-node\output\core\core.a(main.cpp.o)
 .ARM.attributes
                0x000009fb       0x33 c:\Users\fx\Upwork\weather-node\output\core\core.a(new.cpp.o)
 .ARM.attributes
                0x00000a2e       0x33 c:\Users\fx\Upwork\weather-node\output\core\core.a(wirish_digital_f1.cpp.o)
 .ARM.attributes
                0x00000a61       0x33 c:\Users\fx\Upwork\weather-node\output\core\core.a(usb_serial.cpp.o)
 .ARM.attributes
                0x00000a94       0x33 c:\Users\fx\Upwork\weather-node\output\core\core.a(wirish_digital.cpp.o)
 .ARM.attributes
                0x00000ac7       0x33 c:\Users\fx\Upwork\weather-node\output\core\core.a(wirish_time.cpp.o)
 .ARM.attributes
                0x00000afa       0x33 c:\Users\fx\Upwork\weather-node\output\core\core.a(hooks.c.o)
 .ARM.attributes
                0x00000b2d       0x33 c:\Users\fx\Upwork\weather-node\output\core\core.a(bkp_f1.c.o)
 .ARM.attributes
                0x00000b60       0x33 c:\Users\fx\Upwork\weather-node\output\core\core.a(dma.c.o)
 .ARM.attributes
                0x00000b93       0x33 c:\Users\fx\Upwork\weather-node\output\core\core.a(gpio.c.o)
 .ARM.attributes
                0x00000bc6       0x33 c:\Users\fx\Upwork\weather-node\output\core\core.a(i2c.c.o)
 .ARM.attributes
                0x00000bf9       0x2d c:/users/fx/appdata/local/arduino15/packages/arduino/tools/arm-none-eabi-gcc/4.8.3-2014q1/bin/../lib/gcc/arm-none-eabi/4.8.3/../../../../arm-none-eabi/lib/armv7-m\libm.a(lib_a-w_sqrt.o)
 .ARM.attributes
                0x00000c26       0x2d c:/users/fx/appdata/local/arduino15/packages/arduino/tools/arm-none-eabi-gcc/4.8.3-2014q1/bin/../lib/gcc/arm-none-eabi/4.8.3/../../../../arm-none-eabi/lib/armv7-m\libm.a(lib_a-e_sqrt.o)
 .ARM.attributes
                0x00000c53       0x2d c:/users/fx/appdata/local/arduino15/packages/arduino/tools/arm-none-eabi-gcc/4.8.3-2014q1/bin/../lib/gcc/arm-none-eabi/4.8.3/../../../../arm-none-eabi/lib/armv7-m\libm.a(lib_a-s_fpclassify.o)
 .ARM.attributes
                0x00000c80       0x2d c:/users/fx/appdata/local/arduino15/packages/arduino/tools/arm-none-eabi-gcc/4.8.3-2014q1/bin/../lib/gcc/arm-none-eabi/4.8.3/../../../../arm-none-eabi/lib/armv7-m\libm.a(lib_a-s_lib_ver.o)
 .ARM.attributes
                0x00000cad       0x2d c:/users/fx/appdata/local/arduino15/packages/arduino/tools/arm-none-eabi-gcc/4.8.3-2014q1/bin/../lib/gcc/arm-none-eabi/4.8.3/../../../../arm-none-eabi/lib/armv7-m\libm.a(lib_a-s_matherr.o)
 .ARM.attributes
                0x00000cda       0x1d c:/users/fx/appdata/local/arduino15/packages/arduino/tools/arm-none-eabi-gcc/4.8.3-2014q1/bin/../lib/gcc/arm-none-eabi/4.8.3/armv7-m\libgcc.a(_arm_addsubdf3.o)
 .ARM.attributes
                0x00000cf7       0x1d c:/users/fx/appdata/local/arduino15/packages/arduino/tools/arm-none-eabi-gcc/4.8.3-2014q1/bin/../lib/gcc/arm-none-eabi/4.8.3/armv7-m\libgcc.a(_arm_muldivdf3.o)
 .ARM.attributes
                0x00000d14       0x1d c:/users/fx/appdata/local/arduino15/packages/arduino/tools/arm-none-eabi-gcc/4.8.3-2014q1/bin/../lib/gcc/arm-none-eabi/4.8.3/armv7-m\libgcc.a(_arm_cmpdf2.o)
 .ARM.attributes
                0x00000d31       0x1d c:/users/fx/appdata/local/arduino15/packages/arduino/tools/arm-none-eabi-gcc/4.8.3-2014q1/bin/../lib/gcc/arm-none-eabi/4.8.3/armv7-m\libgcc.a(_arm_fixdfsi.o)
 .ARM.attributes
                0x00000d4e       0x1d c:/users/fx/appdata/local/arduino15/packages/arduino/tools/arm-none-eabi-gcc/4.8.3-2014q1/bin/../lib/gcc/arm-none-eabi/4.8.3/armv7-m\libgcc.a(_arm_truncdfsf2.o)
 .ARM.attributes
                0x00000d6b       0x1d c:/users/fx/appdata/local/arduino15/packages/arduino/tools/arm-none-eabi-gcc/4.8.3-2014q1/bin/../lib/gcc/arm-none-eabi/4.8.3/armv7-m\libgcc.a(_arm_addsubsf3.o)
 .ARM.attributes
                0x00000d88       0x1d c:/users/fx/appdata/local/arduino15/packages/arduino/tools/arm-none-eabi-gcc/4.8.3-2014q1/bin/../lib/gcc/arm-none-eabi/4.8.3/armv7-m\libgcc.a(_arm_cmpsf2.o)
 .ARM.attributes
                0x00000da5       0x1d c:/users/fx/appdata/local/arduino15/packages/arduino/tools/arm-none-eabi-gcc/4.8.3-2014q1/bin/../lib/gcc/arm-none-eabi/4.8.3/armv7-m\libgcc.a(_aeabi_uldivmod.o)
 .ARM.attributes
                0x00000dc2       0x2d c:/users/fx/appdata/local/arduino15/packages/arduino/tools/arm-none-eabi-gcc/4.8.3-2014q1/bin/../lib/gcc/arm-none-eabi/4.8.3/armv7-m\libgcc.a(_fixdfdi.o)
 .ARM.attributes
                0x00000def       0x2d c:/users/fx/appdata/local/arduino15/packages/arduino/tools/arm-none-eabi-gcc/4.8.3-2014q1/bin/../lib/gcc/arm-none-eabi/4.8.3/armv7-m\libgcc.a(_fixunsdfdi.o)
 .ARM.attributes
                0x00000e1c       0x2d c:/users/fx/appdata/local/arduino15/packages/arduino/tools/arm-none-eabi-gcc/4.8.3-2014q1/bin/../lib/gcc/arm-none-eabi/4.8.3/armv7-m\libgcc.a(bpabi.o)
 .ARM.attributes
                0x00000e49       0x1d c:/users/fx/appdata/local/arduino15/packages/arduino/tools/arm-none-eabi-gcc/4.8.3-2014q1/bin/../lib/gcc/arm-none-eabi/4.8.3/armv7-m\libgcc.a(_dvmd_tls.o)
 .ARM.attributes
                0x00000e66       0x1d c:/users/fx/appdata/local/arduino15/packages/arduino/tools/arm-none-eabi-gcc/4.8.3-2014q1/bin/../lib/gcc/arm-none-eabi/4.8.3/armv7-m\libgcc.a(_arm_fixunsdfsi.o)
 .ARM.attributes
                0x00000e83       0x2d c:/users/fx/appdata/local/arduino15/packages/arduino/tools/arm-none-eabi-gcc/4.8.3-2014q1/bin/../lib/gcc/arm-none-eabi/4.8.3/armv7-m\libgcc.a(_divdi3.o)
 .ARM.attributes
                0x00000eb0       0x2d c:/users/fx/appdata/local/arduino15/packages/arduino/tools/arm-none-eabi-gcc/4.8.3-2014q1/bin/../lib/gcc/arm-none-eabi/4.8.3/armv7-m\libgcc.a(_udivdi3.o)
 .ARM.attributes
                0x00000edd       0x2d c:/users/fx/appdata/local/arduino15/packages/arduino/tools/arm-none-eabi-gcc/4.8.3-2014q1/bin/../lib/gcc/arm-none-eabi/4.8.3/../../../../arm-none-eabi/lib/armv7-m\libc.a(lib_a-errno.o)
 .ARM.attributes
                0x00000f0a       0x2d c:/users/fx/appdata/local/arduino15/packages/arduino/tools/arm-none-eabi-gcc/4.8.3-2014q1/bin/../lib/gcc/arm-none-eabi/4.8.3/../../../../arm-none-eabi/lib/armv7-m\libc.a(lib_a-exit.o)
 .ARM.attributes
                0x00000f37       0x2d c:/users/fx/appdata/local/arduino15/packages/arduino/tools/arm-none-eabi-gcc/4.8.3-2014q1/bin/../lib/gcc/arm-none-eabi/4.8.3/../../../../arm-none-eabi/lib/armv7-m\libc.a(lib_a-impure.o)
 .ARM.attributes
                0x00000f64       0x2d c:/users/fx/appdata/local/arduino15/packages/arduino/tools/arm-none-eabi-gcc/4.8.3-2014q1/bin/../lib/gcc/arm-none-eabi/4.8.3/../../../../arm-none-eabi/lib/armv7-m\libc.a(lib_a-init.o)
 .ARM.attributes
                0x00000f91       0x2d c:/users/fx/appdata/local/arduino15/packages/arduino/tools/arm-none-eabi-gcc/4.8.3-2014q1/bin/../lib/gcc/arm-none-eabi/4.8.3/../../../../arm-none-eabi/lib/armv7-m\libc.a(lib_a-malloc.o)
 .ARM.attributes
                0x00000fbe       0x2d c:/users/fx/appdata/local/arduino15/packages/arduino/tools/arm-none-eabi-gcc/4.8.3-2014q1/bin/../lib/gcc/arm-none-eabi/4.8.3/../../../../arm-none-eabi/lib/armv7-m\libc.a(lib_a-mallocr.o)
 .ARM.attributes
                0x00000feb       0x2d c:/users/fx/appdata/local/arduino15/packages/arduino/tools/arm-none-eabi-gcc/4.8.3-2014q1/bin/../lib/gcc/arm-none-eabi/4.8.3/../../../../arm-none-eabi/lib/armv7-m\libc.a(lib_a-memchr-stub.o)
 .ARM.attributes
                0x00001018       0x2d c:/users/fx/appdata/local/arduino15/packages/arduino/tools/arm-none-eabi-gcc/4.8.3-2014q1/bin/../lib/gcc/arm-none-eabi/4.8.3/../../../../arm-none-eabi/lib/armv7-m\libc.a(lib_a-memcmp.o)
 .ARM.attributes
                0x00001045       0x1b c:/users/fx/appdata/local/arduino15/packages/arduino/tools/arm-none-eabi-gcc/4.8.3-2014q1/bin/../lib/gcc/arm-none-eabi/4.8.3/../../../../arm-none-eabi/lib/armv7-m\libc.a(lib_a-memcpy.o)
 .ARM.attributes
                0x00001060       0x2d c:/users/fx/appdata/local/arduino15/packages/arduino/tools/arm-none-eabi-gcc/4.8.3-2014q1/bin/../lib/gcc/arm-none-eabi/4.8.3/../../../../arm-none-eabi/lib/armv7-m\libc.a(lib_a-memset.o)
 .ARM.attributes
                0x0000108d       0x2d c:/users/fx/appdata/local/arduino15/packages/arduino/tools/arm-none-eabi-gcc/4.8.3-2014q1/bin/../lib/gcc/arm-none-eabi/4.8.3/../../../../arm-none-eabi/lib/armv7-m\libc.a(lib_a-mlock.o)
 .ARM.attributes
                0x000010ba       0x2d c:/users/fx/appdata/local/arduino15/packages/arduino/tools/arm-none-eabi-gcc/4.8.3-2014q1/bin/../lib/gcc/arm-none-eabi/4.8.3/../../../../arm-none-eabi/lib/armv7-m\libc.a(lib_a-sbrkr.o)
 .ARM.attributes
                0x000010e7       0x2d c:/users/fx/appdata/local/arduino15/packages/arduino/tools/arm-none-eabi-gcc/4.8.3-2014q1/bin/../lib/gcc/arm-none-eabi/4.8.3/../../../../arm-none-eabi/lib/armv7-m\libc.a(lib_a-sprintf.o)
 .ARM.attributes
                0x00001114       0x2d c:/users/fx/appdata/local/arduino15/packages/arduino/tools/arm-none-eabi-gcc/4.8.3-2014q1/bin/../lib/gcc/arm-none-eabi/4.8.3/../../../../arm-none-eabi/lib/armv7-m\libc.a(lib_a-strcpy.o)
 .ARM.attributes
                0x00001141       0x2d c:/users/fx/appdata/local/arduino15/packages/arduino/tools/arm-none-eabi-gcc/4.8.3-2014q1/bin/../lib/gcc/arm-none-eabi/4.8.3/../../../../arm-none-eabi/lib/armv7-m\libc.a(lib_a-strlen.o)
 .ARM.attributes
                0x0000116e       0x2d c:/users/fx/appdata/local/arduino15/packages/arduino/tools/arm-none-eabi-gcc/4.8.3-2014q1/bin/../lib/gcc/arm-none-eabi/4.8.3/../../../../arm-none-eabi/lib/armv7-m\libc.a(lib_a-strncpy.o)
 .ARM.attributes
                0x0000119b       0x2d c:/users/fx/appdata/local/arduino15/packages/arduino/tools/arm-none-eabi-gcc/4.8.3-2014q1/bin/../lib/gcc/arm-none-eabi/4.8.3/../../../../arm-none-eabi/lib/armv7-m\libc.a(lib_a-svfprintf.o)
 .ARM.attributes
                0x000011c8       0x2d c:/users/fx/appdata/local/arduino15/packages/arduino/tools/arm-none-eabi-gcc/4.8.3-2014q1/bin/../lib/gcc/arm-none-eabi/4.8.3/../../../../arm-none-eabi/lib/armv7-m\libc.a(lib_a-__call_atexit.o)
 .ARM.attributes
                0x000011f5       0x2d c:/users/fx/appdata/local/arduino15/packages/arduino/tools/arm-none-eabi-gcc/4.8.3-2014q1/bin/../lib/gcc/arm-none-eabi/4.8.3/../../../../arm-none-eabi/lib/armv7-m\libc.a(lib_a-atexit.o)
 .ARM.attributes
                0x00001222       0x2d c:/users/fx/appdata/local/arduino15/packages/arduino/tools/arm-none-eabi-gcc/4.8.3-2014q1/bin/../lib/gcc/arm-none-eabi/4.8.3/../../../../arm-none-eabi/lib/armv7-m\libc.a(lib_a-dtoa.o)
 .ARM.attributes
                0x0000124f       0x2d c:/users/fx/appdata/local/arduino15/packages/arduino/tools/arm-none-eabi-gcc/4.8.3-2014q1/bin/../lib/gcc/arm-none-eabi/4.8.3/../../../../arm-none-eabi/lib/armv7-m\libc.a(lib_a-fini.o)
 .ARM.attributes
                0x0000127c       0x2d c:/users/fx/appdata/local/arduino15/packages/arduino/tools/arm-none-eabi-gcc/4.8.3-2014q1/bin/../lib/gcc/arm-none-eabi/4.8.3/../../../../arm-none-eabi/lib/armv7-m\libc.a(lib_a-freer.o)
 .ARM.attributes
                0x000012a9       0x2d c:/users/fx/appdata/local/arduino15/packages/arduino/tools/arm-none-eabi-gcc/4.8.3-2014q1/bin/../lib/gcc/arm-none-eabi/4.8.3/../../../../arm-none-eabi/lib/armv7-m\libc.a(lib_a-locale.o)
 .ARM.attributes
                0x000012d6       0x2d c:/users/fx/appdata/local/arduino15/packages/arduino/tools/arm-none-eabi-gcc/4.8.3-2014q1/bin/../lib/gcc/arm-none-eabi/4.8.3/../../../../arm-none-eabi/lib/armv7-m\libc.a(lib_a-mprec.o)
 .ARM.attributes
                0x00001303       0x2d c:/users/fx/appdata/local/arduino15/packages/arduino/tools/arm-none-eabi-gcc/4.8.3-2014q1/bin/../lib/gcc/arm-none-eabi/4.8.3/../../../../arm-none-eabi/lib/armv7-m\libc.a(lib_a-reent.o)
 .ARM.attributes
                0x00001330       0x1b c:/users/fx/appdata/local/arduino15/packages/arduino/tools/arm-none-eabi-gcc/4.8.3-2014q1/bin/../lib/gcc/arm-none-eabi/4.8.3/../../../../arm-none-eabi/lib/armv7-m\libc.a(lib_a-strcmp.o)
 .ARM.attributes
                0x0000134b       0x2d c:/users/fx/appdata/local/arduino15/packages/arduino/tools/arm-none-eabi-gcc/4.8.3-2014q1/bin/../lib/gcc/arm-none-eabi/4.8.3/../../../../arm-none-eabi/lib/armv7-m\libc.a(lib_a-svfiprintf.o)
 .ARM.attributes
                0x00001378       0x2d c:/users/fx/appdata/local/arduino15/packages/arduino/tools/arm-none-eabi-gcc/4.8.3-2014q1/bin/../lib/gcc/arm-none-eabi/4.8.3/../../../../arm-none-eabi/lib/armv7-m\libc.a(lib_a-__atexit.o)
 .ARM.attributes
                0x000013a5       0x2d c:/users/fx/appdata/local/arduino15/packages/arduino/tools/arm-none-eabi-gcc/4.8.3-2014q1/bin/../lib/gcc/arm-none-eabi/4.8.3/../../../../arm-none-eabi/lib/armv7-m\libc.a(lib_a-callocr.o)
 .ARM.attributes
                0x000013d2       0x2d c:/users/fx/appdata/local/arduino15/packages/arduino/tools/arm-none-eabi-gcc/4.8.3-2014q1/bin/../lib/gcc/arm-none-eabi/4.8.3/../../../../arm-none-eabi/lib/armv7-m\libc.a(lib_a-memmove.o)
 .ARM.attributes
                0x000013ff       0x2d c:/users/fx/appdata/local/arduino15/packages/arduino/tools/arm-none-eabi-gcc/4.8.3-2014q1/bin/../lib/gcc/arm-none-eabi/4.8.3/../../../../arm-none-eabi/lib/armv7-m\libc.a(lib_a-reallocr.o)
 .ARM.attributes
                0x0000142c       0x2d c:/users/fx/appdata/local/arduino15/packages/arduino/tools/arm-none-eabi-gcc/4.8.3-2014q1/bin/../lib/gcc/arm-none-eabi/4.8.3/armv7-m/crtend.o
 .ARM.attributes
                0x00001459       0x1d c:/users/fx/appdata/local/arduino15/packages/arduino/tools/arm-none-eabi-gcc/4.8.3-2014q1/bin/../lib/gcc/arm-none-eabi/4.8.3/armv7-m/crtn.o

/DISCARD/
 *(.note.GNU-stack)
OUTPUT(c:\Users\fx\Upwork\weather-node\output/weatherSIM808.ino.elf elf32-littlearm)

.debug_ranges   0x00000000     0x2310
 .debug_ranges  0x00000000       0xd0 c:\Users\fx\Upwork\weather-node\output\sketch\weatherSIM808.ino.cpp.o
 .debug_ranges  0x000000d0       0x10 c:\Users\fx\Upwork\weather-node\output\libraries\FreeRTOS821\MapleFreeRTOS821.cpp.o
 .debug_ranges  0x000000e0       0x78 c:\Users\fx\Upwork\weather-node\output\libraries\FreeRTOS821\utility\event_groups.c.o
 .debug_ranges  0x00000158       0x28 c:\Users\fx\Upwork\weather-node\output\libraries\FreeRTOS821\utility\heap_1.c.o
 .debug_ranges  0x00000180       0x30 c:\Users\fx\Upwork\weather-node\output\libraries\FreeRTOS821\utility\list.c.o
 .debug_ranges  0x000001b0       0x78 c:\Users\fx\Upwork\weather-node\output\libraries\FreeRTOS821\utility\port.c.o
 .debug_ranges  0x00000228       0xc8 c:\Users\fx\Upwork\weather-node\output\libraries\FreeRTOS821\utility\queue.c.o
 .debug_ranges  0x000002f0      0x268 c:\Users\fx\Upwork\weather-node\output\libraries\FreeRTOS821\utility\tasks.c.o
 .debug_ranges  0x00000558      0x130 c:\Users\fx\Upwork\weather-node\output\libraries\DHT_sensor_library\DHT.cpp.o
 .debug_ranges  0x00000688      0x168 c:\Users\fx\Upwork\weather-node\output\libraries\DHT_sensor_library\DHT_U.cpp.o
 .debug_ranges  0x000007f0       0x28 c:\Users\fx\Upwork\weather-node\output\libraries\Adafruit_Unified_Sensor\Adafruit_Sensor.cpp.o
 .debug_ranges  0x00000818       0x38 c:\Users\fx\Upwork\weather-node\output\core\board.cpp.o
 .debug_ranges  0x00000850      0x160 c:\Users\fx\Upwork\weather-node\output\core\wirish\boards.cpp.o
 .debug_ranges  0x000009b0       0x48 c:\Users\fx\Upwork\weather-node\output\core\wirish\boards_setup.cpp.o
 .debug_ranges  0x000009f8       0x10 c:\Users\fx\Upwork\weather-node\output\core\wirish\start_c.c.o
 .debug_ranges  0x00000a08       0x78 c:\Users\fx\Upwork\weather-node\output\core\wirish\syscalls.c.o
 .debug_ranges  0x00000a80       0x90 c:\Users\fx\Upwork\weather-node\output\core\core.a(HardwareSerial.cpp.o)
 .debug_ranges  0x00000b10      0x230 c:\Users\fx\Upwork\weather-node\output\core\core.a(Print.cpp.o)
 .debug_ranges  0x00000d40       0x18 c:\Users\fx\Upwork\weather-node\output\core\core.a(cxxabi-compat.cpp.o)
 .debug_ranges  0x00000d58       0x28 c:\Users\fx\Upwork\weather-node\output\core\core.a(adc.c.o)
 .debug_ranges  0x00000d80       0xb8 c:\Users\fx\Upwork\weather-node\output\core\core.a(adc_f1.c.o)
 .debug_ranges  0x00000e38      0x1d8 c:\Users\fx\Upwork\weather-node\output\core\core.a(dma_f1.c.o)
 .debug_ranges  0x00001010       0xb8 c:\Users\fx\Upwork\weather-node\output\core\core.a(exti.c.o)
 .debug_ranges  0x000010c8       0x10 c:\Users\fx\Upwork\weather-node\output\core\core.a(exti_f1.c.o)
 .debug_ranges  0x000010d8       0x10 c:\Users\fx\Upwork\weather-node\output\core\core.a(flash.c.o)
 .debug_ranges  0x000010e8       0x38 c:\Users\fx\Upwork\weather-node\output\core\core.a(gpio_f1.c.o)
 .debug_ranges  0x00001120       0x90 c:\Users\fx\Upwork\weather-node\output\core\core.a(i2c_f1.c.o)
 .debug_ranges  0x000011b0       0x40 c:\Users\fx\Upwork\weather-node\output\core\core.a(nvic.c.o)
 .debug_ranges  0x000011f0       0x98 c:\Users\fx\Upwork\weather-node\output\core\core.a(rcc.c.o)
 .debug_ranges  0x00001288       0xc8 c:\Users\fx\Upwork\weather-node\output\core\core.a(rcc_f1.c.o)
 .debug_ranges  0x00001350       0x48 c:\Users\fx\Upwork\weather-node\output\core\core.a(systick.c.o)
 .debug_ranges  0x00001398       0xe8 c:\Users\fx\Upwork\weather-node\output\core\core.a(timer.c.o)
 .debug_ranges  0x00001480       0xd0 c:\Users\fx\Upwork\weather-node\output\core\core.a(usart.c.o)
 .debug_ranges  0x00001550       0x90 c:\Users\fx\Upwork\weather-node\output\core\core.a(usart_f1.c.o)
 .debug_ranges  0x000015e0       0x10 c:\Users\fx\Upwork\weather-node\output\core\core.a(usart_private.c.o)
 .debug_ranges  0x000015f0       0xa8 c:\Users\fx\Upwork\weather-node\output\core\core.a(usb.c.o)
 .debug_ranges  0x00001698      0x238 c:\Users\fx\Upwork\weather-node\output\core\core.a(usb_cdcacm.c.o)
 .debug_ranges  0x000018d0       0x60 c:\Users\fx\Upwork\weather-node\output\core\core.a(usb_reg_map.c.o)
 .debug_ranges  0x00001930       0xc0 c:\Users\fx\Upwork\weather-node\output\core\core.a(usb_core.c.o)
 .debug_ranges  0x000019f0       0x10 c:\Users\fx\Upwork\weather-node\output\core\core.a(usb_init.c.o)
 .debug_ranges  0x00001a00       0x38 c:\Users\fx\Upwork\weather-node\output\core\core.a(usb_mem.c.o)
 .debug_ranges  0x00001a38      0x290 c:\Users\fx\Upwork\weather-node\output\core\core.a(usb_regs.c.o)
 .debug_ranges  0x00001cc8       0x58 c:\Users\fx\Upwork\weather-node\output\core\core.a(util.c.o)
 .debug_ranges  0x00001d20       0x18 c:\Users\fx\Upwork\weather-node\output\core\core.a(main.cpp.o)
 .debug_ranges  0x00001d38       0x28 c:\Users\fx\Upwork\weather-node\output\core\core.a(new.cpp.o)
 .debug_ranges  0x00001d60       0x30 c:\Users\fx\Upwork\weather-node\output\core\core.a(wirish_digital_f1.cpp.o)
 .debug_ranges  0x00001d90      0x168 c:\Users\fx\Upwork\weather-node\output\core\core.a(usb_serial.cpp.o)
 .debug_ranges  0x00001ef8       0x50 c:\Users\fx\Upwork\weather-node\output\core\core.a(wirish_digital.cpp.o)
 .debug_ranges  0x00001f48       0x20 c:\Users\fx\Upwork\weather-node\output\core\core.a(wirish_time.cpp.o)
 .debug_ranges  0x00001f68       0x10 c:\Users\fx\Upwork\weather-node\output\core\core.a(hooks.c.o)
 .debug_ranges  0x00001f78       0x30 c:\Users\fx\Upwork\weather-node\output\core\core.a(bkp_f1.c.o)
 .debug_ranges  0x00001fa8       0x18 c:\Users\fx\Upwork\weather-node\output\core\core.a(dma.c.o)
 .debug_ranges  0x00001fc0       0x10 c:\Users\fx\Upwork\weather-node\output\core\core.a(gpio.c.o)
 .debug_ranges  0x00001fd0      0x340 c:\Users\fx\Upwork\weather-node\output\core\core.a(i2c.c.o)

.comment        0x00000000       0x70
 .comment       0x00000000       0x70 c:\Users\fx\Upwork\weather-node\output\sketch\weatherSIM808.ino.cpp.o
                                 0x71 (size before relaxing)
 .comment       0x00000000       0x71 c:\Users\fx\Upwork\weather-node\output\libraries\FreeRTOS821\MapleFreeRTOS821.cpp.o
 .comment       0x00000000       0x71 c:\Users\fx\Upwork\weather-node\output\libraries\FreeRTOS821\utility\croutine.c.o
 .comment       0x00000000       0x71 c:\Users\fx\Upwork\weather-node\output\libraries\FreeRTOS821\utility\event_groups.c.o
 .comment       0x00000000       0x71 c:\Users\fx\Upwork\weather-node\output\libraries\FreeRTOS821\utility\heap_1.c.o
 .comment       0x00000000       0x71 c:\Users\fx\Upwork\weather-node\output\libraries\FreeRTOS821\utility\list.c.o
 .comment       0x00000000       0x71 c:\Users\fx\Upwork\weather-node\output\libraries\FreeRTOS821\utility\port.c.o
 .comment       0x00000000       0x71 c:\Users\fx\Upwork\weather-node\output\libraries\FreeRTOS821\utility\queue.c.o
 .comment       0x00000000       0x71 c:\Users\fx\Upwork\weather-node\output\libraries\FreeRTOS821\utility\tasks.c.o
 .comment       0x00000000       0x71 c:\Users\fx\Upwork\weather-node\output\libraries\FreeRTOS821\utility\timers.c.o
 .comment       0x00000000       0x71 c:\Users\fx\Upwork\weather-node\output\libraries\DHT_sensor_library\DHT.cpp.o
 .comment       0x00000000       0x71 c:\Users\fx\Upwork\weather-node\output\libraries\DHT_sensor_library\DHT_U.cpp.o
 .comment       0x00000000       0x71 c:\Users\fx\Upwork\weather-node\output\libraries\Adafruit_Unified_Sensor\Adafruit_Sensor.cpp.o
 .comment       0x00000000       0x71 c:\Users\fx\Upwork\weather-node\output\core\board.cpp.o
 .comment       0x00000000       0x71 c:\Users\fx\Upwork\weather-node\output\core\wirish\boards.cpp.o
 .comment       0x00000000       0x71 c:\Users\fx\Upwork\weather-node\output\core\wirish\boards_setup.cpp.o
 .comment       0x00000000       0x71 c:\Users\fx\Upwork\weather-node\output\core\wirish\start_c.c.o
 .comment       0x00000000       0x71 c:\Users\fx\Upwork\weather-node\output\core\wirish\syscalls.c.o
 .comment       0x00000000       0x71 c:\Users\fx\Upwork\weather-node\output\core\core.a(HardwareSerial.cpp.o)
 .comment       0x00000000       0x71 c:\Users\fx\Upwork\weather-node\output\core\core.a(Print.cpp.o)
 .comment       0x00000000       0x71 c:\Users\fx\Upwork\weather-node\output\core\core.a(cxxabi-compat.cpp.o)
 .comment       0x00000000       0x71 c:\Users\fx\Upwork\weather-node\output\core\core.a(adc.c.o)
 .comment       0x00000000       0x71 c:\Users\fx\Upwork\weather-node\output\core\core.a(adc_f1.c.o)
 .comment       0x00000000       0x71 c:\Users\fx\Upwork\weather-node\output\core\core.a(dma_f1.c.o)
 .comment       0x00000000       0x71 c:\Users\fx\Upwork\weather-node\output\core\core.a(exti.c.o)
 .comment       0x00000000       0x71 c:\Users\fx\Upwork\weather-node\output\core\core.a(exti_f1.c.o)
 .comment       0x00000000       0x71 c:\Users\fx\Upwork\weather-node\output\core\core.a(flash.c.o)
 .comment       0x00000000       0x71 c:\Users\fx\Upwork\weather-node\output\core\core.a(gpio_f1.c.o)
 .comment       0x00000000       0x71 c:\Users\fx\Upwork\weather-node\output\core\core.a(i2c_f1.c.o)
 .comment       0x00000000       0x71 c:\Users\fx\Upwork\weather-node\output\core\core.a(nvic.c.o)
 .comment       0x00000000       0x71 c:\Users\fx\Upwork\weather-node\output\core\core.a(rcc.c.o)
 .comment       0x00000000       0x71 c:\Users\fx\Upwork\weather-node\output\core\core.a(rcc_f1.c.o)
 .comment       0x00000000       0x71 c:\Users\fx\Upwork\weather-node\output\core\core.a(systick.c.o)
 .comment       0x00000000       0x71 c:\Users\fx\Upwork\weather-node\output\core\core.a(timer.c.o)
 .comment       0x00000000       0x71 c:\Users\fx\Upwork\weather-node\output\core\core.a(usart.c.o)
 .comment       0x00000000       0x71 c:\Users\fx\Upwork\weather-node\output\core\core.a(usart_f1.c.o)
 .comment       0x00000000       0x71 c:\Users\fx\Upwork\weather-node\output\core\core.a(usart_private.c.o)
 .comment       0x00000000       0x71 c:\Users\fx\Upwork\weather-node\output\core\core.a(usb.c.o)
 .comment       0x00000000       0x71 c:\Users\fx\Upwork\weather-node\output\core\core.a(usb_cdcacm.c.o)
 .comment       0x00000000       0x71 c:\Users\fx\Upwork\weather-node\output\core\core.a(usb_reg_map.c.o)
 .comment       0x00000000       0x71 c:\Users\fx\Upwork\weather-node\output\core\core.a(usb_core.c.o)
 .comment       0x00000000       0x71 c:\Users\fx\Upwork\weather-node\output\core\core.a(usb_init.c.o)
 .comment       0x00000000       0x71 c:\Users\fx\Upwork\weather-node\output\core\core.a(usb_mem.c.o)
 .comment       0x00000000       0x71 c:\Users\fx\Upwork\weather-node\output\core\core.a(usb_regs.c.o)
 .comment       0x00000000       0x71 c:\Users\fx\Upwork\weather-node\output\core\core.a(util.c.o)
 .comment       0x00000000       0x71 c:\Users\fx\Upwork\weather-node\output\core\core.a(main.cpp.o)
 .comment       0x00000000       0x71 c:\Users\fx\Upwork\weather-node\output\core\core.a(new.cpp.o)
 .comment       0x00000000       0x71 c:\Users\fx\Upwork\weather-node\output\core\core.a(wirish_digital_f1.cpp.o)
 .comment       0x00000000       0x71 c:\Users\fx\Upwork\weather-node\output\core\core.a(usb_serial.cpp.o)
 .comment       0x00000000       0x71 c:\Users\fx\Upwork\weather-node\output\core\core.a(wirish_digital.cpp.o)
 .comment       0x00000000       0x71 c:\Users\fx\Upwork\weather-node\output\core\core.a(wirish_time.cpp.o)
 .comment       0x00000000       0x71 c:\Users\fx\Upwork\weather-node\output\core\core.a(hooks.c.o)
 .comment       0x00000000       0x71 c:\Users\fx\Upwork\weather-node\output\core\core.a(bkp_f1.c.o)
 .comment       0x00000000       0x71 c:\Users\fx\Upwork\weather-node\output\core\core.a(dma.c.o)
 .comment       0x00000000       0x71 c:\Users\fx\Upwork\weather-node\output\core\core.a(gpio.c.o)
 .comment       0x00000000       0x71 c:\Users\fx\Upwork\weather-node\output\core\core.a(i2c.c.o)

Cross Reference Table

Symbol                                            File
ADC1                                              c:\Users\fx\Upwork\weather-node\output\core\core.a(adc_f1.c.o)
ADC2                                              c:\Users\fx\Upwork\weather-node\output\core\core.a(adc_f1.c.o)
Adafruit_Sensor::enableAutoRange(bool)            c:\Users\fx\Upwork\weather-node\output\libraries\DHT_sensor_library\DHT_U.cpp.o
Adafruit_Sensor::printSensorDetails()             c:\Users\fx\Upwork\weather-node\output\libraries\Adafruit_Unified_Sensor\Adafruit_Sensor.cpp.o
Adafruit_Sensor::~Adafruit_Sensor()               c:\Users\fx\Upwork\weather-node\output\libraries\DHT_sensor_library\DHT_U.cpp.o
Adafruit_Sensor::~Adafruit_Sensor()               c:\Users\fx\Upwork\weather-node\output\libraries\DHT_sensor_library\DHT_U.cpp.o
Adafruit_Sensor::~Adafruit_Sensor()               c:\Users\fx\Upwork\weather-node\output\libraries\DHT_sensor_library\DHT_U.cpp.o
BKP                                               c:\Users\fx\Upwork\weather-node\output\core\core.a(bkp_f1.c.o)
ByteSwap                                          c:\Users\fx\Upwork\weather-node\output\core\core.a(usb_regs.c.o)
ClearDTOG_RX                                      c:\Users\fx\Upwork\weather-node\output\core\core.a(usb_regs.c.o)
                                                  c:\Users\fx\Upwork\weather-node\output\core\core.a(usb_core.c.o)
ClearDTOG_TX                                      c:\Users\fx\Upwork\weather-node\output\core\core.a(usb_regs.c.o)
                                                  c:\Users\fx\Upwork\weather-node\output\core\core.a(usb_core.c.o)
ClearEPDoubleBuff                                 c:\Users\fx\Upwork\weather-node\output\core\core.a(usb_regs.c.o)
ClearEP_CTR_RX                                    c:\Users\fx\Upwork\weather-node\output\core\core.a(usb_regs.c.o)
ClearEP_CTR_TX                                    c:\Users\fx\Upwork\weather-node\output\core\core.a(usb_regs.c.o)
ClearEP_KIND                                      c:\Users\fx\Upwork\weather-node\output\core\core.a(usb_regs.c.o)
Clear_Status_Out                                  c:\Users\fx\Upwork\weather-node\output\core\core.a(usb_regs.c.o)
DHT::DHT(unsigned char, unsigned char, unsigned char) c:\Users\fx\Upwork\weather-node\output\libraries\DHT_sensor_library\DHT.cpp.o
                                                  c:\Users\fx\Upwork\weather-node\output\libraries\DHT_sensor_library\DHT_U.cpp.o
                                                  c:\Users\fx\Upwork\weather-node\output\sketch\weatherSIM808.ino.cpp.o
DHT::DHT(unsigned char, unsigned char, unsigned char) c:\Users\fx\Upwork\weather-node\output\libraries\DHT_sensor_library\DHT.cpp.o
DHT::begin(unsigned char)                         c:\Users\fx\Upwork\weather-node\output\libraries\DHT_sensor_library\DHT.cpp.o
                                                  c:\Users\fx\Upwork\weather-node\output\libraries\DHT_sensor_library\DHT_U.cpp.o
                                                  c:\Users\fx\Upwork\weather-node\output\sketch\weatherSIM808.ino.cpp.o
DHT::computeHeatIndex(bool)                       c:\Users\fx\Upwork\weather-node\output\libraries\DHT_sensor_library\DHT.cpp.o
DHT::computeHeatIndex(float, float, bool)         c:\Users\fx\Upwork\weather-node\output\libraries\DHT_sensor_library\DHT.cpp.o
DHT::convertCtoF(float)                           c:\Users\fx\Upwork\weather-node\output\libraries\DHT_sensor_library\DHT.cpp.o
DHT::convertFtoC(float)                           c:\Users\fx\Upwork\weather-node\output\libraries\DHT_sensor_library\DHT.cpp.o
DHT::expectPulse(bool)                            c:\Users\fx\Upwork\weather-node\output\libraries\DHT_sensor_library\DHT.cpp.o
DHT::read(bool)                                   c:\Users\fx\Upwork\weather-node\output\libraries\DHT_sensor_library\DHT.cpp.o
DHT::readHumidity(bool)                           c:\Users\fx\Upwork\weather-node\output\libraries\DHT_sensor_library\DHT.cpp.o
                                                  c:\Users\fx\Upwork\weather-node\output\libraries\DHT_sensor_library\DHT_U.cpp.o
                                                  c:\Users\fx\Upwork\weather-node\output\sketch\weatherSIM808.ino.cpp.o
DHT::readTemperature(bool, bool)                  c:\Users\fx\Upwork\weather-node\output\libraries\DHT_sensor_library\DHT.cpp.o
                                                  c:\Users\fx\Upwork\weather-node\output\libraries\DHT_sensor_library\DHT_U.cpp.o
                                                  c:\Users\fx\Upwork\weather-node\output\sketch\weatherSIM808.ino.cpp.o
DHT_Unified::DHT_Unified(unsigned char, unsigned char, unsigned char, long, long) c:\Users\fx\Upwork\weather-node\output\libraries\DHT_sensor_library\DHT_U.cpp.o
DHT_Unified::DHT_Unified(unsigned char, unsigned char, unsigned char, long, long) c:\Users\fx\Upwork\weather-node\output\libraries\DHT_sensor_library\DHT_U.cpp.o
DHT_Unified::Humidity::Humidity(DHT_Unified*, long) c:\Users\fx\Upwork\weather-node\output\libraries\DHT_sensor_library\DHT_U.cpp.o
DHT_Unified::Humidity::Humidity(DHT_Unified*, long) c:\Users\fx\Upwork\weather-node\output\libraries\DHT_sensor_library\DHT_U.cpp.o
DHT_Unified::Humidity::getEvent(sensors_event_t*) c:\Users\fx\Upwork\weather-node\output\libraries\DHT_sensor_library\DHT_U.cpp.o
DHT_Unified::Humidity::getSensor(sensor_t*)       c:\Users\fx\Upwork\weather-node\output\libraries\DHT_sensor_library\DHT_U.cpp.o
DHT_Unified::Humidity::~Humidity()                c:\Users\fx\Upwork\weather-node\output\libraries\DHT_sensor_library\DHT_U.cpp.o
DHT_Unified::Humidity::~Humidity()                c:\Users\fx\Upwork\weather-node\output\libraries\DHT_sensor_library\DHT_U.cpp.o
DHT_Unified::Humidity::~Humidity()                c:\Users\fx\Upwork\weather-node\output\libraries\DHT_sensor_library\DHT_U.cpp.o
DHT_Unified::Temperature::Temperature(DHT_Unified*, long) c:\Users\fx\Upwork\weather-node\output\libraries\DHT_sensor_library\DHT_U.cpp.o
DHT_Unified::Temperature::Temperature(DHT_Unified*, long) c:\Users\fx\Upwork\weather-node\output\libraries\DHT_sensor_library\DHT_U.cpp.o
DHT_Unified::Temperature::getEvent(sensors_event_t*) c:\Users\fx\Upwork\weather-node\output\libraries\DHT_sensor_library\DHT_U.cpp.o
DHT_Unified::Temperature::getSensor(sensor_t*)    c:\Users\fx\Upwork\weather-node\output\libraries\DHT_sensor_library\DHT_U.cpp.o
DHT_Unified::Temperature::~Temperature()          c:\Users\fx\Upwork\weather-node\output\libraries\DHT_sensor_library\DHT_U.cpp.o
DHT_Unified::Temperature::~Temperature()          c:\Users\fx\Upwork\weather-node\output\libraries\DHT_sensor_library\DHT_U.cpp.o
DHT_Unified::Temperature::~Temperature()          c:\Users\fx\Upwork\weather-node\output\libraries\DHT_sensor_library\DHT_U.cpp.o
DHT_Unified::begin()                              c:\Users\fx\Upwork\weather-node\output\libraries\DHT_sensor_library\DHT_U.cpp.o
DHT_Unified::setMinDelay(sensor_t*)               c:\Users\fx\Upwork\weather-node\output\libraries\DHT_sensor_library\DHT_U.cpp.o
DHT_Unified::setName(sensor_t*)                   c:\Users\fx\Upwork\weather-node\output\libraries\DHT_sensor_library\DHT_U.cpp.o
DMA1                                              c:\Users\fx\Upwork\weather-node\output\core\core.a(dma_f1.c.o)
Data_Mul_MaxPacketSize                            c:\Users\fx\Upwork\weather-node\output\core\core.a(usb_core.c.o)
Device_Info                                       c:\Users\fx\Upwork\weather-node\output\core\core.a(usb_init.c.o)
                                                  c:\Users\fx\Upwork\weather-node\output\core\core.a(usb.c.o)
Device_Property                                   c:\Users\fx\Upwork\weather-node\output\core\core.a(usb_cdcacm.c.o)
                                                  c:\Users\fx\Upwork\weather-node\output\core\core.a(usb_init.c.o)
                                                  c:\Users\fx\Upwork\weather-node\output\core\core.a(usb_core.c.o)
                                                  c:\Users\fx\Upwork\weather-node\output\core\core.a(usb.c.o)
Device_Table                                      c:\Users\fx\Upwork\weather-node\output\core\core.a(usb_cdcacm.c.o)
                                                  c:\Users\fx\Upwork\weather-node\output\core\core.a(usb_core.c.o)
EPindex                                           c:\Users\fx\Upwork\weather-node\output\core\core.a(usb_init.c.o)
FreeUserBuffer                                    c:\Users\fx\Upwork\weather-node\output\core\core.a(usb_regs.c.o)
GPIOA                                             c:\Users\fx\Upwork\weather-node\output\core\core.a(gpio_f1.c.o)
GPIOB                                             c:\Users\fx\Upwork\weather-node\output\core\core.a(gpio_f1.c.o)
GPIOC                                             c:\Users\fx\Upwork\weather-node\output\core\core.a(gpio_f1.c.o)
                                                  c:\Users\fx\Upwork\weather-node\output\core\core.a(util.c.o)
GPIOD                                             c:\Users\fx\Upwork\weather-node\output\core\core.a(gpio_f1.c.o)
GetBTABLE                                         c:\Users\fx\Upwork\weather-node\output\core\core.a(usb_regs.c.o)
GetCNTR                                           c:\Users\fx\Upwork\weather-node\output\core\core.a(usb_regs.c.o)
GetDADDR                                          c:\Users\fx\Upwork\weather-node\output\core\core.a(usb_regs.c.o)
GetENDPOINT                                       c:\Users\fx\Upwork\weather-node\output\core\core.a(usb_regs.c.o)
GetEPAddress                                      c:\Users\fx\Upwork\weather-node\output\core\core.a(usb_regs.c.o)
GetEPDblBuf0Addr                                  c:\Users\fx\Upwork\weather-node\output\core\core.a(usb_regs.c.o)
GetEPDblBuf0Count                                 c:\Users\fx\Upwork\weather-node\output\core\core.a(usb_regs.c.o)
GetEPDblBuf1Addr                                  c:\Users\fx\Upwork\weather-node\output\core\core.a(usb_regs.c.o)
GetEPDblBuf1Count                                 c:\Users\fx\Upwork\weather-node\output\core\core.a(usb_regs.c.o)
GetEPDblBufDir                                    c:\Users\fx\Upwork\weather-node\output\core\core.a(usb_regs.c.o)
GetEPRxAddr                                       c:\Users\fx\Upwork\weather-node\output\core\core.a(usb_regs.c.o)
                                                  c:\Users\fx\Upwork\weather-node\output\core\core.a(usb_core.c.o)
GetEPRxCount                                      c:\Users\fx\Upwork\weather-node\output\core\core.a(usb_regs.c.o)
GetEPRxStatus                                     c:\Users\fx\Upwork\weather-node\output\core\core.a(usb_regs.c.o)
GetEPTxAddr                                       c:\Users\fx\Upwork\weather-node\output\core\core.a(usb_regs.c.o)
                                                  c:\Users\fx\Upwork\weather-node\output\core\core.a(usb_core.c.o)
GetEPTxCount                                      c:\Users\fx\Upwork\weather-node\output\core\core.a(usb_regs.c.o)
GetEPTxStatus                                     c:\Users\fx\Upwork\weather-node\output\core\core.a(usb_regs.c.o)
GetEPType                                         c:\Users\fx\Upwork\weather-node\output\core\core.a(usb_regs.c.o)
GetFNR                                            c:\Users\fx\Upwork\weather-node\output\core\core.a(usb_regs.c.o)
GetISTR                                           c:\Users\fx\Upwork\weather-node\output\core\core.a(usb_regs.c.o)
GetRxStallStatus                                  c:\Users\fx\Upwork\weather-node\output\core\core.a(usb_regs.c.o)
GetTxStallStatus                                  c:\Users\fx\Upwork\weather-node\output\core\core.a(usb_regs.c.o)
HardwareSerial::HardwareSerial(usart_dev*, unsigned char, unsigned char) c:\Users\fx\Upwork\weather-node\output\core\core.a(HardwareSerial.cpp.o)
HardwareSerial::HardwareSerial(usart_dev*, unsigned char, unsigned char) c:\Users\fx\Upwork\weather-node\output\core\core.a(HardwareSerial.cpp.o)
                                                  c:\Users\fx\Upwork\weather-node\output\core\board.cpp.o
HardwareSerial::available()                       c:\Users\fx\Upwork\weather-node\output\core\core.a(HardwareSerial.cpp.o)
                                                  c:\Users\fx\Upwork\weather-node\output\sketch\weatherSIM808.ino.cpp.o
HardwareSerial::availableForWrite()               c:\Users\fx\Upwork\weather-node\output\core\core.a(HardwareSerial.cpp.o)
HardwareSerial::begin(unsigned long)              c:\Users\fx\Upwork\weather-node\output\core\core.a(HardwareSerial.cpp.o)
                                                  c:\Users\fx\Upwork\weather-node\output\sketch\weatherSIM808.ino.cpp.o
HardwareSerial::begin(unsigned long, unsigned char) c:\Users\fx\Upwork\weather-node\output\core\core.a(HardwareSerial.cpp.o)
HardwareSerial::end()                             c:\Users\fx\Upwork\weather-node\output\core\core.a(HardwareSerial.cpp.o)
HardwareSerial::flush()                           c:\Users\fx\Upwork\weather-node\output\core\core.a(HardwareSerial.cpp.o)
HardwareSerial::peek()                            c:\Users\fx\Upwork\weather-node\output\core\core.a(HardwareSerial.cpp.o)
HardwareSerial::read()                            c:\Users\fx\Upwork\weather-node\output\core\core.a(HardwareSerial.cpp.o)
                                                  c:\Users\fx\Upwork\weather-node\output\sketch\weatherSIM808.ino.cpp.o
HardwareSerial::write(unsigned char)              c:\Users\fx\Upwork\weather-node\output\core\core.a(HardwareSerial.cpp.o)
I2C1                                              c:\Users\fx\Upwork\weather-node\output\core\core.a(i2c_f1.c.o)
                                                  c:\Users\fx\Upwork\weather-node\output\core\core.a(i2c.c.o)
I2C2                                              c:\Users\fx\Upwork\weather-node\output\core\core.a(i2c_f1.c.o)
In0_Process                                       c:\Users\fx\Upwork\weather-node\output\core\core.a(usb_core.c.o)
                                                  c:\Users\fx\Upwork\weather-node\output\core\core.a(usb.c.o)
NOP_Process                                       c:\Users\fx\Upwork\weather-node\output\core\core.a(usb_core.c.o)
                                                  c:\Users\fx\Upwork\weather-node\output\core\core.a(usb_cdcacm.c.o)
Out0_Process                                      c:\Users\fx\Upwork\weather-node\output\core\core.a(usb_core.c.o)
                                                  c:\Users\fx\Upwork\weather-node\output\core\core.a(usb.c.o)
PIN_MAP                                           c:\Users\fx\Upwork\weather-node\output\core\board.cpp.o
                                                  c:\Users\fx\Upwork\weather-node\output\core\core.a(wirish_digital.cpp.o)
                                                  c:\Users\fx\Upwork\weather-node\output\core\core.a(wirish_digital_f1.cpp.o)
                                                  c:\Users\fx\Upwork\weather-node\output\core\core.a(HardwareSerial.cpp.o)
                                                  c:\Users\fx\Upwork\weather-node\output\core\wirish\boards_setup.cpp.o
PMAToUserBufferCopy                               c:\Users\fx\Upwork\weather-node\output\core\core.a(usb_mem.c.o)
                                                  c:\Users\fx\Upwork\weather-node\output\core\core.a(usb_core.c.o)
Post0_Process                                     c:\Users\fx\Upwork\weather-node\output\core\core.a(usb_core.c.o)
Print::print(Printable const&)                    c:\Users\fx\Upwork\weather-node\output\core\core.a(Print.cpp.o)
Print::print(String const&)                       c:\Users\fx\Upwork\weather-node\output\core\core.a(Print.cpp.o)
Print::print(__FlashStringHelper const*)          c:\Users\fx\Upwork\weather-node\output\core\core.a(Print.cpp.o)
                                                  c:\Users\fx\Upwork\weather-node\output\libraries\Adafruit_Unified_Sensor\Adafruit_Sensor.cpp.o
Print::print(char const*)                         c:\Users\fx\Upwork\weather-node\output\core\core.a(Print.cpp.o)
                                                  c:\Users\fx\Upwork\weather-node\output\sketch\weatherSIM808.ino.cpp.o
Print::print(char)                                c:\Users\fx\Upwork\weather-node\output\core\core.a(Print.cpp.o)
                                                  c:\Users\fx\Upwork\weather-node\output\sketch\weatherSIM808.ino.cpp.o
Print::print(double, int)                         c:\Users\fx\Upwork\weather-node\output\core\core.a(Print.cpp.o)
Print::print(int, int)                            c:\Users\fx\Upwork\weather-node\output\core\core.a(Print.cpp.o)
                                                  c:\Users\fx\Upwork\weather-node\output\sketch\weatherSIM808.ino.cpp.o
Print::print(long long, int)                      c:\Users\fx\Upwork\weather-node\output\core\core.a(Print.cpp.o)
Print::print(long, int)                           c:\Users\fx\Upwork\weather-node\output\core\core.a(Print.cpp.o)
Print::print(unsigned char, int)                  c:\Users\fx\Upwork\weather-node\output\core\core.a(Print.cpp.o)
Print::print(unsigned int, int)                   c:\Users\fx\Upwork\weather-node\output\core\core.a(Print.cpp.o)
Print::print(unsigned long long, int)             c:\Users\fx\Upwork\weather-node\output\core\core.a(Print.cpp.o)
Print::print(unsigned long, int)                  c:\Users\fx\Upwork\weather-node\output\core\core.a(Print.cpp.o)
Print::printFloat(double, unsigned char)          c:\Users\fx\Upwork\weather-node\output\core\core.a(Print.cpp.o)
Print::printNumber(unsigned long long, unsigned char) c:\Users\fx\Upwork\weather-node\output\core\core.a(Print.cpp.o)
Print::println()                                  c:\Users\fx\Upwork\weather-node\output\core\core.a(Print.cpp.o)
                                                  c:\Users\fx\Upwork\weather-node\output\libraries\Adafruit_Unified_Sensor\Adafruit_Sensor.cpp.o
Print::println(Printable const&)                  c:\Users\fx\Upwork\weather-node\output\core\core.a(Print.cpp.o)
Print::println(String const&)                     c:\Users\fx\Upwork\weather-node\output\core\core.a(Print.cpp.o)
Print::println(__FlashStringHelper const*)        c:\Users\fx\Upwork\weather-node\output\core\core.a(Print.cpp.o)
                                                  c:\Users\fx\Upwork\weather-node\output\libraries\Adafruit_Unified_Sensor\Adafruit_Sensor.cpp.o
Print::println(char const*)                       c:\Users\fx\Upwork\weather-node\output\core\core.a(Print.cpp.o)
                                                  c:\Users\fx\Upwork\weather-node\output\libraries\Adafruit_Unified_Sensor\Adafruit_Sensor.cpp.o
                                                  c:\Users\fx\Upwork\weather-node\output\sketch\weatherSIM808.ino.cpp.o
Print::println(char)                              c:\Users\fx\Upwork\weather-node\output\core\core.a(Print.cpp.o)
Print::println(double, int)                       c:\Users\fx\Upwork\weather-node\output\core\core.a(Print.cpp.o)
                                                  c:\Users\fx\Upwork\weather-node\output\libraries\Adafruit_Unified_Sensor\Adafruit_Sensor.cpp.o
Print::println(int, int)                          c:\Users\fx\Upwork\weather-node\output\core\core.a(Print.cpp.o)
Print::println(long long, int)                    c:\Users\fx\Upwork\weather-node\output\core\core.a(Print.cpp.o)
Print::println(long, int)                         c:\Users\fx\Upwork\weather-node\output\core\core.a(Print.cpp.o)
                                                  c:\Users\fx\Upwork\weather-node\output\libraries\Adafruit_Unified_Sensor\Adafruit_Sensor.cpp.o
Print::println(unsigned char, int)                c:\Users\fx\Upwork\weather-node\output\core\core.a(Print.cpp.o)
Print::println(unsigned int, int)                 c:\Users\fx\Upwork\weather-node\output\core\core.a(Print.cpp.o)
Print::println(unsigned long long, int)           c:\Users\fx\Upwork\weather-node\output\core\core.a(Print.cpp.o)
Print::println(unsigned long, int)                c:\Users\fx\Upwork\weather-node\output\core\core.a(Print.cpp.o)
Print::write(char const*)                         c:\Users\fx\Upwork\weather-node\output\core\core.a(Print.cpp.o)
                                                  c:\Users\fx\Upwork\weather-node\output\core\core.a(usb_serial.cpp.o)
                                                  c:\Users\fx\Upwork\weather-node\output\core\core.a(HardwareSerial.cpp.o)
Print::write(void const*, unsigned long)          c:\Users\fx\Upwork\weather-node\output\core\core.a(Print.cpp.o)
                                                  c:\Users\fx\Upwork\weather-node\output\core\core.a(usb_serial.cpp.o)
                                                  c:\Users\fx\Upwork\weather-node\output\core\core.a(HardwareSerial.cpp.o)
ResumeS                                           c:\Users\fx\Upwork\weather-node\output\core\core.a(usb.c.o)
SaveRState                                        c:\Users\fx\Upwork\weather-node\output\core\core.a(usb_core.c.o)
                                                  c:\Users\fx\Upwork\weather-node\output\core\core.a(usb.c.o)
SaveState                                         c:\Users\fx\Upwork\weather-node\output\core\core.a(usb_init.c.o)
SaveTState                                        c:\Users\fx\Upwork\weather-node\output\core\core.a(usb_core.c.o)
                                                  c:\Users\fx\Upwork\weather-node\output\core\core.a(usb.c.o)
Serial                                            c:\Users\fx\Upwork\weather-node\output\core\core.a(usb_serial.cpp.o)
                                                  c:\Users\fx\Upwork\weather-node\output\core\wirish\boards_setup.cpp.o
                                                  c:\Users\fx\Upwork\weather-node\output\libraries\Adafruit_Unified_Sensor\Adafruit_Sensor.cpp.o
                                                  c:\Users\fx\Upwork\weather-node\output\sketch\weatherSIM808.ino.cpp.o
Serial1                                           c:\Users\fx\Upwork\weather-node\output\core\board.cpp.o
                                                  c:\Users\fx\Upwork\weather-node\output\sketch\weatherSIM808.ino.cpp.o
Serial2                                           c:\Users\fx\Upwork\weather-node\output\core\board.cpp.o
                                                  c:\Users\fx\Upwork\weather-node\output\sketch\weatherSIM808.ino.cpp.o
Serial3                                           c:\Users\fx\Upwork\weather-node\output\core\board.cpp.o
                                                  c:\Users\fx\Upwork\weather-node\output\sketch\weatherSIM808.ino.cpp.o
SetBTABLE                                         c:\Users\fx\Upwork\weather-node\output\core\core.a(usb_regs.c.o)
SetCNTR                                           c:\Users\fx\Upwork\weather-node\output\core\core.a(usb_regs.c.o)
SetDADDR                                          c:\Users\fx\Upwork\weather-node\output\core\core.a(usb_regs.c.o)
SetDeviceAddress                                  c:\Users\fx\Upwork\weather-node\output\core\core.a(usb_core.c.o)
                                                  c:\Users\fx\Upwork\weather-node\output\core\core.a(usb_cdcacm.c.o)
SetDouBleBuffEPStall                              c:\Users\fx\Upwork\weather-node\output\core\core.a(usb_regs.c.o)
SetENDPOINT                                       c:\Users\fx\Upwork\weather-node\output\core\core.a(usb_regs.c.o)
SetEPAddress                                      c:\Users\fx\Upwork\weather-node\output\core\core.a(usb_regs.c.o)
SetEPCountRxReg                                   c:\Users\fx\Upwork\weather-node\output\core\core.a(usb_regs.c.o)
SetEPDblBuf0Addr                                  c:\Users\fx\Upwork\weather-node\output\core\core.a(usb_regs.c.o)
SetEPDblBuf0Count                                 c:\Users\fx\Upwork\weather-node\output\core\core.a(usb_regs.c.o)
SetEPDblBuf1Addr                                  c:\Users\fx\Upwork\weather-node\output\core\core.a(usb_regs.c.o)
SetEPDblBuf1Count                                 c:\Users\fx\Upwork\weather-node\output\core\core.a(usb_regs.c.o)
SetEPDblBuffAddr                                  c:\Users\fx\Upwork\weather-node\output\core\core.a(usb_regs.c.o)
SetEPDblBuffCount                                 c:\Users\fx\Upwork\weather-node\output\core\core.a(usb_regs.c.o)
SetEPDoubleBuff                                   c:\Users\fx\Upwork\weather-node\output\core\core.a(usb_regs.c.o)
SetEPRxAddr                                       c:\Users\fx\Upwork\weather-node\output\core\core.a(usb_regs.c.o)
SetEPRxCount                                      c:\Users\fx\Upwork\weather-node\output\core\core.a(usb_regs.c.o)
                                                  c:\Users\fx\Upwork\weather-node\output\core\core.a(usb_core.c.o)
SetEPRxStatus                                     c:\Users\fx\Upwork\weather-node\output\core\core.a(usb_regs.c.o)
SetEPRxValid                                      c:\Users\fx\Upwork\weather-node\output\core\core.a(usb_regs.c.o)
SetEPTxAddr                                       c:\Users\fx\Upwork\weather-node\output\core\core.a(usb_regs.c.o)
SetEPTxCount                                      c:\Users\fx\Upwork\weather-node\output\core\core.a(usb_regs.c.o)
                                                  c:\Users\fx\Upwork\weather-node\output\core\core.a(usb_core.c.o)
SetEPTxStatus                                     c:\Users\fx\Upwork\weather-node\output\core\core.a(usb_regs.c.o)
                                                  c:\Users\fx\Upwork\weather-node\output\core\core.a(usb_core.c.o)
SetEPTxValid                                      c:\Users\fx\Upwork\weather-node\output\core\core.a(usb_regs.c.o)
SetEPType                                         c:\Users\fx\Upwork\weather-node\output\core\core.a(usb_regs.c.o)
SetEP_KIND                                        c:\Users\fx\Upwork\weather-node\output\core\core.a(usb_regs.c.o)
SetISTR                                           c:\Users\fx\Upwork\weather-node\output\core\core.a(usb_regs.c.o)
Set_Status_Out                                    c:\Users\fx\Upwork\weather-node\output\core\core.a(usb_regs.c.o)
Setup0_Process                                    c:\Users\fx\Upwork\weather-node\output\core\core.a(usb_core.c.o)
                                                  c:\Users\fx\Upwork\weather-node\output\core\core.a(usb.c.o)
Standard_ClearFeature                             c:\Users\fx\Upwork\weather-node\output\core\core.a(usb_core.c.o)
Standard_GetConfiguration                         c:\Users\fx\Upwork\weather-node\output\core\core.a(usb_core.c.o)
Standard_GetDescriptorData                        c:\Users\fx\Upwork\weather-node\output\core\core.a(usb_core.c.o)
                                                  c:\Users\fx\Upwork\weather-node\output\core\core.a(usb_cdcacm.c.o)
Standard_GetInterface                             c:\Users\fx\Upwork\weather-node\output\core\core.a(usb_core.c.o)
Standard_GetStatus                                c:\Users\fx\Upwork\weather-node\output\core\core.a(usb_core.c.o)
Standard_SetConfiguration                         c:\Users\fx\Upwork\weather-node\output\core\core.a(usb_core.c.o)
Standard_SetDeviceFeature                         c:\Users\fx\Upwork\weather-node\output\core\core.a(usb_core.c.o)
Standard_SetEndPointFeature                       c:\Users\fx\Upwork\weather-node\output\core\core.a(usb_core.c.o)
Standard_SetInterface                             c:\Users\fx\Upwork\weather-node\output\core\core.a(usb_core.c.o)
StatusInfo                                        c:\Users\fx\Upwork\weather-node\output\core\core.a(usb_core.c.o)
TIMER1                                            c:\Users\fx\Upwork\weather-node\output\core\core.a(timer.c.o)
TIMER2                                            c:\Users\fx\Upwork\weather-node\output\core\core.a(timer.c.o)
TIMER3                                            c:\Users\fx\Upwork\weather-node\output\core\core.a(timer.c.o)
TIMER4                                            c:\Users\fx\Upwork\weather-node\output\core\core.a(timer.c.o)
ToWord                                            c:\Users\fx\Upwork\weather-node\output\core\core.a(usb_regs.c.o)
ToggleDTOG_RX                                     c:\Users\fx\Upwork\weather-node\output\core\core.a(usb_regs.c.o)
ToggleDTOG_TX                                     c:\Users\fx\Upwork\weather-node\output\core\core.a(usb_regs.c.o)
USART1                                            c:\Users\fx\Upwork\weather-node\output\core\core.a(usart_f1.c.o)
                                                  c:\Users\fx\Upwork\weather-node\output\core\board.cpp.o
USART2                                            c:\Users\fx\Upwork\weather-node\output\core\core.a(usart_f1.c.o)
                                                  c:\Users\fx\Upwork\weather-node\output\core\board.cpp.o
USART3                                            c:\Users\fx\Upwork\weather-node\output\core\core.a(usart_f1.c.o)
                                                  c:\Users\fx\Upwork\weather-node\output\core\board.cpp.o
USBLIB                                            c:\Users\fx\Upwork\weather-node\output\core\core.a(usb.c.o)
                                                  c:\Users\fx\Upwork\weather-node\output\core\core.a(usb_serial.cpp.o)
                                                  c:\Users\fx\Upwork\weather-node\output\core\core.a(usb_cdcacm.c.o)
USBSerial::USBSerial()                            c:\Users\fx\Upwork\weather-node\output\core\core.a(usb_serial.cpp.o)
USBSerial::USBSerial()                            c:\Users\fx\Upwork\weather-node\output\core\core.a(usb_serial.cpp.o)
USBSerial::_hasBegun                              c:\Users\fx\Upwork\weather-node\output\core\core.a(usb_serial.cpp.o)
USBSerial::_isBlocking                            c:\Users\fx\Upwork\weather-node\output\core\core.a(usb_serial.cpp.o)
USBSerial::available()                            c:\Users\fx\Upwork\weather-node\output\core\core.a(usb_serial.cpp.o)
USBSerial::availableForWrite()                    c:\Users\fx\Upwork\weather-node\output\core\core.a(usb_serial.cpp.o)
USBSerial::begin()                                c:\Users\fx\Upwork\weather-node\output\core\core.a(usb_serial.cpp.o)
                                                  c:\Users\fx\Upwork\weather-node\output\core\wirish\boards_setup.cpp.o
USBSerial::begin(unsigned long)                   c:\Users\fx\Upwork\weather-node\output\core\core.a(usb_serial.cpp.o)
                                                  c:\Users\fx\Upwork\weather-node\output\sketch\weatherSIM808.ino.cpp.o
USBSerial::begin(unsigned long, unsigned char)    c:\Users\fx\Upwork\weather-node\output\core\core.a(usb_serial.cpp.o)
USBSerial::disableBlockingTx()                    c:\Users\fx\Upwork\weather-node\output\core\core.a(usb_serial.cpp.o)
USBSerial::enableBlockingTx()                     c:\Users\fx\Upwork\weather-node\output\core\core.a(usb_serial.cpp.o)
USBSerial::end()                                  c:\Users\fx\Upwork\weather-node\output\core\core.a(usb_serial.cpp.o)
USBSerial::flush()                                c:\Users\fx\Upwork\weather-node\output\core\core.a(usb_serial.cpp.o)
USBSerial::getDTR()                               c:\Users\fx\Upwork\weather-node\output\core\core.a(usb_serial.cpp.o)
USBSerial::getRTS()                               c:\Users\fx\Upwork\weather-node\output\core\core.a(usb_serial.cpp.o)
USBSerial::operator bool()                        c:\Users\fx\Upwork\weather-node\output\core\core.a(usb_serial.cpp.o)
USBSerial::peek()                                 c:\Users\fx\Upwork\weather-node\output\core\core.a(usb_serial.cpp.o)
USBSerial::pending()                              c:\Users\fx\Upwork\weather-node\output\core\core.a(usb_serial.cpp.o)
USBSerial::read()                                 c:\Users\fx\Upwork\weather-node\output\core\core.a(usb_serial.cpp.o)
USBSerial::read(unsigned char*, unsigned long)    c:\Users\fx\Upwork\weather-node\output\core\core.a(usb_serial.cpp.o)
USBSerial::readBytes(char*, unsigned int const&)  c:\Users\fx\Upwork\weather-node\output\core\core.a(usb_serial.cpp.o)
USBSerial::write(char const*)                     c:\Users\fx\Upwork\weather-node\output\core\core.a(usb_serial.cpp.o)
USBSerial::write(unsigned char const*, unsigned long) c:\Users\fx\Upwork\weather-node\output\core\core.a(usb_serial.cpp.o)
USBSerial::write(unsigned char)                   c:\Users\fx\Upwork\weather-node\output\core\core.a(usb_serial.cpp.o)
USB_Init                                          c:\Users\fx\Upwork\weather-node\output\core\core.a(usb_init.c.o)
UserToPMABufferCopy                               c:\Users\fx\Upwork\weather-node\output\core\core.a(usb_mem.c.o)
                                                  c:\Users\fx\Upwork\weather-node\output\core\core.a(usb_core.c.o)
User_Standard_Requests                            c:\Users\fx\Upwork\weather-node\output\core\core.a(usb_cdcacm.c.o)
                                                  c:\Users\fx\Upwork\weather-node\output\core\core.a(usb_init.c.o)
                                                  c:\Users\fx\Upwork\weather-node\output\core\core.a(usb.c.o)
_Balloc                                           c:/users/fx/appdata/local/arduino15/packages/arduino/tools/arm-none-eabi-gcc/4.8.3-2014q1/bin/../lib/gcc/arm-none-eabi/4.8.3/../../../../arm-none-eabi/lib/armv7-m\libc.a(lib_a-mprec.o)
                                                  c:/users/fx/appdata/local/arduino15/packages/arduino/tools/arm-none-eabi-gcc/4.8.3-2014q1/bin/../lib/gcc/arm-none-eabi/4.8.3/../../../../arm-none-eabi/lib/armv7-m\libc.a(lib_a-dtoa.o)
_Bfree                                            c:/users/fx/appdata/local/arduino15/packages/arduino/tools/arm-none-eabi-gcc/4.8.3-2014q1/bin/../lib/gcc/arm-none-eabi/4.8.3/../../../../arm-none-eabi/lib/armv7-m\libc.a(lib_a-mprec.o)
                                                  c:/users/fx/appdata/local/arduino15/packages/arduino/tools/arm-none-eabi-gcc/4.8.3-2014q1/bin/../lib/gcc/arm-none-eabi/4.8.3/../../../../arm-none-eabi/lib/armv7-m\libc.a(lib_a-dtoa.o)
_Jv_RegisterClasses                               c:/users/fx/appdata/local/arduino15/packages/arduino/tools/arm-none-eabi-gcc/4.8.3-2014q1/bin/../lib/gcc/arm-none-eabi/4.8.3/armv7-m/crtbegin.o
_PathLocale                                       c:/users/fx/appdata/local/arduino15/packages/arduino/tools/arm-none-eabi-gcc/4.8.3-2014q1/bin/../lib/gcc/arm-none-eabi/4.8.3/../../../../arm-none-eabi/lib/armv7-m\libc.a(lib_a-locale.o)
__adddf3                                          c:/users/fx/appdata/local/arduino15/packages/arduino/tools/arm-none-eabi-gcc/4.8.3-2014q1/bin/../lib/gcc/arm-none-eabi/4.8.3/armv7-m\libgcc.a(_arm_addsubdf3.o)
__addsf3                                          c:/users/fx/appdata/local/arduino15/packages/arduino/tools/arm-none-eabi-gcc/4.8.3-2014q1/bin/../lib/gcc/arm-none-eabi/4.8.3/armv7-m\libgcc.a(_arm_addsubsf3.o)
__aeabi_cdcmpeq                                   c:/users/fx/appdata/local/arduino15/packages/arduino/tools/arm-none-eabi-gcc/4.8.3-2014q1/bin/../lib/gcc/arm-none-eabi/4.8.3/armv7-m\libgcc.a(_arm_cmpdf2.o)
__aeabi_cdcmple                                   c:/users/fx/appdata/local/arduino15/packages/arduino/tools/arm-none-eabi-gcc/4.8.3-2014q1/bin/../lib/gcc/arm-none-eabi/4.8.3/armv7-m\libgcc.a(_arm_cmpdf2.o)
__aeabi_cdrcmple                                  c:/users/fx/appdata/local/arduino15/packages/arduino/tools/arm-none-eabi-gcc/4.8.3-2014q1/bin/../lib/gcc/arm-none-eabi/4.8.3/armv7-m\libgcc.a(_arm_cmpdf2.o)
__aeabi_cfcmpeq                                   c:/users/fx/appdata/local/arduino15/packages/arduino/tools/arm-none-eabi-gcc/4.8.3-2014q1/bin/../lib/gcc/arm-none-eabi/4.8.3/armv7-m\libgcc.a(_arm_cmpsf2.o)
__aeabi_cfcmple                                   c:/users/fx/appdata/local/arduino15/packages/arduino/tools/arm-none-eabi-gcc/4.8.3-2014q1/bin/../lib/gcc/arm-none-eabi/4.8.3/armv7-m\libgcc.a(_arm_cmpsf2.o)
__aeabi_cfrcmple                                  c:/users/fx/appdata/local/arduino15/packages/arduino/tools/arm-none-eabi-gcc/4.8.3-2014q1/bin/../lib/gcc/arm-none-eabi/4.8.3/armv7-m\libgcc.a(_arm_cmpsf2.o)
__aeabi_d2f                                       c:/users/fx/appdata/local/arduino15/packages/arduino/tools/arm-none-eabi-gcc/4.8.3-2014q1/bin/../lib/gcc/arm-none-eabi/4.8.3/armv7-m\libgcc.a(_arm_truncdfsf2.o)
                                                  c:\Users\fx\Upwork\weather-node\output\libraries\DHT_sensor_library\DHT.cpp.o
__aeabi_d2iz                                      c:/users/fx/appdata/local/arduino15/packages/arduino/tools/arm-none-eabi-gcc/4.8.3-2014q1/bin/../lib/gcc/arm-none-eabi/4.8.3/armv7-m\libgcc.a(_arm_fixdfsi.o)
                                                  c:/users/fx/appdata/local/arduino15/packages/arduino/tools/arm-none-eabi-gcc/4.8.3-2014q1/bin/../lib/gcc/arm-none-eabi/4.8.3/../../../../arm-none-eabi/lib/armv7-m\libc.a(lib_a-dtoa.o)
                                                  c:\Users\fx\Upwork\weather-node\output\core\core.a(Print.cpp.o)
__aeabi_d2lz                                      c:/users/fx/appdata/local/arduino15/packages/arduino/tools/arm-none-eabi-gcc/4.8.3-2014q1/bin/../lib/gcc/arm-none-eabi/4.8.3/armv7-m\libgcc.a(_fixdfdi.o)
                                                  c:\Users\fx\Upwork\weather-node\output\core\core.a(Print.cpp.o)
__aeabi_d2uiz                                     c:/users/fx/appdata/local/arduino15/packages/arduino/tools/arm-none-eabi-gcc/4.8.3-2014q1/bin/../lib/gcc/arm-none-eabi/4.8.3/armv7-m\libgcc.a(_arm_fixunsdfsi.o)
                                                  c:/users/fx/appdata/local/arduino15/packages/arduino/tools/arm-none-eabi-gcc/4.8.3-2014q1/bin/../lib/gcc/arm-none-eabi/4.8.3/armv7-m\libgcc.a(_fixunsdfdi.o)
__aeabi_d2ulz                                     c:/users/fx/appdata/local/arduino15/packages/arduino/tools/arm-none-eabi-gcc/4.8.3-2014q1/bin/../lib/gcc/arm-none-eabi/4.8.3/armv7-m\libgcc.a(_fixunsdfdi.o)
                                                  c:/users/fx/appdata/local/arduino15/packages/arduino/tools/arm-none-eabi-gcc/4.8.3-2014q1/bin/../lib/gcc/arm-none-eabi/4.8.3/armv7-m\libgcc.a(_fixdfdi.o)
__aeabi_dadd                                      c:/users/fx/appdata/local/arduino15/packages/arduino/tools/arm-none-eabi-gcc/4.8.3-2014q1/bin/../lib/gcc/arm-none-eabi/4.8.3/armv7-m\libgcc.a(_arm_addsubdf3.o)
                                                  c:/users/fx/appdata/local/arduino15/packages/arduino/tools/arm-none-eabi-gcc/4.8.3-2014q1/bin/../lib/gcc/arm-none-eabi/4.8.3/../../../../arm-none-eabi/lib/armv7-m\libc.a(lib_a-dtoa.o)
                                                  c:/users/fx/appdata/local/arduino15/packages/arduino/tools/arm-none-eabi-gcc/4.8.3-2014q1/bin/../lib/gcc/arm-none-eabi/4.8.3/../../../../arm-none-eabi/lib/armv7-m\libm.a(lib_a-e_sqrt.o)
                                                  c:\Users\fx\Upwork\weather-node\output\core\core.a(Print.cpp.o)
                                                  c:\Users\fx\Upwork\weather-node\output\libraries\DHT_sensor_library\DHT.cpp.o
__aeabi_dcmpeq                                    c:/users/fx/appdata/local/arduino15/packages/arduino/tools/arm-none-eabi-gcc/4.8.3-2014q1/bin/../lib/gcc/arm-none-eabi/4.8.3/armv7-m\libgcc.a(_arm_cmpdf2.o)
                                                  c:/users/fx/appdata/local/arduino15/packages/arduino/tools/arm-none-eabi-gcc/4.8.3-2014q1/bin/../lib/gcc/arm-none-eabi/4.8.3/../../../../arm-none-eabi/lib/armv7-m\libc.a(lib_a-dtoa.o)
                                                  c:/users/fx/appdata/local/arduino15/packages/arduino/tools/arm-none-eabi-gcc/4.8.3-2014q1/bin/../lib/gcc/arm-none-eabi/4.8.3/../../../../arm-none-eabi/lib/armv7-m\libc.a(lib_a-svfprintf.o)
__aeabi_dcmpge                                    c:/users/fx/appdata/local/arduino15/packages/arduino/tools/arm-none-eabi-gcc/4.8.3-2014q1/bin/../lib/gcc/arm-none-eabi/4.8.3/armv7-m\libgcc.a(_arm_cmpdf2.o)
                                                  c:/users/fx/appdata/local/arduino15/packages/arduino/tools/arm-none-eabi-gcc/4.8.3-2014q1/bin/../lib/gcc/arm-none-eabi/4.8.3/../../../../arm-none-eabi/lib/armv7-m\libc.a(lib_a-dtoa.o)
                                                  c:\Users\fx\Upwork\weather-node\output\core\core.a(Print.cpp.o)
__aeabi_dcmpgt                                    c:/users/fx/appdata/local/arduino15/packages/arduino/tools/arm-none-eabi-gcc/4.8.3-2014q1/bin/../lib/gcc/arm-none-eabi/4.8.3/armv7-m\libgcc.a(_arm_cmpdf2.o)
                                                  c:/users/fx/appdata/local/arduino15/packages/arduino/tools/arm-none-eabi-gcc/4.8.3-2014q1/bin/../lib/gcc/arm-none-eabi/4.8.3/../../../../arm-none-eabi/lib/armv7-m\libc.a(lib_a-dtoa.o)
                                                  c:\Users\fx\Upwork\weather-node\output\core\core.a(Print.cpp.o)
                                                  c:\Users\fx\Upwork\weather-node\output\libraries\DHT_sensor_library\DHT.cpp.o
__aeabi_dcmple                                    c:/users/fx/appdata/local/arduino15/packages/arduino/tools/arm-none-eabi-gcc/4.8.3-2014q1/bin/../lib/gcc/arm-none-eabi/4.8.3/armv7-m\libgcc.a(_arm_cmpdf2.o)
                                                  c:\Users\fx\Upwork\weather-node\output\core\core.a(Print.cpp.o)
__aeabi_dcmplt                                    c:/users/fx/appdata/local/arduino15/packages/arduino/tools/arm-none-eabi-gcc/4.8.3-2014q1/bin/../lib/gcc/arm-none-eabi/4.8.3/armv7-m\libgcc.a(_arm_cmpdf2.o)
                                                  c:/users/fx/appdata/local/arduino15/packages/arduino/tools/arm-none-eabi-gcc/4.8.3-2014q1/bin/../lib/gcc/arm-none-eabi/4.8.3/../../../../arm-none-eabi/lib/armv7-m\libc.a(lib_a-dtoa.o)
                                                  c:/users/fx/appdata/local/arduino15/packages/arduino/tools/arm-none-eabi-gcc/4.8.3-2014q1/bin/../lib/gcc/arm-none-eabi/4.8.3/../../../../arm-none-eabi/lib/armv7-m\libc.a(lib_a-svfprintf.o)
                                                  c:/users/fx/appdata/local/arduino15/packages/arduino/tools/arm-none-eabi-gcc/4.8.3-2014q1/bin/../lib/gcc/arm-none-eabi/4.8.3/armv7-m\libgcc.a(_fixdfdi.o)
                                                  c:/users/fx/appdata/local/arduino15/packages/arduino/tools/arm-none-eabi-gcc/4.8.3-2014q1/bin/../lib/gcc/arm-none-eabi/4.8.3/../../../../arm-none-eabi/lib/armv7-m\libm.a(lib_a-w_sqrt.o)
                                                  c:\Users\fx\Upwork\weather-node\output\core\core.a(Print.cpp.o)
__aeabi_ddiv                                      c:/users/fx/appdata/local/arduino15/packages/arduino/tools/arm-none-eabi-gcc/4.8.3-2014q1/bin/../lib/gcc/arm-none-eabi/4.8.3/armv7-m\libgcc.a(_arm_muldivdf3.o)
                                                  c:/users/fx/appdata/local/arduino15/packages/arduino/tools/arm-none-eabi-gcc/4.8.3-2014q1/bin/../lib/gcc/arm-none-eabi/4.8.3/../../../../arm-none-eabi/lib/armv7-m\libc.a(lib_a-mprec.o)
                                                  c:/users/fx/appdata/local/arduino15/packages/arduino/tools/arm-none-eabi-gcc/4.8.3-2014q1/bin/../lib/gcc/arm-none-eabi/4.8.3/../../../../arm-none-eabi/lib/armv7-m\libc.a(lib_a-dtoa.o)
                                                  c:/users/fx/appdata/local/arduino15/packages/arduino/tools/arm-none-eabi-gcc/4.8.3-2014q1/bin/../lib/gcc/arm-none-eabi/4.8.3/../../../../arm-none-eabi/lib/armv7-m\libm.a(lib_a-e_sqrt.o)
                                                  c:/users/fx/appdata/local/arduino15/packages/arduino/tools/arm-none-eabi-gcc/4.8.3-2014q1/bin/../lib/gcc/arm-none-eabi/4.8.3/../../../../arm-none-eabi/lib/armv7-m\libm.a(lib_a-w_sqrt.o)
                                                  c:\Users\fx\Upwork\weather-node\output\core\core.a(Print.cpp.o)
__aeabi_dmul                                      c:/users/fx/appdata/local/arduino15/packages/arduino/tools/arm-none-eabi-gcc/4.8.3-2014q1/bin/../lib/gcc/arm-none-eabi/4.8.3/armv7-m\libgcc.a(_arm_muldivdf3.o)
                                                  c:/users/fx/appdata/local/arduino15/packages/arduino/tools/arm-none-eabi-gcc/4.8.3-2014q1/bin/../lib/gcc/arm-none-eabi/4.8.3/../../../../arm-none-eabi/lib/armv7-m\libc.a(lib_a-mprec.o)
                                                  c:/users/fx/appdata/local/arduino15/packages/arduino/tools/arm-none-eabi-gcc/4.8.3-2014q1/bin/../lib/gcc/arm-none-eabi/4.8.3/../../../../arm-none-eabi/lib/armv7-m\libc.a(lib_a-dtoa.o)
                                                  c:/users/fx/appdata/local/arduino15/packages/arduino/tools/arm-none-eabi-gcc/4.8.3-2014q1/bin/../lib/gcc/arm-none-eabi/4.8.3/armv7-m\libgcc.a(_fixunsdfdi.o)
                                                  c:/users/fx/appdata/local/arduino15/packages/arduino/tools/arm-none-eabi-gcc/4.8.3-2014q1/bin/../lib/gcc/arm-none-eabi/4.8.3/../../../../arm-none-eabi/lib/armv7-m\libm.a(lib_a-e_sqrt.o)
                                                  c:\Users\fx\Upwork\weather-node\output\core\core.a(Print.cpp.o)
                                                  c:\Users\fx\Upwork\weather-node\output\libraries\DHT_sensor_library\DHT.cpp.o
__aeabi_drsub                                     c:/users/fx/appdata/local/arduino15/packages/arduino/tools/arm-none-eabi-gcc/4.8.3-2014q1/bin/../lib/gcc/arm-none-eabi/4.8.3/armv7-m\libgcc.a(_arm_addsubdf3.o)
__aeabi_dsub                                      c:/users/fx/appdata/local/arduino15/packages/arduino/tools/arm-none-eabi-gcc/4.8.3-2014q1/bin/../lib/gcc/arm-none-eabi/4.8.3/armv7-m\libgcc.a(_arm_addsubdf3.o)
                                                  c:/users/fx/appdata/local/arduino15/packages/arduino/tools/arm-none-eabi-gcc/4.8.3-2014q1/bin/../lib/gcc/arm-none-eabi/4.8.3/../../../../arm-none-eabi/lib/armv7-m\libc.a(lib_a-dtoa.o)
                                                  c:/users/fx/appdata/local/arduino15/packages/arduino/tools/arm-none-eabi-gcc/4.8.3-2014q1/bin/../lib/gcc/arm-none-eabi/4.8.3/armv7-m\libgcc.a(_fixunsdfdi.o)
                                                  c:/users/fx/appdata/local/arduino15/packages/arduino/tools/arm-none-eabi-gcc/4.8.3-2014q1/bin/../lib/gcc/arm-none-eabi/4.8.3/../../../../arm-none-eabi/lib/armv7-m\libm.a(lib_a-e_sqrt.o)
                                                  c:\Users\fx\Upwork\weather-node\output\core\core.a(Print.cpp.o)
                                                  c:\Users\fx\Upwork\weather-node\output\libraries\DHT_sensor_library\DHT.cpp.o
__aeabi_f2d                                       c:/users/fx/appdata/local/arduino15/packages/arduino/tools/arm-none-eabi-gcc/4.8.3-2014q1/bin/../lib/gcc/arm-none-eabi/4.8.3/armv7-m\libgcc.a(_arm_addsubdf3.o)
                                                  c:\Users\fx\Upwork\weather-node\output\libraries\Adafruit_Unified_Sensor\Adafruit_Sensor.cpp.o
                                                  c:\Users\fx\Upwork\weather-node\output\libraries\DHT_sensor_library\DHT.cpp.o
                                                  c:\Users\fx\Upwork\weather-node\output\sketch\weatherSIM808.ino.cpp.o
__aeabi_fadd                                      c:/users/fx/appdata/local/arduino15/packages/arduino/tools/arm-none-eabi-gcc/4.8.3-2014q1/bin/../lib/gcc/arm-none-eabi/4.8.3/armv7-m\libgcc.a(_arm_addsubsf3.o)
__aeabi_fcmpeq                                    c:/users/fx/appdata/local/arduino15/packages/arduino/tools/arm-none-eabi-gcc/4.8.3-2014q1/bin/../lib/gcc/arm-none-eabi/4.8.3/armv7-m\libgcc.a(_arm_cmpsf2.o)
__aeabi_fcmpge                                    c:/users/fx/appdata/local/arduino15/packages/arduino/tools/arm-none-eabi-gcc/4.8.3-2014q1/bin/../lib/gcc/arm-none-eabi/4.8.3/armv7-m\libgcc.a(_arm_cmpsf2.o)
                                                  c:\Users\fx\Upwork\weather-node\output\libraries\DHT_sensor_library\DHT.cpp.o
__aeabi_fcmpgt                                    c:/users/fx/appdata/local/arduino15/packages/arduino/tools/arm-none-eabi-gcc/4.8.3-2014q1/bin/../lib/gcc/arm-none-eabi/4.8.3/armv7-m\libgcc.a(_arm_cmpsf2.o)
                                                  c:\Users\fx\Upwork\weather-node\output\libraries\DHT_sensor_library\DHT.cpp.o
__aeabi_fcmple                                    c:/users/fx/appdata/local/arduino15/packages/arduino/tools/arm-none-eabi-gcc/4.8.3-2014q1/bin/../lib/gcc/arm-none-eabi/4.8.3/armv7-m\libgcc.a(_arm_cmpsf2.o)
                                                  c:\Users\fx\Upwork\weather-node\output\libraries\DHT_sensor_library\DHT.cpp.o
__aeabi_fcmplt                                    c:/users/fx/appdata/local/arduino15/packages/arduino/tools/arm-none-eabi-gcc/4.8.3-2014q1/bin/../lib/gcc/arm-none-eabi/4.8.3/armv7-m\libgcc.a(_arm_cmpsf2.o)
                                                  c:\Users\fx\Upwork\weather-node\output\libraries\DHT_sensor_library\DHT.cpp.o
__aeabi_frsub                                     c:/users/fx/appdata/local/arduino15/packages/arduino/tools/arm-none-eabi-gcc/4.8.3-2014q1/bin/../lib/gcc/arm-none-eabi/4.8.3/armv7-m\libgcc.a(_arm_addsubsf3.o)
__aeabi_fsub                                      c:/users/fx/appdata/local/arduino15/packages/arduino/tools/arm-none-eabi-gcc/4.8.3-2014q1/bin/../lib/gcc/arm-none-eabi/4.8.3/armv7-m\libgcc.a(_arm_addsubsf3.o)
                                                  c:\Users\fx\Upwork\weather-node\output\libraries\DHT_sensor_library\DHT.cpp.o
__aeabi_i2d                                       c:/users/fx/appdata/local/arduino15/packages/arduino/tools/arm-none-eabi-gcc/4.8.3-2014q1/bin/../lib/gcc/arm-none-eabi/4.8.3/armv7-m\libgcc.a(_arm_addsubdf3.o)
                                                  c:/users/fx/appdata/local/arduino15/packages/arduino/tools/arm-none-eabi-gcc/4.8.3-2014q1/bin/../lib/gcc/arm-none-eabi/4.8.3/../../../../arm-none-eabi/lib/armv7-m\libc.a(lib_a-dtoa.o)
                                                  c:\Users\fx\Upwork\weather-node\output\core\core.a(Print.cpp.o)
                                                  c:\Users\fx\Upwork\weather-node\output\libraries\DHT_sensor_library\DHT.cpp.o
__aeabi_i2f                                       c:/users/fx/appdata/local/arduino15/packages/arduino/tools/arm-none-eabi-gcc/4.8.3-2014q1/bin/../lib/gcc/arm-none-eabi/4.8.3/armv7-m\libgcc.a(_arm_addsubsf3.o)
                                                  c:\Users\fx\Upwork\weather-node\output\sketch\weatherSIM808.ino.cpp.o
__aeabi_idiv0                                     c:/users/fx/appdata/local/arduino15/packages/arduino/tools/arm-none-eabi-gcc/4.8.3-2014q1/bin/../lib/gcc/arm-none-eabi/4.8.3/armv7-m\libgcc.a(_dvmd_tls.o)
__aeabi_l2d                                       c:/users/fx/appdata/local/arduino15/packages/arduino/tools/arm-none-eabi-gcc/4.8.3-2014q1/bin/../lib/gcc/arm-none-eabi/4.8.3/armv7-m\libgcc.a(_arm_addsubdf3.o)
                                                  c:\Users\fx\Upwork\weather-node\output\core\core.a(Print.cpp.o)
__aeabi_l2f                                       c:/users/fx/appdata/local/arduino15/packages/arduino/tools/arm-none-eabi-gcc/4.8.3-2014q1/bin/../lib/gcc/arm-none-eabi/4.8.3/armv7-m\libgcc.a(_arm_addsubsf3.o)
__aeabi_ldiv0                                     c:/users/fx/appdata/local/arduino15/packages/arduino/tools/arm-none-eabi-gcc/4.8.3-2014q1/bin/../lib/gcc/arm-none-eabi/4.8.3/armv7-m\libgcc.a(_dvmd_tls.o)
                                                  c:/users/fx/appdata/local/arduino15/packages/arduino/tools/arm-none-eabi-gcc/4.8.3-2014q1/bin/../lib/gcc/arm-none-eabi/4.8.3/armv7-m\libgcc.a(_aeabi_uldivmod.o)
__aeabi_ui2d                                      c:/users/fx/appdata/local/arduino15/packages/arduino/tools/arm-none-eabi-gcc/4.8.3-2014q1/bin/../lib/gcc/arm-none-eabi/4.8.3/armv7-m\libgcc.a(_arm_addsubdf3.o)
                                                  c:/users/fx/appdata/local/arduino15/packages/arduino/tools/arm-none-eabi-gcc/4.8.3-2014q1/bin/../lib/gcc/arm-none-eabi/4.8.3/../../../../arm-none-eabi/lib/armv7-m\libc.a(lib_a-dtoa.o)
                                                  c:/users/fx/appdata/local/arduino15/packages/arduino/tools/arm-none-eabi-gcc/4.8.3-2014q1/bin/../lib/gcc/arm-none-eabi/4.8.3/armv7-m\libgcc.a(_fixunsdfdi.o)
__aeabi_ui2f                                      c:/users/fx/appdata/local/arduino15/packages/arduino/tools/arm-none-eabi-gcc/4.8.3-2014q1/bin/../lib/gcc/arm-none-eabi/4.8.3/armv7-m\libgcc.a(_arm_addsubsf3.o)
                                                  c:\Users\fx\Upwork\weather-node\output\libraries\DHT_sensor_library\DHT.cpp.o
__aeabi_ul2d                                      c:/users/fx/appdata/local/arduino15/packages/arduino/tools/arm-none-eabi-gcc/4.8.3-2014q1/bin/../lib/gcc/arm-none-eabi/4.8.3/armv7-m\libgcc.a(_arm_addsubdf3.o)
__aeabi_ul2f                                      c:/users/fx/appdata/local/arduino15/packages/arduino/tools/arm-none-eabi-gcc/4.8.3-2014q1/bin/../lib/gcc/arm-none-eabi/4.8.3/armv7-m\libgcc.a(_arm_addsubsf3.o)
__aeabi_uldivmod                                  c:/users/fx/appdata/local/arduino15/packages/arduino/tools/arm-none-eabi-gcc/4.8.3-2014q1/bin/../lib/gcc/arm-none-eabi/4.8.3/armv7-m\libgcc.a(_aeabi_uldivmod.o)
                                                  c:/users/fx/appdata/local/arduino15/packages/arduino/tools/arm-none-eabi-gcc/4.8.3-2014q1/bin/../lib/gcc/arm-none-eabi/4.8.3/../../../../arm-none-eabi/lib/armv7-m\libc.a(lib_a-svfiprintf.o)
                                                  c:/users/fx/appdata/local/arduino15/packages/arduino/tools/arm-none-eabi-gcc/4.8.3-2014q1/bin/../lib/gcc/arm-none-eabi/4.8.3/../../../../arm-none-eabi/lib/armv7-m\libc.a(lib_a-svfprintf.o)
                                                  c:\Users\fx\Upwork\weather-node\output\core\core.a(Print.cpp.o)
__any_on                                          c:/users/fx/appdata/local/arduino15/packages/arduino/tools/arm-none-eabi-gcc/4.8.3-2014q1/bin/../lib/gcc/arm-none-eabi/4.8.3/../../../../arm-none-eabi/lib/armv7-m\libc.a(lib_a-mprec.o)
__assert_func                                     c:\Users\fx\Upwork\weather-node\output\core\core.a(util.c.o)
__b2d                                             c:/users/fx/appdata/local/arduino15/packages/arduino/tools/arm-none-eabi-gcc/4.8.3-2014q1/bin/../lib/gcc/arm-none-eabi/4.8.3/../../../../arm-none-eabi/lib/armv7-m\libc.a(lib_a-mprec.o)
__bss_end__                                       c:\Users\fx\Upwork\weather-node\output\core\wirish\start_c.c.o
                                                  c:/users/fx/appdata/local/arduino15/packages/arduino/tools/arm-none-eabi-gcc/4.8.3-2014q1/bin/../lib/gcc/arm-none-eabi/4.8.3/../../../../arm-none-eabi/lib/armv7-m/crt0.o
__bss_start__                                     c:\Users\fx\Upwork\weather-node\output\core\wirish\start_c.c.o
                                                  c:/users/fx/appdata/local/arduino15/packages/arduino/tools/arm-none-eabi-gcc/4.8.3-2014q1/bin/../lib/gcc/arm-none-eabi/4.8.3/../../../../arm-none-eabi/lib/armv7-m/crt0.o
__call_exitprocs                                  c:/users/fx/appdata/local/arduino15/packages/arduino/tools/arm-none-eabi-gcc/4.8.3-2014q1/bin/../lib/gcc/arm-none-eabi/4.8.3/../../../../arm-none-eabi/lib/armv7-m\libc.a(lib_a-__call_atexit.o)
                                                  c:/users/fx/appdata/local/arduino15/packages/arduino/tools/arm-none-eabi-gcc/4.8.3-2014q1/bin/../lib/gcc/arm-none-eabi/4.8.3/../../../../arm-none-eabi/lib/armv7-m\libc.a(lib_a-exit.o)
__cmpdf2                                          c:/users/fx/appdata/local/arduino15/packages/arduino/tools/arm-none-eabi-gcc/4.8.3-2014q1/bin/../lib/gcc/arm-none-eabi/4.8.3/armv7-m\libgcc.a(_arm_cmpdf2.o)
__cmpsf2                                          c:/users/fx/appdata/local/arduino15/packages/arduino/tools/arm-none-eabi-gcc/4.8.3-2014q1/bin/../lib/gcc/arm-none-eabi/4.8.3/armv7-m\libgcc.a(_arm_cmpsf2.o)
__copybits                                        c:/users/fx/appdata/local/arduino15/packages/arduino/tools/arm-none-eabi-gcc/4.8.3-2014q1/bin/../lib/gcc/arm-none-eabi/4.8.3/../../../../arm-none-eabi/lib/armv7-m\libc.a(lib_a-mprec.o)
__cxa_demangle                                    c:\Users\fx\Upwork\weather-node\output\core\core.a(cxxabi-compat.cpp.o)
__cxa_pure_virtual                                c:\Users\fx\Upwork\weather-node\output\core\core.a(cxxabi-compat.cpp.o)
                                                  c:\Users\fx\Upwork\weather-node\output\core\core.a(usb_serial.cpp.o)
                                                  c:\Users\fx\Upwork\weather-node\output\core\core.a(Print.cpp.o)
                                                  c:\Users\fx\Upwork\weather-node\output\core\core.a(HardwareSerial.cpp.o)
                                                  c:\Users\fx\Upwork\weather-node\output\libraries\DHT_sensor_library\DHT_U.cpp.o
__d2b                                             c:/users/fx/appdata/local/arduino15/packages/arduino/tools/arm-none-eabi-gcc/4.8.3-2014q1/bin/../lib/gcc/arm-none-eabi/4.8.3/../../../../arm-none-eabi/lib/armv7-m\libc.a(lib_a-mprec.o)
                                                  c:/users/fx/appdata/local/arduino15/packages/arduino/tools/arm-none-eabi-gcc/4.8.3-2014q1/bin/../lib/gcc/arm-none-eabi/4.8.3/../../../../arm-none-eabi/lib/armv7-m\libc.a(lib_a-dtoa.o)
__data_end__                                      c:\Users\fx\Upwork\weather-node\output\core\wirish\start_c.c.o
__data_start__                                    c:\Users\fx\Upwork\weather-node\output\core\wirish\start_c.c.o
__default_handler                                 c:\Users\fx\Upwork\weather-node\output\core\core.a(isrs.S.o)
__deregister_frame_info                           c:/users/fx/appdata/local/arduino15/packages/arduino/tools/arm-none-eabi-gcc/4.8.3-2014q1/bin/../lib/gcc/arm-none-eabi/4.8.3/armv7-m/crtbegin.o
__divdf3                                          c:/users/fx/appdata/local/arduino15/packages/arduino/tools/arm-none-eabi-gcc/4.8.3-2014q1/bin/../lib/gcc/arm-none-eabi/4.8.3/armv7-m\libgcc.a(_arm_muldivdf3.o)
__divdi3                                          c:/users/fx/appdata/local/arduino15/packages/arduino/tools/arm-none-eabi-gcc/4.8.3-2014q1/bin/../lib/gcc/arm-none-eabi/4.8.3/armv7-m\libgcc.a(_divdi3.o)
                                                  c:/users/fx/appdata/local/arduino15/packages/arduino/tools/arm-none-eabi-gcc/4.8.3-2014q1/bin/../lib/gcc/arm-none-eabi/4.8.3/armv7-m\libgcc.a(bpabi.o)
__dso_handle                                      c:/users/fx/appdata/local/arduino15/packages/arduino/tools/arm-none-eabi-gcc/4.8.3-2014q1/bin/../lib/gcc/arm-none-eabi/4.8.3/armv7-m/crtbegin.o
__eqdf2                                           c:/users/fx/appdata/local/arduino15/packages/arduino/tools/arm-none-eabi-gcc/4.8.3-2014q1/bin/../lib/gcc/arm-none-eabi/4.8.3/armv7-m\libgcc.a(_arm_cmpdf2.o)
__eqsf2                                           c:/users/fx/appdata/local/arduino15/packages/arduino/tools/arm-none-eabi-gcc/4.8.3-2014q1/bin/../lib/gcc/arm-none-eabi/4.8.3/armv7-m\libgcc.a(_arm_cmpsf2.o)
__errno                                           c:/users/fx/appdata/local/arduino15/packages/arduino/tools/arm-none-eabi-gcc/4.8.3-2014q1/bin/../lib/gcc/arm-none-eabi/4.8.3/../../../../arm-none-eabi/lib/armv7-m\libc.a(lib_a-errno.o)
                                                  c:/users/fx/appdata/local/arduino15/packages/arduino/tools/arm-none-eabi-gcc/4.8.3-2014q1/bin/../lib/gcc/arm-none-eabi/4.8.3/../../../../arm-none-eabi/lib/armv7-m\libm.a(lib_a-w_sqrt.o)
                                                  c:\Users\fx\Upwork\weather-node\output\core\wirish\syscalls.c.o
__error                                           c:\Users\fx\Upwork\weather-node\output\core\core.a(util.c.o)
                                                  c:\Users\fx\Upwork\weather-node\output\core\core.a(exc.S.o)
__exc_busfault                                    c:\Users\fx\Upwork\weather-node\output\core\core.a(exc.S.o)
                                                  c:\Users\fx\Upwork\weather-node\output\core\core.a(vector_table.S.o)
__exc_debug_monitor                               c:\Users\fx\Upwork\weather-node\output\core\core.a(isrs.S.o)
                                                  c:\Users\fx\Upwork\weather-node\output\core\core.a(vector_table.S.o)
__exc_hardfault                                   c:\Users\fx\Upwork\weather-node\output\core\core.a(exc.S.o)
                                                  c:\Users\fx\Upwork\weather-node\output\core\core.a(vector_table.S.o)
__exc_memmanage                                   c:\Users\fx\Upwork\weather-node\output\core\core.a(exc.S.o)
                                                  c:\Users\fx\Upwork\weather-node\output\core\core.a(vector_table.S.o)
__exc_nmi                                         c:\Users\fx\Upwork\weather-node\output\core\core.a(exc.S.o)
                                                  c:\Users\fx\Upwork\weather-node\output\core\core.a(vector_table.S.o)
__exc_pendsv                                      c:\Users\fx\Upwork\weather-node\output\libraries\FreeRTOS821\utility\port.c.o
                                                  c:\Users\fx\Upwork\weather-node\output\core\core.a(vector_table.S.o)
__exc_reset                                       c:\Users\fx\Upwork\weather-node\output\core\core.a(vector_table.S.o)
__exc_svc                                         c:\Users\fx\Upwork\weather-node\output\libraries\FreeRTOS821\utility\port.c.o
                                                  c:\Users\fx\Upwork\weather-node\output\core\core.a(vector_table.S.o)
__exc_systick                                     c:\Users\fx\Upwork\weather-node\output\core\core.a(systick.c.o)
                                                  c:\Users\fx\Upwork\weather-node\output\core\core.a(vector_table.S.o)
__exc_usagefault                                  c:\Users\fx\Upwork\weather-node\output\core\core.a(exc.S.o)
                                                  c:\Users\fx\Upwork\weather-node\output\core\core.a(vector_table.S.o)
__extendsfdf2                                     c:/users/fx/appdata/local/arduino15/packages/arduino/tools/arm-none-eabi-gcc/4.8.3-2014q1/bin/../lib/gcc/arm-none-eabi/4.8.3/armv7-m\libgcc.a(_arm_addsubdf3.o)
__fdlib_version                                   c:/users/fx/appdata/local/arduino15/packages/arduino/tools/arm-none-eabi-gcc/4.8.3-2014q1/bin/../lib/gcc/arm-none-eabi/4.8.3/../../../../arm-none-eabi/lib/armv7-m\libm.a(lib_a-s_lib_ver.o)
                                                  c:/users/fx/appdata/local/arduino15/packages/arduino/tools/arm-none-eabi-gcc/4.8.3-2014q1/bin/../lib/gcc/arm-none-eabi/4.8.3/../../../../arm-none-eabi/lib/armv7-m\libm.a(lib_a-w_sqrt.o)
__fini_array_end                                  c:/users/fx/appdata/local/arduino15/packages/arduino/tools/arm-none-eabi-gcc/4.8.3-2014q1/bin/../lib/gcc/arm-none-eabi/4.8.3/../../../../arm-none-eabi/lib/armv7-m\libc.a(lib_a-fini.o)
__fini_array_start                                c:/users/fx/appdata/local/arduino15/packages/arduino/tools/arm-none-eabi-gcc/4.8.3-2014q1/bin/../lib/gcc/arm-none-eabi/4.8.3/../../../../arm-none-eabi/lib/armv7-m\libc.a(lib_a-fini.o)
__fixdfdi                                         c:/users/fx/appdata/local/arduino15/packages/arduino/tools/arm-none-eabi-gcc/4.8.3-2014q1/bin/../lib/gcc/arm-none-eabi/4.8.3/armv7-m\libgcc.a(_fixdfdi.o)
__fixdfsi                                         c:/users/fx/appdata/local/arduino15/packages/arduino/tools/arm-none-eabi-gcc/4.8.3-2014q1/bin/../lib/gcc/arm-none-eabi/4.8.3/armv7-m\libgcc.a(_arm_fixdfsi.o)
__fixunsdfdi                                      c:/users/fx/appdata/local/arduino15/packages/arduino/tools/arm-none-eabi-gcc/4.8.3-2014q1/bin/../lib/gcc/arm-none-eabi/4.8.3/armv7-m\libgcc.a(_fixunsdfdi.o)
__fixunsdfsi                                      c:/users/fx/appdata/local/arduino15/packages/arduino/tools/arm-none-eabi-gcc/4.8.3-2014q1/bin/../lib/gcc/arm-none-eabi/4.8.3/armv7-m\libgcc.a(_arm_fixunsdfsi.o)
__floatdidf                                       c:/users/fx/appdata/local/arduino15/packages/arduino/tools/arm-none-eabi-gcc/4.8.3-2014q1/bin/../lib/gcc/arm-none-eabi/4.8.3/armv7-m\libgcc.a(_arm_addsubdf3.o)
__floatdisf                                       c:/users/fx/appdata/local/arduino15/packages/arduino/tools/arm-none-eabi-gcc/4.8.3-2014q1/bin/../lib/gcc/arm-none-eabi/4.8.3/armv7-m\libgcc.a(_arm_addsubsf3.o)
__floatsidf                                       c:/users/fx/appdata/local/arduino15/packages/arduino/tools/arm-none-eabi-gcc/4.8.3-2014q1/bin/../lib/gcc/arm-none-eabi/4.8.3/armv7-m\libgcc.a(_arm_addsubdf3.o)
__floatsisf                                       c:/users/fx/appdata/local/arduino15/packages/arduino/tools/arm-none-eabi-gcc/4.8.3-2014q1/bin/../lib/gcc/arm-none-eabi/4.8.3/armv7-m\libgcc.a(_arm_addsubsf3.o)
__floatundidf                                     c:/users/fx/appdata/local/arduino15/packages/arduino/tools/arm-none-eabi-gcc/4.8.3-2014q1/bin/../lib/gcc/arm-none-eabi/4.8.3/armv7-m\libgcc.a(_arm_addsubdf3.o)
__floatundisf                                     c:/users/fx/appdata/local/arduino15/packages/arduino/tools/arm-none-eabi-gcc/4.8.3-2014q1/bin/../lib/gcc/arm-none-eabi/4.8.3/armv7-m\libgcc.a(_arm_addsubsf3.o)
__floatunsidf                                     c:/users/fx/appdata/local/arduino15/packages/arduino/tools/arm-none-eabi-gcc/4.8.3-2014q1/bin/../lib/gcc/arm-none-eabi/4.8.3/armv7-m\libgcc.a(_arm_addsubdf3.o)
__floatunsisf                                     c:/users/fx/appdata/local/arduino15/packages/arduino/tools/arm-none-eabi-gcc/4.8.3-2014q1/bin/../lib/gcc/arm-none-eabi/4.8.3/armv7-m\libgcc.a(_arm_addsubsf3.o)
__fpclassifyd                                     c:/users/fx/appdata/local/arduino15/packages/arduino/tools/arm-none-eabi-gcc/4.8.3-2014q1/bin/../lib/gcc/arm-none-eabi/4.8.3/../../../../arm-none-eabi/lib/armv7-m\libm.a(lib_a-s_fpclassify.o)
                                                  c:/users/fx/appdata/local/arduino15/packages/arduino/tools/arm-none-eabi-gcc/4.8.3-2014q1/bin/../lib/gcc/arm-none-eabi/4.8.3/../../../../arm-none-eabi/lib/armv7-m\libc.a(lib_a-svfprintf.o)
                                                  c:/users/fx/appdata/local/arduino15/packages/arduino/tools/arm-none-eabi-gcc/4.8.3-2014q1/bin/../lib/gcc/arm-none-eabi/4.8.3/../../../../arm-none-eabi/lib/armv7-m\libm.a(lib_a-w_sqrt.o)
__gedf2                                           c:/users/fx/appdata/local/arduino15/packages/arduino/tools/arm-none-eabi-gcc/4.8.3-2014q1/bin/../lib/gcc/arm-none-eabi/4.8.3/armv7-m\libgcc.a(_arm_cmpdf2.o)
__gesf2                                           c:/users/fx/appdata/local/arduino15/packages/arduino/tools/arm-none-eabi-gcc/4.8.3-2014q1/bin/../lib/gcc/arm-none-eabi/4.8.3/armv7-m\libgcc.a(_arm_cmpsf2.o)
__gnu_ldivmod_helper                              c:/users/fx/appdata/local/arduino15/packages/arduino/tools/arm-none-eabi-gcc/4.8.3-2014q1/bin/../lib/gcc/arm-none-eabi/4.8.3/armv7-m\libgcc.a(bpabi.o)
__gnu_uldivmod_helper                             c:/users/fx/appdata/local/arduino15/packages/arduino/tools/arm-none-eabi-gcc/4.8.3-2014q1/bin/../lib/gcc/arm-none-eabi/4.8.3/armv7-m\libgcc.a(bpabi.o)
                                                  c:/users/fx/appdata/local/arduino15/packages/arduino/tools/arm-none-eabi-gcc/4.8.3-2014q1/bin/../lib/gcc/arm-none-eabi/4.8.3/armv7-m\libgcc.a(_aeabi_uldivmod.o)
__gtdf2                                           c:/users/fx/appdata/local/arduino15/packages/arduino/tools/arm-none-eabi-gcc/4.8.3-2014q1/bin/../lib/gcc/arm-none-eabi/4.8.3/armv7-m\libgcc.a(_arm_cmpdf2.o)
__gtsf2                                           c:/users/fx/appdata/local/arduino15/packages/arduino/tools/arm-none-eabi-gcc/4.8.3-2014q1/bin/../lib/gcc/arm-none-eabi/4.8.3/armv7-m\libgcc.a(_arm_cmpsf2.o)
__hi0bits                                         c:/users/fx/appdata/local/arduino15/packages/arduino/tools/arm-none-eabi-gcc/4.8.3-2014q1/bin/../lib/gcc/arm-none-eabi/4.8.3/../../../../arm-none-eabi/lib/armv7-m\libc.a(lib_a-mprec.o)
                                                  c:/users/fx/appdata/local/arduino15/packages/arduino/tools/arm-none-eabi-gcc/4.8.3-2014q1/bin/../lib/gcc/arm-none-eabi/4.8.3/../../../../arm-none-eabi/lib/armv7-m\libc.a(lib_a-dtoa.o)
__i2b                                             c:/users/fx/appdata/local/arduino15/packages/arduino/tools/arm-none-eabi-gcc/4.8.3-2014q1/bin/../lib/gcc/arm-none-eabi/4.8.3/../../../../arm-none-eabi/lib/armv7-m\libc.a(lib_a-mprec.o)
                                                  c:/users/fx/appdata/local/arduino15/packages/arduino/tools/arm-none-eabi-gcc/4.8.3-2014q1/bin/../lib/gcc/arm-none-eabi/4.8.3/../../../../arm-none-eabi/lib/armv7-m\libc.a(lib_a-dtoa.o)
__ieee754_sqrt                                    c:/users/fx/appdata/local/arduino15/packages/arduino/tools/arm-none-eabi-gcc/4.8.3-2014q1/bin/../lib/gcc/arm-none-eabi/4.8.3/../../../../arm-none-eabi/lib/armv7-m\libm.a(lib_a-e_sqrt.o)
                                                  c:/users/fx/appdata/local/arduino15/packages/arduino/tools/arm-none-eabi-gcc/4.8.3-2014q1/bin/../lib/gcc/arm-none-eabi/4.8.3/../../../../arm-none-eabi/lib/armv7-m\libm.a(lib_a-w_sqrt.o)
__init_array_end                                  c:/users/fx/appdata/local/arduino15/packages/arduino/tools/arm-none-eabi-gcc/4.8.3-2014q1/bin/../lib/gcc/arm-none-eabi/4.8.3/../../../../arm-none-eabi/lib/armv7-m\libc.a(lib_a-init.o)
__init_array_start                                c:/users/fx/appdata/local/arduino15/packages/arduino/tools/arm-none-eabi-gcc/4.8.3-2014q1/bin/../lib/gcc/arm-none-eabi/4.8.3/../../../../arm-none-eabi/lib/armv7-m\libc.a(lib_a-init.o)
__irq_adc                                         c:\Users\fx\Upwork\weather-node\output\core\core.a(adc_f1.c.o)
                                                  c:\Users\fx\Upwork\weather-node\output\core\core.a(vector_table.S.o)
__irq_can_rx1                                     c:\Users\fx\Upwork\weather-node\output\core\core.a(isrs.S.o)
                                                  c:\Users\fx\Upwork\weather-node\output\core\core.a(vector_table.S.o)
__irq_can_sce                                     c:\Users\fx\Upwork\weather-node\output\core\core.a(isrs.S.o)
                                                  c:\Users\fx\Upwork\weather-node\output\core\core.a(vector_table.S.o)
__irq_dma1_channel1                               c:\Users\fx\Upwork\weather-node\output\core\core.a(dma_f1.c.o)
                                                  c:\Users\fx\Upwork\weather-node\output\core\core.a(vector_table.S.o)
__irq_dma1_channel2                               c:\Users\fx\Upwork\weather-node\output\core\core.a(dma_f1.c.o)
                                                  c:\Users\fx\Upwork\weather-node\output\core\core.a(vector_table.S.o)
__irq_dma1_channel3                               c:\Users\fx\Upwork\weather-node\output\core\core.a(dma_f1.c.o)
                                                  c:\Users\fx\Upwork\weather-node\output\core\core.a(vector_table.S.o)
__irq_dma1_channel4                               c:\Users\fx\Upwork\weather-node\output\core\core.a(dma_f1.c.o)
                                                  c:\Users\fx\Upwork\weather-node\output\core\core.a(vector_table.S.o)
__irq_dma1_channel5                               c:\Users\fx\Upwork\weather-node\output\core\core.a(dma_f1.c.o)
                                                  c:\Users\fx\Upwork\weather-node\output\core\core.a(vector_table.S.o)
__irq_dma1_channel6                               c:\Users\fx\Upwork\weather-node\output\core\core.a(dma_f1.c.o)
                                                  c:\Users\fx\Upwork\weather-node\output\core\core.a(vector_table.S.o)
__irq_dma1_channel7                               c:\Users\fx\Upwork\weather-node\output\core\core.a(dma_f1.c.o)
                                                  c:\Users\fx\Upwork\weather-node\output\core\core.a(vector_table.S.o)
__irq_exti0                                       c:\Users\fx\Upwork\weather-node\output\core\core.a(exti.c.o)
                                                  c:\Users\fx\Upwork\weather-node\output\core\core.a(vector_table.S.o)
__irq_exti1                                       c:\Users\fx\Upwork\weather-node\output\core\core.a(exti.c.o)
                                                  c:\Users\fx\Upwork\weather-node\output\core\core.a(vector_table.S.o)
__irq_exti15_10                                   c:\Users\fx\Upwork\weather-node\output\core\core.a(exti.c.o)
                                                  c:\Users\fx\Upwork\weather-node\output\core\core.a(vector_table.S.o)
__irq_exti2                                       c:\Users\fx\Upwork\weather-node\output\core\core.a(exti.c.o)
                                                  c:\Users\fx\Upwork\weather-node\output\core\core.a(vector_table.S.o)
__irq_exti3                                       c:\Users\fx\Upwork\weather-node\output\core\core.a(exti.c.o)
                                                  c:\Users\fx\Upwork\weather-node\output\core\core.a(vector_table.S.o)
__irq_exti4                                       c:\Users\fx\Upwork\weather-node\output\core\core.a(exti.c.o)
                                                  c:\Users\fx\Upwork\weather-node\output\core\core.a(vector_table.S.o)
__irq_exti9_5                                     c:\Users\fx\Upwork\weather-node\output\core\core.a(exti.c.o)
                                                  c:\Users\fx\Upwork\weather-node\output\core\core.a(vector_table.S.o)
__irq_flash                                       c:\Users\fx\Upwork\weather-node\output\core\core.a(isrs.S.o)
                                                  c:\Users\fx\Upwork\weather-node\output\core\core.a(vector_table.S.o)
__irq_i2c1_er                                     c:\Users\fx\Upwork\weather-node\output\core\core.a(i2c_f1.c.o)
                                                  c:\Users\fx\Upwork\weather-node\output\core\core.a(vector_table.S.o)
__irq_i2c1_ev                                     c:\Users\fx\Upwork\weather-node\output\core\core.a(i2c_f1.c.o)
                                                  c:\Users\fx\Upwork\weather-node\output\core\core.a(vector_table.S.o)
__irq_i2c2_er                                     c:\Users\fx\Upwork\weather-node\output\core\core.a(i2c_f1.c.o)
                                                  c:\Users\fx\Upwork\weather-node\output\core\core.a(vector_table.S.o)
__irq_i2c2_ev                                     c:\Users\fx\Upwork\weather-node\output\core\core.a(i2c_f1.c.o)
                                                  c:\Users\fx\Upwork\weather-node\output\core\core.a(vector_table.S.o)
__irq_pvd                                         c:\Users\fx\Upwork\weather-node\output\core\core.a(isrs.S.o)
                                                  c:\Users\fx\Upwork\weather-node\output\core\core.a(vector_table.S.o)
__irq_rcc                                         c:\Users\fx\Upwork\weather-node\output\core\core.a(isrs.S.o)
                                                  c:\Users\fx\Upwork\weather-node\output\core\core.a(vector_table.S.o)
__irq_rtc                                         c:\Users\fx\Upwork\weather-node\output\core\core.a(isrs.S.o)
                                                  c:\Users\fx\Upwork\weather-node\output\core\core.a(vector_table.S.o)
__irq_rtcalarm                                    c:\Users\fx\Upwork\weather-node\output\core\core.a(isrs.S.o)
                                                  c:\Users\fx\Upwork\weather-node\output\core\core.a(vector_table.S.o)
__irq_spi1                                        c:\Users\fx\Upwork\weather-node\output\core\core.a(isrs.S.o)
                                                  c:\Users\fx\Upwork\weather-node\output\core\core.a(vector_table.S.o)
__irq_spi2                                        c:\Users\fx\Upwork\weather-node\output\core\core.a(isrs.S.o)
                                                  c:\Users\fx\Upwork\weather-node\output\core\core.a(vector_table.S.o)
__irq_tamper                                      c:\Users\fx\Upwork\weather-node\output\core\core.a(isrs.S.o)
                                                  c:\Users\fx\Upwork\weather-node\output\core\core.a(vector_table.S.o)
__irq_tim1_brk                                    c:\Users\fx\Upwork\weather-node\output\core\core.a(timer.c.o)
                                                  c:\Users\fx\Upwork\weather-node\output\core\core.a(vector_table.S.o)
__irq_tim1_cc                                     c:\Users\fx\Upwork\weather-node\output\core\core.a(timer.c.o)
                                                  c:\Users\fx\Upwork\weather-node\output\core\core.a(vector_table.S.o)
__irq_tim1_trg_com                                c:\Users\fx\Upwork\weather-node\output\core\core.a(timer.c.o)
                                                  c:\Users\fx\Upwork\weather-node\output\core\core.a(vector_table.S.o)
__irq_tim1_up                                     c:\Users\fx\Upwork\weather-node\output\core\core.a(timer.c.o)
                                                  c:\Users\fx\Upwork\weather-node\output\core\core.a(vector_table.S.o)
__irq_tim2                                        c:\Users\fx\Upwork\weather-node\output\core\core.a(timer.c.o)
                                                  c:\Users\fx\Upwork\weather-node\output\core\core.a(vector_table.S.o)
__irq_tim3                                        c:\Users\fx\Upwork\weather-node\output\core\core.a(timer.c.o)
                                                  c:\Users\fx\Upwork\weather-node\output\core\core.a(vector_table.S.o)
__irq_tim4                                        c:\Users\fx\Upwork\weather-node\output\core\core.a(timer.c.o)
                                                  c:\Users\fx\Upwork\weather-node\output\core\core.a(vector_table.S.o)
__irq_usart1                                      c:\Users\fx\Upwork\weather-node\output\core\core.a(usart_f1.c.o)
                                                  c:\Users\fx\Upwork\weather-node\output\core\core.a(vector_table.S.o)
__irq_usart2                                      c:\Users\fx\Upwork\weather-node\output\core\core.a(usart_f1.c.o)
                                                  c:\Users\fx\Upwork\weather-node\output\core\core.a(vector_table.S.o)
__irq_usart3                                      c:\Users\fx\Upwork\weather-node\output\core\core.a(usart_f1.c.o)
                                                  c:\Users\fx\Upwork\weather-node\output\core\core.a(vector_table.S.o)
__irq_usb_hp_can_tx                               c:\Users\fx\Upwork\weather-node\output\core\core.a(isrs.S.o)
                                                  c:\Users\fx\Upwork\weather-node\output\core\core.a(vector_table.S.o)
__irq_usb_lp_can_rx0                              c:\Users\fx\Upwork\weather-node\output\core\core.a(usb.c.o)
                                                  c:\Users\fx\Upwork\weather-node\output\core\core.a(vector_table.S.o)
__irq_usbwakeup                                   c:\Users\fx\Upwork\weather-node\output\core\core.a(isrs.S.o)
                                                  c:\Users\fx\Upwork\weather-node\output\core\core.a(vector_table.S.o)
__irq_wwdg                                        c:\Users\fx\Upwork\weather-node\output\core\core.a(isrs.S.o)
                                                  c:\Users\fx\Upwork\weather-node\output\core\core.a(vector_table.S.o)
__ledf2                                           c:/users/fx/appdata/local/arduino15/packages/arduino/tools/arm-none-eabi-gcc/4.8.3-2014q1/bin/../lib/gcc/arm-none-eabi/4.8.3/armv7-m\libgcc.a(_arm_cmpdf2.o)
__lesf2                                           c:/users/fx/appdata/local/arduino15/packages/arduino/tools/arm-none-eabi-gcc/4.8.3-2014q1/bin/../lib/gcc/arm-none-eabi/4.8.3/armv7-m\libgcc.a(_arm_cmpsf2.o)
__libc_fini                                       c:/users/fx/appdata/local/arduino15/packages/arduino/tools/arm-none-eabi-gcc/4.8.3-2014q1/bin/../lib/gcc/arm-none-eabi/4.8.3/../../../../arm-none-eabi/lib/armv7-m\libc.a(lib_a-__call_atexit.o)
__libc_fini_array                                 c:/users/fx/appdata/local/arduino15/packages/arduino/tools/arm-none-eabi-gcc/4.8.3-2014q1/bin/../lib/gcc/arm-none-eabi/4.8.3/../../../../arm-none-eabi/lib/armv7-m\libc.a(lib_a-fini.o)
                                                  c:/users/fx/appdata/local/arduino15/packages/arduino/tools/arm-none-eabi-gcc/4.8.3-2014q1/bin/../lib/gcc/arm-none-eabi/4.8.3/../../../../arm-none-eabi/lib/armv7-m\libc.a(lib_a-__call_atexit.o)
                                                  c:/users/fx/appdata/local/arduino15/packages/arduino/tools/arm-none-eabi-gcc/4.8.3-2014q1/bin/../lib/gcc/arm-none-eabi/4.8.3/../../../../arm-none-eabi/lib/armv7-m/crt0.o
__libc_init_array                                 c:/users/fx/appdata/local/arduino15/packages/arduino/tools/arm-none-eabi-gcc/4.8.3-2014q1/bin/../lib/gcc/arm-none-eabi/4.8.3/../../../../arm-none-eabi/lib/armv7-m\libc.a(lib_a-init.o)
                                                  c:\Users\fx\Upwork\weather-node\output\core\wirish\start_c.c.o
                                                  c:/users/fx/appdata/local/arduino15/packages/arduino/tools/arm-none-eabi-gcc/4.8.3-2014q1/bin/../lib/gcc/arm-none-eabi/4.8.3/../../../../arm-none-eabi/lib/armv7-m/crt0.o
__lm_enable_error_usart                           c:\Users\fx\Upwork\weather-node\output\core\core.a(util.c.o)
__lm_error                                        c:\Users\fx\Upwork\weather-node\output\core\core.a(util.c.o)
__lo0bits                                         c:/users/fx/appdata/local/arduino15/packages/arduino/tools/arm-none-eabi-gcc/4.8.3-2014q1/bin/../lib/gcc/arm-none-eabi/4.8.3/../../../../arm-none-eabi/lib/armv7-m\libc.a(lib_a-mprec.o)
__locale_charset                                  c:/users/fx/appdata/local/arduino15/packages/arduino/tools/arm-none-eabi-gcc/4.8.3-2014q1/bin/../lib/gcc/arm-none-eabi/4.8.3/../../../../arm-none-eabi/lib/armv7-m\libc.a(lib_a-locale.o)
__locale_cjk_lang                                 c:/users/fx/appdata/local/arduino15/packages/arduino/tools/arm-none-eabi-gcc/4.8.3-2014q1/bin/../lib/gcc/arm-none-eabi/4.8.3/../../../../arm-none-eabi/lib/armv7-m\libc.a(lib_a-locale.o)
__locale_mb_cur_max                               c:/users/fx/appdata/local/arduino15/packages/arduino/tools/arm-none-eabi-gcc/4.8.3-2014q1/bin/../lib/gcc/arm-none-eabi/4.8.3/../../../../arm-none-eabi/lib/armv7-m\libc.a(lib_a-locale.o)
__locale_msgcharset                               c:/users/fx/appdata/local/arduino15/packages/arduino/tools/arm-none-eabi-gcc/4.8.3-2014q1/bin/../lib/gcc/arm-none-eabi/4.8.3/../../../../arm-none-eabi/lib/armv7-m\libc.a(lib_a-locale.o)
__lshift                                          c:/users/fx/appdata/local/arduino15/packages/arduino/tools/arm-none-eabi-gcc/4.8.3-2014q1/bin/../lib/gcc/arm-none-eabi/4.8.3/../../../../arm-none-eabi/lib/armv7-m\libc.a(lib_a-mprec.o)
                                                  c:/users/fx/appdata/local/arduino15/packages/arduino/tools/arm-none-eabi-gcc/4.8.3-2014q1/bin/../lib/gcc/arm-none-eabi/4.8.3/../../../../arm-none-eabi/lib/armv7-m\libc.a(lib_a-dtoa.o)
__ltdf2                                           c:/users/fx/appdata/local/arduino15/packages/arduino/tools/arm-none-eabi-gcc/4.8.3-2014q1/bin/../lib/gcc/arm-none-eabi/4.8.3/armv7-m\libgcc.a(_arm_cmpdf2.o)
__ltsf2                                           c:/users/fx/appdata/local/arduino15/packages/arduino/tools/arm-none-eabi-gcc/4.8.3-2014q1/bin/../lib/gcc/arm-none-eabi/4.8.3/armv7-m\libgcc.a(_arm_cmpsf2.o)
__malloc_av_                                      c:/users/fx/appdata/local/arduino15/packages/arduino/tools/arm-none-eabi-gcc/4.8.3-2014q1/bin/../lib/gcc/arm-none-eabi/4.8.3/../../../../arm-none-eabi/lib/armv7-m\libc.a(lib_a-mallocr.o)
                                                  c:/users/fx/appdata/local/arduino15/packages/arduino/tools/arm-none-eabi-gcc/4.8.3-2014q1/bin/../lib/gcc/arm-none-eabi/4.8.3/../../../../arm-none-eabi/lib/armv7-m\libc.a(lib_a-reallocr.o)
                                                  c:/users/fx/appdata/local/arduino15/packages/arduino/tools/arm-none-eabi-gcc/4.8.3-2014q1/bin/../lib/gcc/arm-none-eabi/4.8.3/../../../../arm-none-eabi/lib/armv7-m\libc.a(lib_a-freer.o)
__malloc_current_mallinfo                         c:/users/fx/appdata/local/arduino15/packages/arduino/tools/arm-none-eabi-gcc/4.8.3-2014q1/bin/../lib/gcc/arm-none-eabi/4.8.3/../../../../arm-none-eabi/lib/armv7-m\libc.a(lib_a-mallocr.o)
                                                  c:/users/fx/appdata/local/arduino15/packages/arduino/tools/arm-none-eabi-gcc/4.8.3-2014q1/bin/../lib/gcc/arm-none-eabi/4.8.3/../../../../arm-none-eabi/lib/armv7-m\libc.a(lib_a-freer.o)
__malloc_lock                                     c:/users/fx/appdata/local/arduino15/packages/arduino/tools/arm-none-eabi-gcc/4.8.3-2014q1/bin/../lib/gcc/arm-none-eabi/4.8.3/../../../../arm-none-eabi/lib/armv7-m\libc.a(lib_a-mlock.o)
                                                  c:/users/fx/appdata/local/arduino15/packages/arduino/tools/arm-none-eabi-gcc/4.8.3-2014q1/bin/../lib/gcc/arm-none-eabi/4.8.3/../../../../arm-none-eabi/lib/armv7-m\libc.a(lib_a-reallocr.o)
                                                  c:/users/fx/appdata/local/arduino15/packages/arduino/tools/arm-none-eabi-gcc/4.8.3-2014q1/bin/../lib/gcc/arm-none-eabi/4.8.3/../../../../arm-none-eabi/lib/armv7-m\libc.a(lib_a-freer.o)
                                                  c:/users/fx/appdata/local/arduino15/packages/arduino/tools/arm-none-eabi-gcc/4.8.3-2014q1/bin/../lib/gcc/arm-none-eabi/4.8.3/../../../../arm-none-eabi/lib/armv7-m\libc.a(lib_a-mallocr.o)
__malloc_max_sbrked_mem                           c:/users/fx/appdata/local/arduino15/packages/arduino/tools/arm-none-eabi-gcc/4.8.3-2014q1/bin/../lib/gcc/arm-none-eabi/4.8.3/../../../../arm-none-eabi/lib/armv7-m\libc.a(lib_a-mallocr.o)
__malloc_max_total_mem                            c:/users/fx/appdata/local/arduino15/packages/arduino/tools/arm-none-eabi-gcc/4.8.3-2014q1/bin/../lib/gcc/arm-none-eabi/4.8.3/../../../../arm-none-eabi/lib/armv7-m\libc.a(lib_a-mallocr.o)
__malloc_sbrk_base                                c:/users/fx/appdata/local/arduino15/packages/arduino/tools/arm-none-eabi-gcc/4.8.3-2014q1/bin/../lib/gcc/arm-none-eabi/4.8.3/../../../../arm-none-eabi/lib/armv7-m\libc.a(lib_a-mallocr.o)
                                                  c:/users/fx/appdata/local/arduino15/packages/arduino/tools/arm-none-eabi-gcc/4.8.3-2014q1/bin/../lib/gcc/arm-none-eabi/4.8.3/../../../../arm-none-eabi/lib/armv7-m\libc.a(lib_a-freer.o)
__malloc_top_pad                                  c:/users/fx/appdata/local/arduino15/packages/arduino/tools/arm-none-eabi-gcc/4.8.3-2014q1/bin/../lib/gcc/arm-none-eabi/4.8.3/../../../../arm-none-eabi/lib/armv7-m\libc.a(lib_a-mallocr.o)
                                                  c:/users/fx/appdata/local/arduino15/packages/arduino/tools/arm-none-eabi-gcc/4.8.3-2014q1/bin/../lib/gcc/arm-none-eabi/4.8.3/../../../../arm-none-eabi/lib/armv7-m\libc.a(lib_a-freer.o)
__malloc_trim_threshold                           c:/users/fx/appdata/local/arduino15/packages/arduino/tools/arm-none-eabi-gcc/4.8.3-2014q1/bin/../lib/gcc/arm-none-eabi/4.8.3/../../../../arm-none-eabi/lib/armv7-m\libc.a(lib_a-mallocr.o)
                                                  c:/users/fx/appdata/local/arduino15/packages/arduino/tools/arm-none-eabi-gcc/4.8.3-2014q1/bin/../lib/gcc/arm-none-eabi/4.8.3/../../../../arm-none-eabi/lib/armv7-m\libc.a(lib_a-freer.o)
__malloc_unlock                                   c:/users/fx/appdata/local/arduino15/packages/arduino/tools/arm-none-eabi-gcc/4.8.3-2014q1/bin/../lib/gcc/arm-none-eabi/4.8.3/../../../../arm-none-eabi/lib/armv7-m\libc.a(lib_a-mlock.o)
                                                  c:/users/fx/appdata/local/arduino15/packages/arduino/tools/arm-none-eabi-gcc/4.8.3-2014q1/bin/../lib/gcc/arm-none-eabi/4.8.3/../../../../arm-none-eabi/lib/armv7-m\libc.a(lib_a-reallocr.o)
                                                  c:/users/fx/appdata/local/arduino15/packages/arduino/tools/arm-none-eabi-gcc/4.8.3-2014q1/bin/../lib/gcc/arm-none-eabi/4.8.3/../../../../arm-none-eabi/lib/armv7-m\libc.a(lib_a-freer.o)
                                                  c:/users/fx/appdata/local/arduino15/packages/arduino/tools/arm-none-eabi-gcc/4.8.3-2014q1/bin/../lib/gcc/arm-none-eabi/4.8.3/../../../../arm-none-eabi/lib/armv7-m\libc.a(lib_a-mallocr.o)
__mb_cur_max                                      c:/users/fx/appdata/local/arduino15/packages/arduino/tools/arm-none-eabi-gcc/4.8.3-2014q1/bin/../lib/gcc/arm-none-eabi/4.8.3/../../../../arm-none-eabi/lib/armv7-m\libc.a(lib_a-locale.o)
__mcmp                                            c:/users/fx/appdata/local/arduino15/packages/arduino/tools/arm-none-eabi-gcc/4.8.3-2014q1/bin/../lib/gcc/arm-none-eabi/4.8.3/../../../../arm-none-eabi/lib/armv7-m\libc.a(lib_a-mprec.o)
                                                  c:/users/fx/appdata/local/arduino15/packages/arduino/tools/arm-none-eabi-gcc/4.8.3-2014q1/bin/../lib/gcc/arm-none-eabi/4.8.3/../../../../arm-none-eabi/lib/armv7-m\libc.a(lib_a-dtoa.o)
__mdiff                                           c:/users/fx/appdata/local/arduino15/packages/arduino/tools/arm-none-eabi-gcc/4.8.3-2014q1/bin/../lib/gcc/arm-none-eabi/4.8.3/../../../../arm-none-eabi/lib/armv7-m\libc.a(lib_a-mprec.o)
                                                  c:/users/fx/appdata/local/arduino15/packages/arduino/tools/arm-none-eabi-gcc/4.8.3-2014q1/bin/../lib/gcc/arm-none-eabi/4.8.3/../../../../arm-none-eabi/lib/armv7-m\libc.a(lib_a-dtoa.o)
__mlocale_changed                                 c:/users/fx/appdata/local/arduino15/packages/arduino/tools/arm-none-eabi-gcc/4.8.3-2014q1/bin/../lib/gcc/arm-none-eabi/4.8.3/../../../../arm-none-eabi/lib/armv7-m\libc.a(lib_a-locale.o)
__mprec_bigtens                                   c:/users/fx/appdata/local/arduino15/packages/arduino/tools/arm-none-eabi-gcc/4.8.3-2014q1/bin/../lib/gcc/arm-none-eabi/4.8.3/../../../../arm-none-eabi/lib/armv7-m\libc.a(lib_a-mprec.o)
                                                  c:/users/fx/appdata/local/arduino15/packages/arduino/tools/arm-none-eabi-gcc/4.8.3-2014q1/bin/../lib/gcc/arm-none-eabi/4.8.3/../../../../arm-none-eabi/lib/armv7-m\libc.a(lib_a-dtoa.o)
__mprec_tens                                      c:/users/fx/appdata/local/arduino15/packages/arduino/tools/arm-none-eabi-gcc/4.8.3-2014q1/bin/../lib/gcc/arm-none-eabi/4.8.3/../../../../arm-none-eabi/lib/armv7-m\libc.a(lib_a-mprec.o)
                                                  c:/users/fx/appdata/local/arduino15/packages/arduino/tools/arm-none-eabi-gcc/4.8.3-2014q1/bin/../lib/gcc/arm-none-eabi/4.8.3/../../../../arm-none-eabi/lib/armv7-m\libc.a(lib_a-dtoa.o)
__mprec_tinytens                                  c:/users/fx/appdata/local/arduino15/packages/arduino/tools/arm-none-eabi-gcc/4.8.3-2014q1/bin/../lib/gcc/arm-none-eabi/4.8.3/../../../../arm-none-eabi/lib/armv7-m\libc.a(lib_a-mprec.o)
__msp_init                                        c:\Users\fx\Upwork\weather-node\output\core\core.a(vector_table.S.o)
                                                  c:\Users\fx\Upwork\weather-node\output\core\wirish\start.S.o
__muldf3                                          c:/users/fx/appdata/local/arduino15/packages/arduino/tools/arm-none-eabi-gcc/4.8.3-2014q1/bin/../lib/gcc/arm-none-eabi/4.8.3/armv7-m\libgcc.a(_arm_muldivdf3.o)
__multadd                                         c:/users/fx/appdata/local/arduino15/packages/arduino/tools/arm-none-eabi-gcc/4.8.3-2014q1/bin/../lib/gcc/arm-none-eabi/4.8.3/../../../../arm-none-eabi/lib/armv7-m\libc.a(lib_a-mprec.o)
                                                  c:/users/fx/appdata/local/arduino15/packages/arduino/tools/arm-none-eabi-gcc/4.8.3-2014q1/bin/../lib/gcc/arm-none-eabi/4.8.3/../../../../arm-none-eabi/lib/armv7-m\libc.a(lib_a-dtoa.o)
__multiply                                        c:/users/fx/appdata/local/arduino15/packages/arduino/tools/arm-none-eabi-gcc/4.8.3-2014q1/bin/../lib/gcc/arm-none-eabi/4.8.3/../../../../arm-none-eabi/lib/armv7-m\libc.a(lib_a-mprec.o)
                                                  c:/users/fx/appdata/local/arduino15/packages/arduino/tools/arm-none-eabi-gcc/4.8.3-2014q1/bin/../lib/gcc/arm-none-eabi/4.8.3/../../../../arm-none-eabi/lib/armv7-m\libc.a(lib_a-dtoa.o)
__nedf2                                           c:/users/fx/appdata/local/arduino15/packages/arduino/tools/arm-none-eabi-gcc/4.8.3-2014q1/bin/../lib/gcc/arm-none-eabi/4.8.3/armv7-m\libgcc.a(_arm_cmpdf2.o)
__nesf2                                           c:/users/fx/appdata/local/arduino15/packages/arduino/tools/arm-none-eabi-gcc/4.8.3-2014q1/bin/../lib/gcc/arm-none-eabi/4.8.3/armv7-m\libgcc.a(_arm_cmpsf2.o)
__nlocale_changed                                 c:/users/fx/appdata/local/arduino15/packages/arduino/tools/arm-none-eabi-gcc/4.8.3-2014q1/bin/../lib/gcc/arm-none-eabi/4.8.3/../../../../arm-none-eabi/lib/armv7-m\libc.a(lib_a-locale.o)
__pow5mult                                        c:/users/fx/appdata/local/arduino15/packages/arduino/tools/arm-none-eabi-gcc/4.8.3-2014q1/bin/../lib/gcc/arm-none-eabi/4.8.3/../../../../arm-none-eabi/lib/armv7-m\libc.a(lib_a-mprec.o)
                                                  c:/users/fx/appdata/local/arduino15/packages/arduino/tools/arm-none-eabi-gcc/4.8.3-2014q1/bin/../lib/gcc/arm-none-eabi/4.8.3/../../../../arm-none-eabi/lib/armv7-m\libc.a(lib_a-dtoa.o)
__preinit_array_end                               c:/users/fx/appdata/local/arduino15/packages/arduino/tools/arm-none-eabi-gcc/4.8.3-2014q1/bin/../lib/gcc/arm-none-eabi/4.8.3/../../../../arm-none-eabi/lib/armv7-m\libc.a(lib_a-init.o)
__preinit_array_start                             c:/users/fx/appdata/local/arduino15/packages/arduino/tools/arm-none-eabi-gcc/4.8.3-2014q1/bin/../lib/gcc/arm-none-eabi/4.8.3/../../../../arm-none-eabi/lib/armv7-m\libc.a(lib_a-init.o)
__ratio                                           c:/users/fx/appdata/local/arduino15/packages/arduino/tools/arm-none-eabi-gcc/4.8.3-2014q1/bin/../lib/gcc/arm-none-eabi/4.8.3/../../../../arm-none-eabi/lib/armv7-m\libc.a(lib_a-mprec.o)
__register_exitproc                               c:/users/fx/appdata/local/arduino15/packages/arduino/tools/arm-none-eabi-gcc/4.8.3-2014q1/bin/../lib/gcc/arm-none-eabi/4.8.3/../../../../arm-none-eabi/lib/armv7-m\libc.a(lib_a-__atexit.o)
                                                  c:/users/fx/appdata/local/arduino15/packages/arduino/tools/arm-none-eabi-gcc/4.8.3-2014q1/bin/../lib/gcc/arm-none-eabi/4.8.3/../../../../arm-none-eabi/lib/armv7-m\libc.a(lib_a-atexit.o)
__register_frame_info                             c:/users/fx/appdata/local/arduino15/packages/arduino/tools/arm-none-eabi-gcc/4.8.3-2014q1/bin/../lib/gcc/arm-none-eabi/4.8.3/armv7-m/crtbegin.o
__s2b                                             c:/users/fx/appdata/local/arduino15/packages/arduino/tools/arm-none-eabi-gcc/4.8.3-2014q1/bin/../lib/gcc/arm-none-eabi/4.8.3/../../../../arm-none-eabi/lib/armv7-m\libc.a(lib_a-mprec.o)
__ssprint_r                                       c:/users/fx/appdata/local/arduino15/packages/arduino/tools/arm-none-eabi-gcc/4.8.3-2014q1/bin/../lib/gcc/arm-none-eabi/4.8.3/../../../../arm-none-eabi/lib/armv7-m\libc.a(lib_a-svfiprintf.o)
                                                  c:/users/fx/appdata/local/arduino15/packages/arduino/tools/arm-none-eabi-gcc/4.8.3-2014q1/bin/../lib/gcc/arm-none-eabi/4.8.3/../../../../arm-none-eabi/lib/armv7-m\libc.a(lib_a-svfprintf.o)
__stack                                           c:/users/fx/appdata/local/arduino15/packages/arduino/tools/arm-none-eabi-gcc/4.8.3-2014q1/bin/../lib/gcc/arm-none-eabi/4.8.3/../../../../arm-none-eabi/lib/armv7-m/crt0.o
__start__                                         c:\Users\fx\Upwork\weather-node\output\core\wirish\start.S.o
__stm32_vector_table                              c:\Users\fx\Upwork\weather-node\output\core\core.a(vector_table.S.o)
__stm32reservedexception10                        c:\Users\fx\Upwork\weather-node\output\core\core.a(isrs.S.o)
                                                  c:\Users\fx\Upwork\weather-node\output\core\core.a(vector_table.S.o)
__stm32reservedexception13                        c:\Users\fx\Upwork\weather-node\output\core\core.a(isrs.S.o)
                                                  c:\Users\fx\Upwork\weather-node\output\core\core.a(vector_table.S.o)
__stm32reservedexception7                         c:\Users\fx\Upwork\weather-node\output\core\core.a(isrs.S.o)
                                                  c:\Users\fx\Upwork\weather-node\output\core\core.a(vector_table.S.o)
__stm32reservedexception8                         c:\Users\fx\Upwork\weather-node\output\core\core.a(isrs.S.o)
                                                  c:\Users\fx\Upwork\weather-node\output\core\core.a(vector_table.S.o)
__stm32reservedexception9                         c:\Users\fx\Upwork\weather-node\output\core\core.a(isrs.S.o)
                                                  c:\Users\fx\Upwork\weather-node\output\core\core.a(vector_table.S.o)
__subdf3                                          c:/users/fx/appdata/local/arduino15/packages/arduino/tools/arm-none-eabi-gcc/4.8.3-2014q1/bin/../lib/gcc/arm-none-eabi/4.8.3/armv7-m\libgcc.a(_arm_addsubdf3.o)
__subsf3                                          c:/users/fx/appdata/local/arduino15/packages/arduino/tools/arm-none-eabi-gcc/4.8.3-2014q1/bin/../lib/gcc/arm-none-eabi/4.8.3/armv7-m\libgcc.a(_arm_addsubsf3.o)
__truncdfsf2                                      c:/users/fx/appdata/local/arduino15/packages/arduino/tools/arm-none-eabi-gcc/4.8.3-2014q1/bin/../lib/gcc/arm-none-eabi/4.8.3/armv7-m\libgcc.a(_arm_truncdfsf2.o)
__udivdi3                                         c:/users/fx/appdata/local/arduino15/packages/arduino/tools/arm-none-eabi-gcc/4.8.3-2014q1/bin/../lib/gcc/arm-none-eabi/4.8.3/armv7-m\libgcc.a(_udivdi3.o)
                                                  c:/users/fx/appdata/local/arduino15/packages/arduino/tools/arm-none-eabi-gcc/4.8.3-2014q1/bin/../lib/gcc/arm-none-eabi/4.8.3/armv7-m\libgcc.a(bpabi.o)
__ulp                                             c:/users/fx/appdata/local/arduino15/packages/arduino/tools/arm-none-eabi-gcc/4.8.3-2014q1/bin/../lib/gcc/arm-none-eabi/4.8.3/../../../../arm-none-eabi/lib/armv7-m\libc.a(lib_a-mprec.o)
_calloc_r                                         c:/users/fx/appdata/local/arduino15/packages/arduino/tools/arm-none-eabi-gcc/4.8.3-2014q1/bin/../lib/gcc/arm-none-eabi/4.8.3/../../../../arm-none-eabi/lib/armv7-m\libc.a(lib_a-callocr.o)
                                                  c:/users/fx/appdata/local/arduino15/packages/arduino/tools/arm-none-eabi-gcc/4.8.3-2014q1/bin/../lib/gcc/arm-none-eabi/4.8.3/../../../../arm-none-eabi/lib/armv7-m\libc.a(lib_a-mprec.o)
_close                                            c:\Users\fx\Upwork\weather-node\output\core\wirish\syscalls.c.o
_dma_addr_type                                    c:\Users\fx\Upwork\weather-node\output\core\core.a(dma.c.o)
                                                  c:\Users\fx\Upwork\weather-node\output\core\core.a(dma_f1.c.o)
_dtoa_r                                           c:/users/fx/appdata/local/arduino15/packages/arduino/tools/arm-none-eabi-gcc/4.8.3-2014q1/bin/../lib/gcc/arm-none-eabi/4.8.3/../../../../arm-none-eabi/lib/armv7-m\libc.a(lib_a-dtoa.o)
                                                  c:/users/fx/appdata/local/arduino15/packages/arduino/tools/arm-none-eabi-gcc/4.8.3-2014q1/bin/../lib/gcc/arm-none-eabi/4.8.3/../../../../arm-none-eabi/lib/armv7-m\libc.a(lib_a-svfprintf.o)
_exit                                             c:\Users\fx\Upwork\weather-node\output\core\wirish\syscalls.c.o
                                                  c:/users/fx/appdata/local/arduino15/packages/arduino/tools/arm-none-eabi-gcc/4.8.3-2014q1/bin/../lib/gcc/arm-none-eabi/4.8.3/../../../../arm-none-eabi/lib/armv7-m\libc.a(lib_a-exit.o)
_fail                                             c:\Users\fx\Upwork\weather-node\output\core\core.a(util.c.o)
_fini                                             c:/users/fx/appdata/local/arduino15/packages/arduino/tools/arm-none-eabi-gcc/4.8.3-2014q1/bin/../lib/gcc/arm-none-eabi/4.8.3/armv7-m/crti.o
                                                  c:/users/fx/appdata/local/arduino15/packages/arduino/tools/arm-none-eabi-gcc/4.8.3-2014q1/bin/../lib/gcc/arm-none-eabi/4.8.3/../../../../arm-none-eabi/lib/armv7-m\libc.a(lib_a-fini.o)
_free_r                                           c:/users/fx/appdata/local/arduino15/packages/arduino/tools/arm-none-eabi-gcc/4.8.3-2014q1/bin/../lib/gcc/arm-none-eabi/4.8.3/../../../../arm-none-eabi/lib/armv7-m\libc.a(lib_a-freer.o)
                                                  c:/users/fx/appdata/local/arduino15/packages/arduino/tools/arm-none-eabi-gcc/4.8.3-2014q1/bin/../lib/gcc/arm-none-eabi/4.8.3/../../../../arm-none-eabi/lib/armv7-m\libc.a(lib_a-reallocr.o)
                                                  c:/users/fx/appdata/local/arduino15/packages/arduino/tools/arm-none-eabi-gcc/4.8.3-2014q1/bin/../lib/gcc/arm-none-eabi/4.8.3/../../../../arm-none-eabi/lib/armv7-m\libc.a(lib_a-svfiprintf.o)
                                                  c:/users/fx/appdata/local/arduino15/packages/arduino/tools/arm-none-eabi-gcc/4.8.3-2014q1/bin/../lib/gcc/arm-none-eabi/4.8.3/../../../../arm-none-eabi/lib/armv7-m\libc.a(lib_a-reent.o)
                                                  c:/users/fx/appdata/local/arduino15/packages/arduino/tools/arm-none-eabi-gcc/4.8.3-2014q1/bin/../lib/gcc/arm-none-eabi/4.8.3/../../../../arm-none-eabi/lib/armv7-m\libc.a(lib_a-mallocr.o)
                                                  c:/users/fx/appdata/local/arduino15/packages/arduino/tools/arm-none-eabi-gcc/4.8.3-2014q1/bin/../lib/gcc/arm-none-eabi/4.8.3/../../../../arm-none-eabi/lib/armv7-m\libc.a(lib_a-malloc.o)
_fstat                                            c:\Users\fx\Upwork\weather-node\output\core\wirish\syscalls.c.o
_global_impure_ptr                                c:/users/fx/appdata/local/arduino15/packages/arduino/tools/arm-none-eabi-gcc/4.8.3-2014q1/bin/../lib/gcc/arm-none-eabi/4.8.3/../../../../arm-none-eabi/lib/armv7-m\libc.a(lib_a-impure.o)
                                                  c:/users/fx/appdata/local/arduino15/packages/arduino/tools/arm-none-eabi-gcc/4.8.3-2014q1/bin/../lib/gcc/arm-none-eabi/4.8.3/../../../../arm-none-eabi/lib/armv7-m\libc.a(lib_a-__atexit.o)
                                                  c:/users/fx/appdata/local/arduino15/packages/arduino/tools/arm-none-eabi-gcc/4.8.3-2014q1/bin/../lib/gcc/arm-none-eabi/4.8.3/../../../../arm-none-eabi/lib/armv7-m\libc.a(lib_a-__call_atexit.o)
                                                  c:/users/fx/appdata/local/arduino15/packages/arduino/tools/arm-none-eabi-gcc/4.8.3-2014q1/bin/../lib/gcc/arm-none-eabi/4.8.3/../../../../arm-none-eabi/lib/armv7-m\libc.a(lib_a-exit.o)
_i2c_irq_error_handler                            c:\Users\fx\Upwork\weather-node\output\core\core.a(i2c.c.o)
                                                  c:\Users\fx\Upwork\weather-node\output\core\core.a(i2c_f1.c.o)
_i2c_irq_handler                                  c:\Users\fx\Upwork\weather-node\output\core\core.a(i2c.c.o)
                                                  c:\Users\fx\Upwork\weather-node\output\core\core.a(i2c_f1.c.o)
_i2c_irq_priority_fixup                           c:\Users\fx\Upwork\weather-node\output\core\core.a(i2c_f1.c.o)
                                                  c:\Users\fx\Upwork\weather-node\output\core\core.a(i2c.c.o)
_impure_ptr                                       c:/users/fx/appdata/local/arduino15/packages/arduino/tools/arm-none-eabi-gcc/4.8.3-2014q1/bin/../lib/gcc/arm-none-eabi/4.8.3/../../../../arm-none-eabi/lib/armv7-m\libc.a(lib_a-impure.o)
                                                  c:/users/fx/appdata/local/arduino15/packages/arduino/tools/arm-none-eabi-gcc/4.8.3-2014q1/bin/../lib/gcc/arm-none-eabi/4.8.3/../../../../arm-none-eabi/lib/armv7-m\libc.a(lib_a-reent.o)
                                                  c:/users/fx/appdata/local/arduino15/packages/arduino/tools/arm-none-eabi-gcc/4.8.3-2014q1/bin/../lib/gcc/arm-none-eabi/4.8.3/../../../../arm-none-eabi/lib/armv7-m\libc.a(lib_a-locale.o)
                                                  c:/users/fx/appdata/local/arduino15/packages/arduino/tools/arm-none-eabi-gcc/4.8.3-2014q1/bin/../lib/gcc/arm-none-eabi/4.8.3/../../../../arm-none-eabi/lib/armv7-m\libc.a(lib_a-sprintf.o)
                                                  c:/users/fx/appdata/local/arduino15/packages/arduino/tools/arm-none-eabi-gcc/4.8.3-2014q1/bin/../lib/gcc/arm-none-eabi/4.8.3/../../../../arm-none-eabi/lib/armv7-m\libc.a(lib_a-malloc.o)
                                                  c:/users/fx/appdata/local/arduino15/packages/arduino/tools/arm-none-eabi-gcc/4.8.3-2014q1/bin/../lib/gcc/arm-none-eabi/4.8.3/../../../../arm-none-eabi/lib/armv7-m\libc.a(lib_a-errno.o)
_init                                             c:/users/fx/appdata/local/arduino15/packages/arduino/tools/arm-none-eabi-gcc/4.8.3-2014q1/bin/../lib/gcc/arm-none-eabi/4.8.3/armv7-m/crti.o
                                                  c:/users/fx/appdata/local/arduino15/packages/arduino/tools/arm-none-eabi-gcc/4.8.3-2014q1/bin/../lib/gcc/arm-none-eabi/4.8.3/../../../../arm-none-eabi/lib/armv7-m\libc.a(lib_a-init.o)
_isatty                                           c:\Users\fx\Upwork\weather-node\output\core\wirish\syscalls.c.o
_lm_heap_end                                      c:\Users\fx\Upwork\weather-node\output\core\wirish\syscalls.c.o
_lm_heap_start                                    c:\Users\fx\Upwork\weather-node\output\core\wirish\syscalls.c.o
_lm_rom_img_cfgp                                  c:\Users\fx\Upwork\weather-node\output\core\wirish\start_c.c.o
_localeconv_r                                     c:/users/fx/appdata/local/arduino15/packages/arduino/tools/arm-none-eabi-gcc/4.8.3-2014q1/bin/../lib/gcc/arm-none-eabi/4.8.3/../../../../arm-none-eabi/lib/armv7-m\libc.a(lib_a-locale.o)
                                                  c:/users/fx/appdata/local/arduino15/packages/arduino/tools/arm-none-eabi-gcc/4.8.3-2014q1/bin/../lib/gcc/arm-none-eabi/4.8.3/../../../../arm-none-eabi/lib/armv7-m\libc.a(lib_a-svfprintf.o)
_lseek                                            c:\Users\fx\Upwork\weather-node\output\core\wirish\syscalls.c.o
_mainCRTStartup                                   c:/users/fx/appdata/local/arduino15/packages/arduino/tools/arm-none-eabi-gcc/4.8.3-2014q1/bin/../lib/gcc/arm-none-eabi/4.8.3/../../../../arm-none-eabi/lib/armv7-m/crt0.o
_malloc_r                                         c:/users/fx/appdata/local/arduino15/packages/arduino/tools/arm-none-eabi-gcc/4.8.3-2014q1/bin/../lib/gcc/arm-none-eabi/4.8.3/../../../../arm-none-eabi/lib/armv7-m\libc.a(lib_a-mallocr.o)
                                                  c:/users/fx/appdata/local/arduino15/packages/arduino/tools/arm-none-eabi-gcc/4.8.3-2014q1/bin/../lib/gcc/arm-none-eabi/4.8.3/../../../../arm-none-eabi/lib/armv7-m\libc.a(lib_a-reallocr.o)
                                                  c:/users/fx/appdata/local/arduino15/packages/arduino/tools/arm-none-eabi-gcc/4.8.3-2014q1/bin/../lib/gcc/arm-none-eabi/4.8.3/../../../../arm-none-eabi/lib/armv7-m\libc.a(lib_a-callocr.o)
                                                  c:/users/fx/appdata/local/arduino15/packages/arduino/tools/arm-none-eabi-gcc/4.8.3-2014q1/bin/../lib/gcc/arm-none-eabi/4.8.3/../../../../arm-none-eabi/lib/armv7-m\libc.a(lib_a-svfiprintf.o)
                                                  c:/users/fx/appdata/local/arduino15/packages/arduino/tools/arm-none-eabi-gcc/4.8.3-2014q1/bin/../lib/gcc/arm-none-eabi/4.8.3/../../../../arm-none-eabi/lib/armv7-m\libc.a(lib_a-svfprintf.o)
                                                  c:/users/fx/appdata/local/arduino15/packages/arduino/tools/arm-none-eabi-gcc/4.8.3-2014q1/bin/../lib/gcc/arm-none-eabi/4.8.3/../../../../arm-none-eabi/lib/armv7-m\libc.a(lib_a-malloc.o)
_malloc_trim_r                                    c:/users/fx/appdata/local/arduino15/packages/arduino/tools/arm-none-eabi-gcc/4.8.3-2014q1/bin/../lib/gcc/arm-none-eabi/4.8.3/../../../../arm-none-eabi/lib/armv7-m\libc.a(lib_a-freer.o)
_mprec_log10                                      c:/users/fx/appdata/local/arduino15/packages/arduino/tools/arm-none-eabi-gcc/4.8.3-2014q1/bin/../lib/gcc/arm-none-eabi/4.8.3/../../../../arm-none-eabi/lib/armv7-m\libc.a(lib_a-mprec.o)
_open                                             c:\Users\fx\Upwork\weather-node\output\core\wirish\syscalls.c.o
_read                                             c:\Users\fx\Upwork\weather-node\output\core\wirish\syscalls.c.o
_realloc_r                                        c:/users/fx/appdata/local/arduino15/packages/arduino/tools/arm-none-eabi-gcc/4.8.3-2014q1/bin/../lib/gcc/arm-none-eabi/4.8.3/../../../../arm-none-eabi/lib/armv7-m\libc.a(lib_a-reallocr.o)
                                                  c:/users/fx/appdata/local/arduino15/packages/arduino/tools/arm-none-eabi-gcc/4.8.3-2014q1/bin/../lib/gcc/arm-none-eabi/4.8.3/../../../../arm-none-eabi/lib/armv7-m\libc.a(lib_a-svfiprintf.o)
_reclaim_reent                                    c:/users/fx/appdata/local/arduino15/packages/arduino/tools/arm-none-eabi-gcc/4.8.3-2014q1/bin/../lib/gcc/arm-none-eabi/4.8.3/../../../../arm-none-eabi/lib/armv7-m\libc.a(lib_a-reent.o)
_sbrk                                             c:\Users\fx\Upwork\weather-node\output\core\wirish\syscalls.c.o
                                                  c:/users/fx/appdata/local/arduino15/packages/arduino/tools/arm-none-eabi-gcc/4.8.3-2014q1/bin/../lib/gcc/arm-none-eabi/4.8.3/../../../../arm-none-eabi/lib/armv7-m\libc.a(lib_a-sbrkr.o)
_sbrk_r                                           c:/users/fx/appdata/local/arduino15/packages/arduino/tools/arm-none-eabi-gcc/4.8.3-2014q1/bin/../lib/gcc/arm-none-eabi/4.8.3/../../../../arm-none-eabi/lib/armv7-m\libc.a(lib_a-sbrkr.o)
                                                  c:/users/fx/appdata/local/arduino15/packages/arduino/tools/arm-none-eabi-gcc/4.8.3-2014q1/bin/../lib/gcc/arm-none-eabi/4.8.3/../../../../arm-none-eabi/lib/armv7-m\libc.a(lib_a-freer.o)
                                                  c:/users/fx/appdata/local/arduino15/packages/arduino/tools/arm-none-eabi-gcc/4.8.3-2014q1/bin/../lib/gcc/arm-none-eabi/4.8.3/../../../../arm-none-eabi/lib/armv7-m\libc.a(lib_a-mallocr.o)
_setlocale_r                                      c:/users/fx/appdata/local/arduino15/packages/arduino/tools/arm-none-eabi-gcc/4.8.3-2014q1/bin/../lib/gcc/arm-none-eabi/4.8.3/../../../../arm-none-eabi/lib/armv7-m\libc.a(lib_a-locale.o)
_sprintf_r                                        c:/users/fx/appdata/local/arduino15/packages/arduino/tools/arm-none-eabi-gcc/4.8.3-2014q1/bin/../lib/gcc/arm-none-eabi/4.8.3/../../../../arm-none-eabi/lib/armv7-m\libc.a(lib_a-sprintf.o)
_start                                            c:/users/fx/appdata/local/arduino15/packages/arduino/tools/arm-none-eabi-gcc/4.8.3-2014q1/bin/../lib/gcc/arm-none-eabi/4.8.3/../../../../arm-none-eabi/lib/armv7-m/crt0.o
_svfiprintf_r                                     c:/users/fx/appdata/local/arduino15/packages/arduino/tools/arm-none-eabi-gcc/4.8.3-2014q1/bin/../lib/gcc/arm-none-eabi/4.8.3/../../../../arm-none-eabi/lib/armv7-m\libc.a(lib_a-svfiprintf.o)
_svfprintf_r                                      c:/users/fx/appdata/local/arduino15/packages/arduino/tools/arm-none-eabi-gcc/4.8.3-2014q1/bin/../lib/gcc/arm-none-eabi/4.8.3/../../../../arm-none-eabi/lib/armv7-m\libc.a(lib_a-svfprintf.o)
                                                  c:/users/fx/appdata/local/arduino15/packages/arduino/tools/arm-none-eabi-gcc/4.8.3-2014q1/bin/../lib/gcc/arm-none-eabi/4.8.3/../../../../arm-none-eabi/lib/armv7-m\libc.a(lib_a-sprintf.o)
_usart_clock_freq                                 c:\Users\fx\Upwork\weather-node\output\core\core.a(usart_private.c.o)
                                                  c:\Users\fx\Upwork\weather-node\output\core\core.a(usart_f1.c.o)
_write                                            c:\Users\fx\Upwork\weather-node\output\core\wirish\syscalls.c.o
abort                                             c:\Users\fx\Upwork\weather-node\output\core\core.a(util.c.o)
adc1                                              c:\Users\fx\Upwork\weather-node\output\core\core.a(adc_f1.c.o)
                                                  c:\Users\fx\Upwork\weather-node\output\core\board.cpp.o
adc2                                              c:\Users\fx\Upwork\weather-node\output\core\core.a(adc_f1.c.o)
adc_attach_interrupt                              c:\Users\fx\Upwork\weather-node\output\core\core.a(adc_f1.c.o)
adc_calibrate                                     c:\Users\fx\Upwork\weather-node\output\core\core.a(adc_f1.c.o)
adc_config_gpio                                   c:\Users\fx\Upwork\weather-node\output\core\core.a(adc_f1.c.o)
adc_enable_irq                                    c:\Users\fx\Upwork\weather-node\output\core\core.a(adc_f1.c.o)
adc_enable_single_swstart                         c:\Users\fx\Upwork\weather-node\output\core\core.a(adc_f1.c.o)
                                                  c:\Users\fx\Upwork\weather-node\output\core\wirish\boards.cpp.o
adc_foreach                                       c:\Users\fx\Upwork\weather-node\output\core\core.a(adc_f1.c.o)
                                                  c:\Users\fx\Upwork\weather-node\output\core\wirish\boards.cpp.o
adc_init                                          c:\Users\fx\Upwork\weather-node\output\core\core.a(adc.c.o)
                                                  c:\Users\fx\Upwork\weather-node\output\core\core.a(adc_f1.c.o)
adc_read                                          c:\Users\fx\Upwork\weather-node\output\core\core.a(adc.c.o)
adc_set_extsel                                    c:\Users\fx\Upwork\weather-node\output\core\core.a(adc.c.o)
                                                  c:\Users\fx\Upwork\weather-node\output\core\core.a(adc_f1.c.o)
adc_set_prescaler                                 c:\Users\fx\Upwork\weather-node\output\core\core.a(adc_f1.c.o)
                                                  c:\Users\fx\Upwork\weather-node\output\core\wirish\boards.cpp.o
adc_set_sample_rate                               c:\Users\fx\Upwork\weather-node\output\core\core.a(adc.c.o)
                                                  c:\Users\fx\Upwork\weather-node\output\core\wirish\boards.cpp.o
afio_init                                         c:\Users\fx\Upwork\weather-node\output\core\core.a(gpio_f1.c.o)
                                                  c:\Users\fx\Upwork\weather-node\output\core\wirish\boards_setup.cpp.o
afio_is_remapped                                  c:\Users\fx\Upwork\weather-node\output\core\core.a(gpio_f1.c.o)
afio_remap                                        c:\Users\fx\Upwork\weather-node\output\core\core.a(gpio_f1.c.o)
                                                  c:\Users\fx\Upwork\weather-node\output\core\core.a(i2c.c.o)
                                                  c:\Users\fx\Upwork\weather-node\output\core\core.a(i2c_f1.c.o)
atexit                                            c:/users/fx/appdata/local/arduino15/packages/arduino/tools/arm-none-eabi-gcc/4.8.3-2014q1/bin/../lib/gcc/arm-none-eabi/4.8.3/../../../../arm-none-eabi/lib/armv7-m\libc.a(lib_a-atexit.o)
                                                  c:/users/fx/appdata/local/arduino15/packages/arduino/tools/arm-none-eabi-gcc/4.8.3-2014q1/bin/../lib/gcc/arm-none-eabi/4.8.3/../../../../arm-none-eabi/lib/armv7-m\libc.a(lib_a-__call_atexit.o)
                                                  c:/users/fx/appdata/local/arduino15/packages/arduino/tools/arm-none-eabi-gcc/4.8.3-2014q1/bin/../lib/gcc/arm-none-eabi/4.8.3/../../../../arm-none-eabi/lib/armv7-m/crt0.o
bkp                                               c:\Users\fx\Upwork\weather-node\output\core\core.a(bkp_f1.c.o)
bkp_disable_writes                                c:\Users\fx\Upwork\weather-node\output\core\core.a(bkp_f1.c.o)
                                                  c:\Users\fx\Upwork\weather-node\output\core\core.a(usb_serial.cpp.o)
bkp_enable_writes                                 c:\Users\fx\Upwork\weather-node\output\core\core.a(bkp_f1.c.o)
                                                  c:\Users\fx\Upwork\weather-node\output\core\core.a(usb_serial.cpp.o)
bkp_init                                          c:\Users\fx\Upwork\weather-node\output\core\core.a(bkp_f1.c.o)
                                                  c:\Users\fx\Upwork\weather-node\output\core\core.a(usb_serial.cpp.o)
bkp_read                                          c:\Users\fx\Upwork\weather-node\output\core\core.a(bkp_f1.c.o)
bkp_write                                         c:\Users\fx\Upwork\weather-node\output\core\core.a(bkp_f1.c.o)
                                                  c:\Users\fx\Upwork\weather-node\output\core\core.a(usb_serial.cpp.o)
blink()                                           c:\Users\fx\Upwork\weather-node\output\sketch\weatherSIM808.ino.cpp.o
boardADCPins                                      c:\Users\fx\Upwork\weather-node\output\core\board.cpp.o
boardInit()                                       c:\Users\fx\Upwork\weather-node\output\core\board.cpp.o
boardPWMPins                                      c:\Users\fx\Upwork\weather-node\output\core\board.cpp.o
boardUsedPins                                     c:\Users\fx\Upwork\weather-node\output\core\board.cpp.o
                                                  c:\Users\fx\Upwork\weather-node\output\core\wirish\boards.cpp.o
boardUsesPin(unsigned char)                       c:\Users\fx\Upwork\weather-node\output\core\wirish\boards.cpp.o
buildJSON()                                       c:\Users\fx\Upwork\weather-node\output\sketch\weatherSIM808.ino.cpp.o
cgets                                             c:\Users\fx\Upwork\weather-node\output\core\wirish\syscalls.c.o
cleanup_glue                                      c:/users/fx/appdata/local/arduino15/packages/arduino/tools/arm-none-eabi-gcc/4.8.3-2014q1/bin/../lib/gcc/arm-none-eabi/4.8.3/../../../../arm-none-eabi/lib/armv7-m\libc.a(lib_a-reent.o)
delay(unsigned long)                              c:\Users\fx\Upwork\weather-node\output\core\core.a(wirish_time.cpp.o)
                                                  c:\Users\fx\Upwork\weather-node\output\libraries\DHT_sensor_library\DHT.cpp.o
delayMicroseconds(unsigned long)                  c:\Users\fx\Upwork\weather-node\output\core\core.a(wirish_time.cpp.o)
                                                  c:\Users\fx\Upwork\weather-node\output\libraries\DHT_sensor_library\DHT.cpp.o
dht                                               c:\Users\fx\Upwork\weather-node\output\sketch\weatherSIM808.ino.cpp.o
digitalRead(unsigned char)                        c:\Users\fx\Upwork\weather-node\output\core\core.a(wirish_digital.cpp.o)
                                                  c:\Users\fx\Upwork\weather-node\output\libraries\DHT_sensor_library\DHT.cpp.o
digitalWrite(unsigned char, unsigned char)        c:\Users\fx\Upwork\weather-node\output\core\core.a(wirish_digital.cpp.o)
                                                  c:\Users\fx\Upwork\weather-node\output\libraries\DHT_sensor_library\DHT.cpp.o
                                                  c:\Users\fx\Upwork\weather-node\output\sketch\weatherSIM808.ino.cpp.o
dispatch_extis                                    c:\Users\fx\Upwork\weather-node\output\core\core.a(exti.c.o)
dispatch_single_exti                              c:\Users\fx\Upwork\weather-node\output\core\core.a(exti.c.o)
displayValues()                                   c:\Users\fx\Upwork\weather-node\output\sketch\weatherSIM808.ino.cpp.o
dma2Ch4_5                                         c:\Users\fx\Upwork\weather-node\output\core\core.a(dma_f1.c.o)
dma_attach_interrupt                              c:\Users\fx\Upwork\weather-node\output\core\core.a(dma_f1.c.o)
dma_detach_interrupt                              c:\Users\fx\Upwork\weather-node\output\core\core.a(dma_f1.c.o)
dma_disable                                       c:\Users\fx\Upwork\weather-node\output\core\core.a(dma_f1.c.o)
dma_enable                                        c:\Users\fx\Upwork\weather-node\output\core\core.a(dma_f1.c.o)
dma_get_irq_cause                                 c:\Users\fx\Upwork\weather-node\output\core\core.a(dma_f1.c.o)
dma_init                                          c:\Users\fx\Upwork\weather-node\output\core\core.a(dma.c.o)
dma_set_mem_addr                                  c:\Users\fx\Upwork\weather-node\output\core\core.a(dma_f1.c.o)
dma_set_num_transfers                             c:\Users\fx\Upwork\weather-node\output\core\core.a(dma_f1.c.o)
dma_set_per_addr                                  c:\Users\fx\Upwork\weather-node\output\core\core.a(dma_f1.c.o)
dma_set_priority                                  c:\Users\fx\Upwork\weather-node\output\core\core.a(dma_f1.c.o)
dma_setup_transfer                                c:\Users\fx\Upwork\weather-node\output\core\core.a(dma_f1.c.o)
dma_tube_cfg                                      c:\Users\fx\Upwork\weather-node\output\core\core.a(dma_f1.c.o)
errno                                             c:/users/fx/appdata/local/arduino15/packages/arduino/tools/arm-none-eabi-gcc/4.8.3-2014q1/bin/../lib/gcc/arm-none-eabi/4.8.3/../../../../arm-none-eabi/lib/armv7-m\libc.a(lib_a-reent.o)
                                                  c:/users/fx/appdata/local/arduino15/packages/arduino/tools/arm-none-eabi-gcc/4.8.3-2014q1/bin/../lib/gcc/arm-none-eabi/4.8.3/../../../../arm-none-eabi/lib/armv7-m\libc.a(lib_a-sbrkr.o)
exit                                              c:/users/fx/appdata/local/arduino15/packages/arduino/tools/arm-none-eabi-gcc/4.8.3-2014q1/bin/../lib/gcc/arm-none-eabi/4.8.3/../../../../arm-none-eabi/lib/armv7-m\libc.a(lib_a-exit.o)
                                                  c:/users/fx/appdata/local/arduino15/packages/arduino/tools/arm-none-eabi-gcc/4.8.3-2014q1/bin/../lib/gcc/arm-none-eabi/4.8.3/../../../../arm-none-eabi/lib/armv7-m/crt0.o
exti_attach_callback                              c:\Users\fx\Upwork\weather-node\output\core\core.a(exti.c.o)
exti_attach_interrupt                             c:\Users\fx\Upwork\weather-node\output\core\core.a(exti.c.o)
exti_channels                                     c:\Users\fx\Upwork\weather-node\output\core\core.a(exti.c.o)
exti_detach_interrupt                             c:\Users\fx\Upwork\weather-node\output\core\core.a(exti.c.o)
exti_do_select                                    c:\Users\fx\Upwork\weather-node\output\core\core.a(exti.c.o)
                                                  c:\Users\fx\Upwork\weather-node\output\core\core.a(exti_f1.c.o)
exti_select                                       c:\Users\fx\Upwork\weather-node\output\core\core.a(exti_f1.c.o)
                                                  c:\Users\fx\Upwork\weather-node\output\core\core.a(exti.c.o)
fgets                                             c:\Users\fx\Upwork\weather-node\output\core\wirish\syscalls.c.o
flagDOWNLOAD                                      c:\Users\fx\Upwork\weather-node\output\sketch\weatherSIM808.ino.cpp.o
flagERROR                                         c:\Users\fx\Upwork\weather-node\output\sketch\weatherSIM808.ino.cpp.o
flagGNS                                           c:\Users\fx\Upwork\weather-node\output\sketch\weatherSIM808.ino.cpp.o
flagHTTPACT                                       c:\Users\fx\Upwork\weather-node\output\sketch\weatherSIM808.ino.cpp.o
flagOK                                            c:\Users\fx\Upwork\weather-node\output\sketch\weatherSIM808.ino.cpp.o
flagREG                                           c:\Users\fx\Upwork\weather-node\output\sketch\weatherSIM808.ino.cpp.o
flash_set_latency                                 c:\Users\fx\Upwork\weather-node\output\core\core.a(flash.c.o)
                                                  c:\Users\fx\Upwork\weather-node\output\core\wirish\boards.cpp.o
free                                              c:/users/fx/appdata/local/arduino15/packages/arduino/tools/arm-none-eabi-gcc/4.8.3-2014q1/bin/../lib/gcc/arm-none-eabi/4.8.3/../../../../arm-none-eabi/lib/armv7-m\libc.a(lib_a-malloc.o)
                                                  c:/users/fx/appdata/local/arduino15/packages/arduino/tools/arm-none-eabi-gcc/4.8.3-2014q1/bin/../lib/gcc/arm-none-eabi/4.8.3/../../../../arm-none-eabi/lib/armv7-m\libc.a(lib_a-__call_atexit.o)
                                                  c:\Users\fx\Upwork\weather-node\output\core\core.a(new.cpp.o)
get_direction                                     c:\Users\fx\Upwork\weather-node\output\core\core.a(timer.c.o)
getch                                             c:\Users\fx\Upwork\weather-node\output\core\wirish\syscalls.c.o
gpio_get_mode                                     c:\Users\fx\Upwork\weather-node\output\core\core.a(gpio_f1.c.o)
gpio_init                                         c:\Users\fx\Upwork\weather-node\output\core\core.a(gpio.c.o)
                                                  c:\Users\fx\Upwork\weather-node\output\core\core.a(gpio_f1.c.o)
gpio_init_all                                     c:\Users\fx\Upwork\weather-node\output\core\core.a(gpio_f1.c.o)
                                                  c:\Users\fx\Upwork\weather-node\output\core\wirish\boards_setup.cpp.o
gpio_set_mode                                     c:\Users\fx\Upwork\weather-node\output\core\core.a(gpio_f1.c.o)
                                                  c:\Users\fx\Upwork\weather-node\output\core\core.a(wirish_digital_f1.cpp.o)
                                                  c:\Users\fx\Upwork\weather-node\output\core\core.a(util.c.o)
                                                  c:\Users\fx\Upwork\weather-node\output\core\core.a(usb_cdcacm.c.o)
                                                  c:\Users\fx\Upwork\weather-node\output\core\core.a(usart_f1.c.o)
                                                  c:\Users\fx\Upwork\weather-node\output\core\core.a(i2c_f1.c.o)
                                                  c:\Users\fx\Upwork\weather-node\output\core\core.a(adc_f1.c.o)
                                                  c:\Users\fx\Upwork\weather-node\output\core\wirish\boards_setup.cpp.o
gpioa                                             c:\Users\fx\Upwork\weather-node\output\core\core.a(gpio_f1.c.o)
                                                  c:\Users\fx\Upwork\weather-node\output\core\board.cpp.o
gpiob                                             c:\Users\fx\Upwork\weather-node\output\core\core.a(gpio_f1.c.o)
                                                  c:\Users\fx\Upwork\weather-node\output\core\core.a(i2c_f1.c.o)
                                                  c:\Users\fx\Upwork\weather-node\output\core\board.cpp.o
gpioc                                             c:\Users\fx\Upwork\weather-node\output\core\core.a(gpio_f1.c.o)
                                                  c:\Users\fx\Upwork\weather-node\output\core\board.cpp.o
gpiod                                             c:\Users\fx\Upwork\weather-node\output\core\core.a(gpio_f1.c.o)
hardware_init_hook                                c:/users/fx/appdata/local/arduino15/packages/arduino/tools/arm-none-eabi-gcc/4.8.3-2014q1/bin/../lib/gcc/arm-none-eabi/4.8.3/../../../../arm-none-eabi/lib/armv7-m/crt0.o
humidity                                          c:\Users\fx\Upwork\weather-node\output\sketch\weatherSIM808.ino.cpp.o
i2c_bus_reset                                     c:\Users\fx\Upwork\weather-node\output\core\core.a(i2c.c.o)
i2c_config_gpios                                  c:\Users\fx\Upwork\weather-node\output\core\core.a(i2c_f1.c.o)
                                                  c:\Users\fx\Upwork\weather-node\output\core\core.a(i2c.c.o)
i2c_init                                          c:\Users\fx\Upwork\weather-node\output\core\core.a(i2c.c.o)
i2c_master_enable                                 c:\Users\fx\Upwork\weather-node\output\core\core.a(i2c.c.o)
i2c_master_release_bus                            c:\Users\fx\Upwork\weather-node\output\core\core.a(i2c_f1.c.o)
                                                  c:\Users\fx\Upwork\weather-node\output\core\core.a(i2c.c.o)
i2c_master_xfer                                   c:\Users\fx\Upwork\weather-node\output\core\core.a(i2c.c.o)
i2c_set_ccr_trise                                 c:\Users\fx\Upwork\weather-node\output\core\core.a(i2c.c.o)
i2c_slave_attach_recv_handler                     c:\Users\fx\Upwork\weather-node\output\core\core.a(i2c.c.o)
i2c_slave_attach_transmit_handler                 c:\Users\fx\Upwork\weather-node\output\core\core.a(i2c.c.o)
i2c_slave_enable                                  c:\Users\fx\Upwork\weather-node\output\core\core.a(i2c.c.o)
init()                                            c:\Users\fx\Upwork\weather-node\output\core\wirish\boards.cpp.o
                                                  c:\Users\fx\Upwork\weather-node\output\core\core.a(main.cpp.o)
input_capture_mode                                c:\Users\fx\Upwork\weather-node\output\core\core.a(timer.c.o)
isatty                                            c:\Users\fx\Upwork\weather-node\output\core\wirish\syscalls.c.o
latitude                                          c:\Users\fx\Upwork\weather-node\output\sketch\weatherSIM808.ino.cpp.o
localeconv                                        c:/users/fx/appdata/local/arduino15/packages/arduino/tools/arm-none-eabi-gcc/4.8.3-2014q1/bin/../lib/gcc/arm-none-eabi/4.8.3/../../../../arm-none-eabi/lib/armv7-m\libc.a(lib_a-locale.o)
longitude                                         c:\Users\fx\Upwork\weather-node\output\sketch\weatherSIM808.ino.cpp.o
loop()                                            c:\Users\fx\Upwork\weather-node\output\sketch\weatherSIM808.ino.cpp.o
                                                  c:\Users\fx\Upwork\weather-node\output\core\core.a(main.cpp.o)
mPower()                                          c:\Users\fx\Upwork\weather-node\output\sketch\weatherSIM808.ino.cpp.o
main                                              c:\Users\fx\Upwork\weather-node\output\core\core.a(main.cpp.o)
                                                  c:\Users\fx\Upwork\weather-node\output\core\wirish\start_c.c.o
                                                  c:/users/fx/appdata/local/arduino15/packages/arduino/tools/arm-none-eabi-gcc/4.8.3-2014q1/bin/../lib/gcc/arm-none-eabi/4.8.3/../../../../arm-none-eabi/lib/armv7-m/crt0.o
malloc                                            c:/users/fx/appdata/local/arduino15/packages/arduino/tools/arm-none-eabi-gcc/4.8.3-2014q1/bin/../lib/gcc/arm-none-eabi/4.8.3/../../../../arm-none-eabi/lib/armv7-m\libc.a(lib_a-malloc.o)
                                                  c:/users/fx/appdata/local/arduino15/packages/arduino/tools/arm-none-eabi-gcc/4.8.3-2014q1/bin/../lib/gcc/arm-none-eabi/4.8.3/../../../../arm-none-eabi/lib/armv7-m\libc.a(lib_a-__atexit.o)
                                                  c:\Users\fx\Upwork\weather-node\output\core\core.a(new.cpp.o)
matherr                                           c:/users/fx/appdata/local/arduino15/packages/arduino/tools/arm-none-eabi-gcc/4.8.3-2014q1/bin/../lib/gcc/arm-none-eabi/4.8.3/../../../../arm-none-eabi/lib/armv7-m\libm.a(lib_a-s_matherr.o)
                                                  c:/users/fx/appdata/local/arduino15/packages/arduino/tools/arm-none-eabi-gcc/4.8.3-2014q1/bin/../lib/gcc/arm-none-eabi/4.8.3/../../../../arm-none-eabi/lib/armv7-m\libm.a(lib_a-w_sqrt.o)
memchr                                            c:/users/fx/appdata/local/arduino15/packages/arduino/tools/arm-none-eabi-gcc/4.8.3-2014q1/bin/../lib/gcc/arm-none-eabi/4.8.3/../../../../arm-none-eabi/lib/armv7-m\libc.a(lib_a-memchr-stub.o)
                                                  c:/users/fx/appdata/local/arduino15/packages/arduino/tools/arm-none-eabi-gcc/4.8.3-2014q1/bin/../lib/gcc/arm-none-eabi/4.8.3/../../../../arm-none-eabi/lib/armv7-m\libc.a(lib_a-svfiprintf.o)
                                                  c:/users/fx/appdata/local/arduino15/packages/arduino/tools/arm-none-eabi-gcc/4.8.3-2014q1/bin/../lib/gcc/arm-none-eabi/4.8.3/../../../../arm-none-eabi/lib/armv7-m\libc.a(lib_a-svfprintf.o)
                                                  c:\Users\fx\Upwork\weather-node\output\sketch\weatherSIM808.ino.cpp.o
memcmp                                            c:/users/fx/appdata/local/arduino15/packages/arduino/tools/arm-none-eabi-gcc/4.8.3-2014q1/bin/../lib/gcc/arm-none-eabi/4.8.3/../../../../arm-none-eabi/lib/armv7-m\libc.a(lib_a-memcmp.o)
                                                  c:\Users\fx\Upwork\weather-node\output\libraries\FreeRTOS821\utility\tasks.c.o
                                                  c:\Users\fx\Upwork\weather-node\output\sketch\weatherSIM808.ino.cpp.o
memcpy                                            c:/users/fx/appdata/local/arduino15/packages/arduino/tools/arm-none-eabi-gcc/4.8.3-2014q1/bin/../lib/gcc/arm-none-eabi/4.8.3/../../../../arm-none-eabi/lib/armv7-m\libc.a(lib_a-memcpy.o)
                                                  c:/users/fx/appdata/local/arduino15/packages/arduino/tools/arm-none-eabi-gcc/4.8.3-2014q1/bin/../lib/gcc/arm-none-eabi/4.8.3/../../../../arm-none-eabi/lib/armv7-m\libc.a(lib_a-svfiprintf.o)
                                                  c:/users/fx/appdata/local/arduino15/packages/arduino/tools/arm-none-eabi-gcc/4.8.3-2014q1/bin/../lib/gcc/arm-none-eabi/4.8.3/../../../../arm-none-eabi/lib/armv7-m\libc.a(lib_a-mprec.o)
                                                  c:/users/fx/appdata/local/arduino15/packages/arduino/tools/arm-none-eabi-gcc/4.8.3-2014q1/bin/../lib/gcc/arm-none-eabi/4.8.3/../../../../arm-none-eabi/lib/armv7-m\libc.a(lib_a-dtoa.o)
                                                  c:\Users\fx\Upwork\weather-node\output\libraries\FreeRTOS821\utility\queue.c.o
memmove                                           c:/users/fx/appdata/local/arduino15/packages/arduino/tools/arm-none-eabi-gcc/4.8.3-2014q1/bin/../lib/gcc/arm-none-eabi/4.8.3/../../../../arm-none-eabi/lib/armv7-m\libc.a(lib_a-memmove.o)
                                                  c:/users/fx/appdata/local/arduino15/packages/arduino/tools/arm-none-eabi-gcc/4.8.3-2014q1/bin/../lib/gcc/arm-none-eabi/4.8.3/../../../../arm-none-eabi/lib/armv7-m\libc.a(lib_a-reallocr.o)
                                                  c:/users/fx/appdata/local/arduino15/packages/arduino/tools/arm-none-eabi-gcc/4.8.3-2014q1/bin/../lib/gcc/arm-none-eabi/4.8.3/../../../../arm-none-eabi/lib/armv7-m\libc.a(lib_a-svfiprintf.o)
memset                                            c:/users/fx/appdata/local/arduino15/packages/arduino/tools/arm-none-eabi-gcc/4.8.3-2014q1/bin/../lib/gcc/arm-none-eabi/4.8.3/../../../../arm-none-eabi/lib/armv7-m\libc.a(lib_a-memset.o)
                                                  c:/users/fx/appdata/local/arduino15/packages/arduino/tools/arm-none-eabi-gcc/4.8.3-2014q1/bin/../lib/gcc/arm-none-eabi/4.8.3/../../../../arm-none-eabi/lib/armv7-m\libc.a(lib_a-callocr.o)
                                                  c:\Users\fx\Upwork\weather-node\output\libraries\DHT_sensor_library\DHT_U.cpp.o
                                                  c:\Users\fx\Upwork\weather-node\output\libraries\FreeRTOS821\utility\tasks.c.o
                                                  c:\Users\fx\Upwork\weather-node\output\sketch\weatherSIM808.ino.cpp.o
                                                  c:/users/fx/appdata/local/arduino15/packages/arduino/tools/arm-none-eabi-gcc/4.8.3-2014q1/bin/../lib/gcc/arm-none-eabi/4.8.3/../../../../arm-none-eabi/lib/armv7-m/crt0.o
modem_buffer                                      c:\Users\fx\Upwork\weather-node\output\sketch\weatherSIM808.ino.cpp.o
modem_i                                           c:\Users\fx\Upwork\weather-node\output\sketch\weatherSIM808.ino.cpp.o
nvic_init                                         c:\Users\fx\Upwork\weather-node\output\core\core.a(nvic.c.o)
                                                  c:\Users\fx\Upwork\weather-node\output\core\wirish\boards.cpp.o
nvic_irq_set_priority                             c:\Users\fx\Upwork\weather-node\output\core\core.a(nvic.c.o)
                                                  c:\Users\fx\Upwork\weather-node\output\core\core.a(i2c_f1.c.o)
nvic_set_vector_table                             c:\Users\fx\Upwork\weather-node\output\core\core.a(nvic.c.o)
nvic_sys_reset                                    c:\Users\fx\Upwork\weather-node\output\core\core.a(nvic.c.o)
                                                  c:\Users\fx\Upwork\weather-node\output\core\core.a(usb_serial.cpp.o)
operator delete(void*)                            c:\Users\fx\Upwork\weather-node\output\core\core.a(new.cpp.o)
                                                  c:\Users\fx\Upwork\weather-node\output\libraries\DHT_sensor_library\DHT_U.cpp.o
operator delete[](void*)                          c:\Users\fx\Upwork\weather-node\output\core\core.a(new.cpp.o)
operator new(unsigned int)                        c:\Users\fx\Upwork\weather-node\output\core\core.a(new.cpp.o)
operator new[](unsigned int)                      c:\Users\fx\Upwork\weather-node\output\core\core.a(new.cpp.o)
pInformation                                      c:\Users\fx\Upwork\weather-node\output\core\core.a(usb_init.c.o)
                                                  c:\Users\fx\Upwork\weather-node\output\core\core.a(usb_core.c.o)
                                                  c:\Users\fx\Upwork\weather-node\output\core\core.a(usb_cdcacm.c.o)
                                                  c:\Users\fx\Upwork\weather-node\output\core\core.a(usb.c.o)
pProperty                                         c:\Users\fx\Upwork\weather-node\output\core\core.a(usb_init.c.o)
                                                  c:\Users\fx\Upwork\weather-node\output\core\core.a(usb_core.c.o)
                                                  c:\Users\fx\Upwork\weather-node\output\core\core.a(usb_cdcacm.c.o)
                                                  c:\Users\fx\Upwork\weather-node\output\core\core.a(usb.c.o)
pUser_Standard_Requests                           c:\Users\fx\Upwork\weather-node\output\core\core.a(usb_init.c.o)
                                                  c:\Users\fx\Upwork\weather-node\output\core\core.a(usb_core.c.o)
                                                  c:\Users\fx\Upwork\weather-node\output\core\core.a(usb.c.o)
pinMode(unsigned char, WiringPinMode)             c:\Users\fx\Upwork\weather-node\output\core\core.a(wirish_digital_f1.cpp.o)
                                                  c:\Users\fx\Upwork\weather-node\output\libraries\DHT_sensor_library\DHT.cpp.o
                                                  c:\Users\fx\Upwork\weather-node\output\sketch\weatherSIM808.ino.cpp.o
pm1_buff                                          c:\Users\fx\Upwork\weather-node\output\sketch\weatherSIM808.ino.cpp.o
pm1_i                                             c:\Users\fx\Upwork\weather-node\output\sketch\weatherSIM808.ino.cpp.o
pm1_ok                                            c:\Users\fx\Upwork\weather-node\output\sketch\weatherSIM808.ino.cpp.o
pm1_value                                         c:\Users\fx\Upwork\weather-node\output\sketch\weatherSIM808.ino.cpp.o
pm2_buff                                          c:\Users\fx\Upwork\weather-node\output\sketch\weatherSIM808.ino.cpp.o
pm2_i                                             c:\Users\fx\Upwork\weather-node\output\sketch\weatherSIM808.ino.cpp.o
pm2_ok                                            c:\Users\fx\Upwork\weather-node\output\sketch\weatherSIM808.ino.cpp.o
pm2_value                                         c:\Users\fx\Upwork\weather-node\output\sketch\weatherSIM808.ino.cpp.o
post_buffer                                       c:\Users\fx\Upwork\weather-node\output\sketch\weatherSIM808.ino.cpp.o
premain()                                         c:\Users\fx\Upwork\weather-node\output\core\core.a(main.cpp.o)
procCGN()                                         c:\Users\fx\Upwork\weather-node\output\sketch\weatherSIM808.ino.cpp.o
procCGR()                                         c:\Users\fx\Upwork\weather-node\output\sketch\weatherSIM808.ino.cpp.o
processingPM1Data(char)                           c:\Users\fx\Upwork\weather-node\output\sketch\weatherSIM808.ino.cpp.o
processingPM2Data(char)                           c:\Users\fx\Upwork\weather-node\output\sketch\weatherSIM808.ino.cpp.o
putch                                             c:\Users\fx\Upwork\weather-node\output\core\wirish\syscalls.c.o
pvPortMalloc                                      c:\Users\fx\Upwork\weather-node\output\libraries\FreeRTOS821\utility\heap_1.c.o
                                                  c:\Users\fx\Upwork\weather-node\output\libraries\FreeRTOS821\utility\tasks.c.o
                                                  c:\Users\fx\Upwork\weather-node\output\libraries\FreeRTOS821\utility\queue.c.o
                                                  c:\Users\fx\Upwork\weather-node\output\libraries\FreeRTOS821\utility\event_groups.c.o
pvTaskIncrementMutexHeldCount                     c:\Users\fx\Upwork\weather-node\output\libraries\FreeRTOS821\utility\tasks.c.o
                                                  c:\Users\fx\Upwork\weather-node\output\libraries\FreeRTOS821\utility\queue.c.o
pxCurrentTCB                                      c:\Users\fx\Upwork\weather-node\output\libraries\FreeRTOS821\utility\tasks.c.o
                                                  c:\Users\fx\Upwork\weather-node\output\libraries\FreeRTOS821\utility\port.c.o
pxPortInitialiseStack                             c:\Users\fx\Upwork\weather-node\output\libraries\FreeRTOS821\utility\port.c.o
                                                  c:\Users\fx\Upwork\weather-node\output\libraries\FreeRTOS821\utility\tasks.c.o
rcc_clk_disable                                   c:\Users\fx\Upwork\weather-node\output\core\core.a(rcc_f1.c.o)
                                                  c:\Users\fx\Upwork\weather-node\output\core\wirish\boards_setup.cpp.o
rcc_clk_enable                                    c:\Users\fx\Upwork\weather-node\output\core\core.a(rcc_f1.c.o)
                                                  c:\Users\fx\Upwork\weather-node\output\core\core.a(i2c.c.o)
                                                  c:\Users\fx\Upwork\weather-node\output\core\core.a(gpio.c.o)
                                                  c:\Users\fx\Upwork\weather-node\output\core\core.a(dma.c.o)
                                                  c:\Users\fx\Upwork\weather-node\output\core\core.a(bkp_f1.c.o)
                                                  c:\Users\fx\Upwork\weather-node\output\core\core.a(usb.c.o)
                                                  c:\Users\fx\Upwork\weather-node\output\core\core.a(usart.c.o)
                                                  c:\Users\fx\Upwork\weather-node\output\core\core.a(timer.c.o)
                                                  c:\Users\fx\Upwork\weather-node\output\core\core.a(gpio_f1.c.o)
                                                  c:\Users\fx\Upwork\weather-node\output\core\core.a(adc.c.o)
rcc_clk_init                                      c:\Users\fx\Upwork\weather-node\output\core\core.a(rcc_f1.c.o)
rcc_configure_pll                                 c:\Users\fx\Upwork\weather-node\output\core\core.a(rcc_f1.c.o)
                                                  c:\Users\fx\Upwork\weather-node\output\core\wirish\boards.cpp.o
rcc_dev_clk                                       c:\Users\fx\Upwork\weather-node\output\core\core.a(rcc.c.o)
                                                  c:\Users\fx\Upwork\weather-node\output\core\core.a(usart_private.c.o)
                                                  c:\Users\fx\Upwork\weather-node\output\core\core.a(rcc_f1.c.o)
rcc_dev_table                                     c:\Users\fx\Upwork\weather-node\output\core\core.a(rcc_f1.c.o)
                                                  c:\Users\fx\Upwork\weather-node\output\core\core.a(rcc.c.o)
rcc_is_clk_on                                     c:\Users\fx\Upwork\weather-node\output\core\core.a(rcc.c.o)
rcc_is_clk_ready                                  c:\Users\fx\Upwork\weather-node\output\core\core.a(rcc.c.o)
                                                  c:\Users\fx\Upwork\weather-node\output\core\core.a(rcc_f1.c.o)
                                                  c:\Users\fx\Upwork\weather-node\output\core\wirish\boards.cpp.o
rcc_reset_dev                                     c:\Users\fx\Upwork\weather-node\output\core\core.a(rcc_f1.c.o)
                                                  c:\Users\fx\Upwork\weather-node\output\core\core.a(i2c.c.o)
                                                  c:\Users\fx\Upwork\weather-node\output\core\core.a(gpio.c.o)
                                                  c:\Users\fx\Upwork\weather-node\output\core\core.a(bkp_f1.c.o)
                                                  c:\Users\fx\Upwork\weather-node\output\core\core.a(timer.c.o)
                                                  c:\Users\fx\Upwork\weather-node\output\core\core.a(gpio_f1.c.o)
                                                  c:\Users\fx\Upwork\weather-node\output\core\core.a(adc.c.o)
rcc_set_prescaler                                 c:\Users\fx\Upwork\weather-node\output\core\core.a(rcc_f1.c.o)
                                                  c:\Users\fx\Upwork\weather-node\output\core\core.a(adc_f1.c.o)
                                                  c:\Users\fx\Upwork\weather-node\output\core\wirish\boards_setup.cpp.o
rcc_switch_sysclk                                 c:\Users\fx\Upwork\weather-node\output\core\core.a(rcc.c.o)
                                                  c:\Users\fx\Upwork\weather-node\output\core\core.a(rcc_f1.c.o)
                                                  c:\Users\fx\Upwork\weather-node\output\core\wirish\boards.cpp.o
rcc_turn_off_clk                                  c:\Users\fx\Upwork\weather-node\output\core\core.a(rcc.c.o)
                                                  c:\Users\fx\Upwork\weather-node\output\core\wirish\boards.cpp.o
rcc_turn_on_clk                                   c:\Users\fx\Upwork\weather-node\output\core\core.a(rcc.c.o)
                                                  c:\Users\fx\Upwork\weather-node\output\core\core.a(rcc_f1.c.o)
                                                  c:\Users\fx\Upwork\weather-node\output\core\wirish\boards.cpp.o
readPM1()                                         c:\Users\fx\Upwork\weather-node\output\sketch\weatherSIM808.ino.cpp.o
readPM2()                                         c:\Users\fx\Upwork\weather-node\output\sketch\weatherSIM808.ino.cpp.o
readTempHum()                                     c:\Users\fx\Upwork\weather-node\output\sketch\weatherSIM808.ino.cpp.o
sendCommand(char const*, int)                     c:\Users\fx\Upwork\weather-node\output\sketch\weatherSIM808.ino.cpp.o
setlocale                                         c:/users/fx/appdata/local/arduino15/packages/arduino/tools/arm-none-eabi-gcc/4.8.3-2014q1/bin/../lib/gcc/arm-none-eabi/4.8.3/../../../../arm-none-eabi/lib/armv7-m\libc.a(lib_a-locale.o)
setup()                                           c:\Users\fx\Upwork\weather-node\output\sketch\weatherSIM808.ino.cpp.o
                                                  c:\Users\fx\Upwork\weather-node\output\core\core.a(main.cpp.o)
showBuffers()                                     c:\Users\fx\Upwork\weather-node\output\sketch\weatherSIM808.ino.cpp.o
sim808Init()                                      c:\Users\fx\Upwork\weather-node\output\sketch\weatherSIM808.ino.cpp.o
software_init_hook                                c:/users/fx/appdata/local/arduino15/packages/arduino/tools/arm-none-eabi-gcc/4.8.3-2014q1/bin/../lib/gcc/arm-none-eabi/4.8.3/../../../../arm-none-eabi/lib/armv7-m/crt0.o
sprintf                                           c:/users/fx/appdata/local/arduino15/packages/arduino/tools/arm-none-eabi-gcc/4.8.3-2014q1/bin/../lib/gcc/arm-none-eabi/4.8.3/../../../../arm-none-eabi/lib/armv7-m\libc.a(lib_a-sprintf.o)
                                                  c:\Users\fx\Upwork\weather-node\output\sketch\weatherSIM808.ino.cpp.o
sqrt                                              c:/users/fx/appdata/local/arduino15/packages/arduino/tools/arm-none-eabi-gcc/4.8.3-2014q1/bin/../lib/gcc/arm-none-eabi/4.8.3/../../../../arm-none-eabi/lib/armv7-m\libm.a(lib_a-w_sqrt.o)
                                                  c:\Users\fx\Upwork\weather-node\output\libraries\DHT_sensor_library\DHT.cpp.o
start_c                                           c:\Users\fx\Upwork\weather-node\output\core\wirish\start_c.c.o
                                                  c:\Users\fx\Upwork\weather-node\output\core\wirish\start.S.o
strcmp                                            c:/users/fx/appdata/local/arduino15/packages/arduino/tools/arm-none-eabi-gcc/4.8.3-2014q1/bin/../lib/gcc/arm-none-eabi/4.8.3/../../../../arm-none-eabi/lib/armv7-m\libc.a(lib_a-strcmp.o)
                                                  c:/users/fx/appdata/local/arduino15/packages/arduino/tools/arm-none-eabi-gcc/4.8.3-2014q1/bin/../lib/gcc/arm-none-eabi/4.8.3/../../../../arm-none-eabi/lib/armv7-m\libc.a(lib_a-locale.o)
strcpy                                            c:/users/fx/appdata/local/arduino15/packages/arduino/tools/arm-none-eabi-gcc/4.8.3-2014q1/bin/../lib/gcc/arm-none-eabi/4.8.3/../../../../arm-none-eabi/lib/armv7-m\libc.a(lib_a-strcpy.o)
                                                  c:\Users\fx\Upwork\weather-node\output\core\core.a(cxxabi-compat.cpp.o)
strlen                                            c:/users/fx/appdata/local/arduino15/packages/arduino/tools/arm-none-eabi-gcc/4.8.3-2014q1/bin/../lib/gcc/arm-none-eabi/4.8.3/../../../../arm-none-eabi/lib/armv7-m\libc.a(lib_a-strlen.o)
                                                  c:/users/fx/appdata/local/arduino15/packages/arduino/tools/arm-none-eabi-gcc/4.8.3-2014q1/bin/../lib/gcc/arm-none-eabi/4.8.3/../../../../arm-none-eabi/lib/armv7-m\libc.a(lib_a-svfiprintf.o)
                                                  c:/users/fx/appdata/local/arduino15/packages/arduino/tools/arm-none-eabi-gcc/4.8.3-2014q1/bin/../lib/gcc/arm-none-eabi/4.8.3/../../../../arm-none-eabi/lib/armv7-m\libc.a(lib_a-svfprintf.o)
                                                  c:\Users\fx\Upwork\weather-node\output\core\core.a(usb_serial.cpp.o)
                                                  c:\Users\fx\Upwork\weather-node\output\core\core.a(Print.cpp.o)
                                                  c:\Users\fx\Upwork\weather-node\output\sketch\weatherSIM808.ino.cpp.o
strncpy                                           c:/users/fx/appdata/local/arduino15/packages/arduino/tools/arm-none-eabi-gcc/4.8.3-2014q1/bin/../lib/gcc/arm-none-eabi/4.8.3/../../../../arm-none-eabi/lib/armv7-m\libc.a(lib_a-strncpy.o)
                                                  c:\Users\fx\Upwork\weather-node\output\libraries\DHT_sensor_library\DHT_U.cpp.o
systick_attach_callback                           c:\Users\fx\Upwork\weather-node\output\core\core.a(systick.c.o)
                                                  c:\Users\fx\Upwork\weather-node\output\libraries\FreeRTOS821\utility\port.c.o
systick_disable                                   c:\Users\fx\Upwork\weather-node\output\core\core.a(systick.c.o)
systick_enable                                    c:\Users\fx\Upwork\weather-node\output\core\core.a(systick.c.o)
systick_init                                      c:\Users\fx\Upwork\weather-node\output\core\core.a(systick.c.o)
                                                  c:\Users\fx\Upwork\weather-node\output\core\wirish\boards.cpp.o
systick_uptime_millis                             c:\Users\fx\Upwork\weather-node\output\core\core.a(i2c.c.o)
                                                  c:\Users\fx\Upwork\weather-node\output\core\core.a(wirish_time.cpp.o)
                                                  c:\Users\fx\Upwork\weather-node\output\core\core.a(usb_serial.cpp.o)
                                                  c:\Users\fx\Upwork\weather-node\output\core\core.a(systick.c.o)
                                                  c:\Users\fx\Upwork\weather-node\output\libraries\DHT_sensor_library\DHT_U.cpp.o
                                                  c:\Users\fx\Upwork\weather-node\output\libraries\DHT_sensor_library\DHT.cpp.o
temperature                                       c:\Users\fx\Upwork\weather-node\output\sketch\weatherSIM808.ino.cpp.o
throb                                             c:\Users\fx\Upwork\weather-node\output\core\core.a(util.c.o)
timer1                                            c:\Users\fx\Upwork\weather-node\output\core\core.a(timer.c.o)
                                                  c:\Users\fx\Upwork\weather-node\output\core\board.cpp.o
timer2                                            c:\Users\fx\Upwork\weather-node\output\core\core.a(timer.c.o)
                                                  c:\Users\fx\Upwork\weather-node\output\core\board.cpp.o
timer3                                            c:\Users\fx\Upwork\weather-node\output\core\core.a(timer.c.o)
                                                  c:\Users\fx\Upwork\weather-node\output\core\board.cpp.o
timer4                                            c:\Users\fx\Upwork\weather-node\output\core\core.a(timer.c.o)
                                                  c:\Users\fx\Upwork\weather-node\output\core\board.cpp.o
timer_attach_interrupt                            c:\Users\fx\Upwork\weather-node\output\core\core.a(timer.c.o)
timer_detach_interrupt                            c:\Users\fx\Upwork\weather-node\output\core\core.a(timer.c.o)
timer_disable                                     c:\Users\fx\Upwork\weather-node\output\core\core.a(timer.c.o)
timer_foreach                                     c:\Users\fx\Upwork\weather-node\output\core\core.a(timer.c.o)
                                                  c:\Users\fx\Upwork\weather-node\output\core\wirish\boards.cpp.o
timer_has_cc_channel                              c:\Users\fx\Upwork\weather-node\output\core\core.a(timer.c.o)
                                                  c:\Users\fx\Upwork\weather-node\output\core\wirish\boards.cpp.o
timer_init                                        c:\Users\fx\Upwork\weather-node\output\core\core.a(timer.c.o)
                                                  c:\Users\fx\Upwork\weather-node\output\core\wirish\boards.cpp.o
timer_set_mode                                    c:\Users\fx\Upwork\weather-node\output\core\core.a(timer.c.o)
                                                  c:\Users\fx\Upwork\weather-node\output\core\core.a(wirish_digital_f1.cpp.o)
                                                  c:\Users\fx\Upwork\weather-node\output\core\core.a(HardwareSerial.cpp.o)
timestamp                                         c:\Users\fx\Upwork\weather-node\output\sketch\weatherSIM808.ino.cpp.o
ucQueueGetQueueType                               c:\Users\fx\Upwork\weather-node\output\libraries\FreeRTOS821\utility\queue.c.o
ulPortSetInterruptMask                            c:\Users\fx\Upwork\weather-node\output\libraries\FreeRTOS821\utility\port.c.o
                                                  c:\Users\fx\Upwork\weather-node\output\libraries\FreeRTOS821\utility\tasks.c.o
                                                  c:\Users\fx\Upwork\weather-node\output\libraries\FreeRTOS821\utility\queue.c.o
                                                  c:\Users\fx\Upwork\weather-node\output\libraries\FreeRTOS821\utility\event_groups.c.o
ulTaskNotifyTake                                  c:\Users\fx\Upwork\weather-node\output\libraries\FreeRTOS821\utility\tasks.c.o
usart_config_gpios_async                          c:\Users\fx\Upwork\weather-node\output\core\core.a(usart_f1.c.o)
                                                  c:\Users\fx\Upwork\weather-node\output\core\core.a(HardwareSerial.cpp.o)
usart_disable                                     c:\Users\fx\Upwork\weather-node\output\core\core.a(usart.c.o)
                                                  c:\Users\fx\Upwork\weather-node\output\core\core.a(HardwareSerial.cpp.o)
usart_enable                                      c:\Users\fx\Upwork\weather-node\output\core\core.a(usart.c.o)
                                                  c:\Users\fx\Upwork\weather-node\output\core\core.a(HardwareSerial.cpp.o)
usart_foreach                                     c:\Users\fx\Upwork\weather-node\output\core\core.a(usart_f1.c.o)
usart_init                                        c:\Users\fx\Upwork\weather-node\output\core\core.a(usart.c.o)
                                                  c:\Users\fx\Upwork\weather-node\output\core\core.a(HardwareSerial.cpp.o)
usart_putudec                                     c:\Users\fx\Upwork\weather-node\output\core\core.a(usart.c.o)
                                                  c:\Users\fx\Upwork\weather-node\output\core\core.a(util.c.o)
usart_rx                                          c:\Users\fx\Upwork\weather-node\output\core\core.a(usart.c.o)
usart_set_baud_rate                               c:\Users\fx\Upwork\weather-node\output\core\core.a(usart_f1.c.o)
                                                  c:\Users\fx\Upwork\weather-node\output\core\core.a(HardwareSerial.cpp.o)
usart_tx                                          c:\Users\fx\Upwork\weather-node\output\core\core.a(usart.c.o)
                                                  c:\Users\fx\Upwork\weather-node\output\core\core.a(util.c.o)
                                                  c:\Users\fx\Upwork\weather-node\output\core\core.a(HardwareSerial.cpp.o)
usb_cdcacm_data_available                         c:\Users\fx\Upwork\weather-node\output\core\core.a(usb_cdcacm.c.o)
                                                  c:\Users\fx\Upwork\weather-node\output\core\core.a(usb_serial.cpp.o)
usb_cdcacm_disable                                c:\Users\fx\Upwork\weather-node\output\core\core.a(usb_cdcacm.c.o)
                                                  c:\Users\fx\Upwork\weather-node\output\core\core.a(usb_serial.cpp.o)
usb_cdcacm_enable                                 c:\Users\fx\Upwork\weather-node\output\core\core.a(usb_cdcacm.c.o)
                                                  c:\Users\fx\Upwork\weather-node\output\core\core.a(usb_serial.cpp.o)
usb_cdcacm_get_baud                               c:\Users\fx\Upwork\weather-node\output\core\core.a(usb_cdcacm.c.o)
usb_cdcacm_get_dtr                                c:\Users\fx\Upwork\weather-node\output\core\core.a(usb_cdcacm.c.o)
                                                  c:\Users\fx\Upwork\weather-node\output\core\core.a(usb_serial.cpp.o)
usb_cdcacm_get_line_coding                        c:\Users\fx\Upwork\weather-node\output\core\core.a(usb_cdcacm.c.o)
usb_cdcacm_get_n_data_bits                        c:\Users\fx\Upwork\weather-node\output\core\core.a(usb_cdcacm.c.o)
usb_cdcacm_get_parity                             c:\Users\fx\Upwork\weather-node\output\core\core.a(usb_cdcacm.c.o)
usb_cdcacm_get_pending                            c:\Users\fx\Upwork\weather-node\output\core\core.a(usb_cdcacm.c.o)
                                                  c:\Users\fx\Upwork\weather-node\output\core\core.a(usb_serial.cpp.o)
usb_cdcacm_get_rts                                c:\Users\fx\Upwork\weather-node\output\core\core.a(usb_cdcacm.c.o)
                                                  c:\Users\fx\Upwork\weather-node\output\core\core.a(usb_serial.cpp.o)
usb_cdcacm_get_stop_bits                          c:\Users\fx\Upwork\weather-node\output\core\core.a(usb_cdcacm.c.o)
usb_cdcacm_is_transmitting                        c:\Users\fx\Upwork\weather-node\output\core\core.a(usb_cdcacm.c.o)
usb_cdcacm_peek                                   c:\Users\fx\Upwork\weather-node\output\core\core.a(usb_cdcacm.c.o)
                                                  c:\Users\fx\Upwork\weather-node\output\core\core.a(usb_serial.cpp.o)
usb_cdcacm_peek_char                              c:\Users\fx\Upwork\weather-node\output\core\core.a(usb_cdcacm.c.o)
usb_cdcacm_peek_ex                                c:\Users\fx\Upwork\weather-node\output\core\core.a(usb_cdcacm.c.o)
                                                  c:\Users\fx\Upwork\weather-node\output\core\core.a(usb_serial.cpp.o)
usb_cdcacm_putc                                   c:\Users\fx\Upwork\weather-node\output\core\core.a(usb_cdcacm.c.o)
usb_cdcacm_rx                                     c:\Users\fx\Upwork\weather-node\output\core\core.a(usb_cdcacm.c.o)
                                                  c:\Users\fx\Upwork\weather-node\output\core\core.a(usb_serial.cpp.o)
usb_cdcacm_set_hooks                              c:\Users\fx\Upwork\weather-node\output\core\core.a(usb_cdcacm.c.o)
                                                  c:\Users\fx\Upwork\weather-node\output\core\core.a(usb_serial.cpp.o)
usb_cdcacm_tx                                     c:\Users\fx\Upwork\weather-node\output\core\core.a(usb_cdcacm.c.o)
                                                  c:\Users\fx\Upwork\weather-node\output\core\core.a(usb_serial.cpp.o)
usb_cdcacm_tx_available                           c:\Users\fx\Upwork\weather-node\output\core\core.a(usb_cdcacm.c.o)
                                                  c:\Users\fx\Upwork\weather-node\output\core\core.a(usb_serial.cpp.o)
usb_init_usblib                                   c:\Users\fx\Upwork\weather-node\output\core\core.a(usb.c.o)
                                                  c:\Users\fx\Upwork\weather-node\output\core\core.a(usb_cdcacm.c.o)
usb_power_off                                     c:\Users\fx\Upwork\weather-node\output\core\core.a(usb.c.o)
                                                  c:\Users\fx\Upwork\weather-node\output\core\core.a(usb_cdcacm.c.o)
usb_set_ep_rx_count                               c:\Users\fx\Upwork\weather-node\output\core\core.a(usb_reg_map.c.o)
                                                  c:\Users\fx\Upwork\weather-node\output\core\core.a(usb_cdcacm.c.o)
uxEventGroupGetNumber                             c:\Users\fx\Upwork\weather-node\output\libraries\FreeRTOS821\utility\event_groups.c.o
uxListRemove                                      c:\Users\fx\Upwork\weather-node\output\libraries\FreeRTOS821\utility\list.c.o
                                                  c:\Users\fx\Upwork\weather-node\output\libraries\FreeRTOS821\utility\tasks.c.o
uxQueueGetQueueNumber                             c:\Users\fx\Upwork\weather-node\output\libraries\FreeRTOS821\utility\queue.c.o
uxQueueMessagesWaiting                            c:\Users\fx\Upwork\weather-node\output\libraries\FreeRTOS821\utility\queue.c.o
uxQueueMessagesWaitingFromISR                     c:\Users\fx\Upwork\weather-node\output\libraries\FreeRTOS821\utility\queue.c.o
uxQueueSpacesAvailable                            c:\Users\fx\Upwork\weather-node\output\libraries\FreeRTOS821\utility\queue.c.o
uxTaskGetNumberOfTasks                            c:\Users\fx\Upwork\weather-node\output\libraries\FreeRTOS821\utility\tasks.c.o
uxTaskGetSystemState                              c:\Users\fx\Upwork\weather-node\output\libraries\FreeRTOS821\utility\tasks.c.o
uxTaskGetTaskNumber                               c:\Users\fx\Upwork\weather-node\output\libraries\FreeRTOS821\utility\tasks.c.o
uxTaskPriorityGet                                 c:\Users\fx\Upwork\weather-node\output\libraries\FreeRTOS821\utility\tasks.c.o
uxTaskPriorityGetFromISR                          c:\Users\fx\Upwork\weather-node\output\libraries\FreeRTOS821\utility\tasks.c.o
uxTaskResetEventItemValue                         c:\Users\fx\Upwork\weather-node\output\libraries\FreeRTOS821\utility\tasks.c.o
                                                  c:\Users\fx\Upwork\weather-node\output\libraries\FreeRTOS821\utility\event_groups.c.o
vApplicationStackOverflowHook                     c:\Users\fx\Upwork\weather-node\output\libraries\FreeRTOS821\MapleFreeRTOS821.cpp.o
                                                  c:\Users\fx\Upwork\weather-node\output\libraries\FreeRTOS821\utility\tasks.c.o
vEventGroupClearBitsCallback                      c:\Users\fx\Upwork\weather-node\output\libraries\FreeRTOS821\utility\event_groups.c.o
vEventGroupDelete                                 c:\Users\fx\Upwork\weather-node\output\libraries\FreeRTOS821\utility\event_groups.c.o
vEventGroupSetBitsCallback                        c:\Users\fx\Upwork\weather-node\output\libraries\FreeRTOS821\utility\event_groups.c.o
vListInitialise                                   c:\Users\fx\Upwork\weather-node\output\libraries\FreeRTOS821\utility\list.c.o
                                                  c:\Users\fx\Upwork\weather-node\output\libraries\FreeRTOS821\utility\tasks.c.o
                                                  c:\Users\fx\Upwork\weather-node\output\libraries\FreeRTOS821\utility\queue.c.o
                                                  c:\Users\fx\Upwork\weather-node\output\libraries\FreeRTOS821\utility\event_groups.c.o
vListInitialiseItem                               c:\Users\fx\Upwork\weather-node\output\libraries\FreeRTOS821\utility\list.c.o
                                                  c:\Users\fx\Upwork\weather-node\output\libraries\FreeRTOS821\utility\tasks.c.o
vListInsert                                       c:\Users\fx\Upwork\weather-node\output\libraries\FreeRTOS821\utility\list.c.o
                                                  c:\Users\fx\Upwork\weather-node\output\libraries\FreeRTOS821\utility\tasks.c.o
vListInsertEnd                                    c:\Users\fx\Upwork\weather-node\output\libraries\FreeRTOS821\utility\list.c.o
                                                  c:\Users\fx\Upwork\weather-node\output\libraries\FreeRTOS821\utility\tasks.c.o
vPortClearInterruptMask                           c:\Users\fx\Upwork\weather-node\output\libraries\FreeRTOS821\utility\port.c.o
                                                  c:\Users\fx\Upwork\weather-node\output\libraries\FreeRTOS821\utility\tasks.c.o
                                                  c:\Users\fx\Upwork\weather-node\output\libraries\FreeRTOS821\utility\queue.c.o
                                                  c:\Users\fx\Upwork\weather-node\output\libraries\FreeRTOS821\utility\event_groups.c.o
vPortEndScheduler                                 c:\Users\fx\Upwork\weather-node\output\libraries\FreeRTOS821\utility\port.c.o
                                                  c:\Users\fx\Upwork\weather-node\output\libraries\FreeRTOS821\utility\tasks.c.o
vPortEnterCritical                                c:\Users\fx\Upwork\weather-node\output\libraries\FreeRTOS821\utility\port.c.o
                                                  c:\Users\fx\Upwork\weather-node\output\libraries\FreeRTOS821\utility\tasks.c.o
                                                  c:\Users\fx\Upwork\weather-node\output\libraries\FreeRTOS821\utility\queue.c.o
                                                  c:\Users\fx\Upwork\weather-node\output\libraries\FreeRTOS821\utility\event_groups.c.o
vPortExitCritical                                 c:\Users\fx\Upwork\weather-node\output\libraries\FreeRTOS821\utility\port.c.o
                                                  c:\Users\fx\Upwork\weather-node\output\libraries\FreeRTOS821\utility\tasks.c.o
                                                  c:\Users\fx\Upwork\weather-node\output\libraries\FreeRTOS821\utility\queue.c.o
                                                  c:\Users\fx\Upwork\weather-node\output\libraries\FreeRTOS821\utility\event_groups.c.o
vPortFree                                         c:\Users\fx\Upwork\weather-node\output\libraries\FreeRTOS821\utility\heap_1.c.o
                                                  c:\Users\fx\Upwork\weather-node\output\libraries\FreeRTOS821\utility\tasks.c.o
                                                  c:\Users\fx\Upwork\weather-node\output\libraries\FreeRTOS821\utility\queue.c.o
                                                  c:\Users\fx\Upwork\weather-node\output\libraries\FreeRTOS821\utility\event_groups.c.o
vPortInitialiseBlocks                             c:\Users\fx\Upwork\weather-node\output\libraries\FreeRTOS821\utility\heap_1.c.o
vPortSetupTimerInterrupt                          c:\Users\fx\Upwork\weather-node\output\libraries\FreeRTOS821\utility\port.c.o
vPortYield                                        c:\Users\fx\Upwork\weather-node\output\libraries\FreeRTOS821\utility\port.c.o
                                                  c:\Users\fx\Upwork\weather-node\output\libraries\FreeRTOS821\utility\tasks.c.o
                                                  c:\Users\fx\Upwork\weather-node\output\libraries\FreeRTOS821\utility\queue.c.o
                                                  c:\Users\fx\Upwork\weather-node\output\libraries\FreeRTOS821\utility\event_groups.c.o
vQueueDelete                                      c:\Users\fx\Upwork\weather-node\output\libraries\FreeRTOS821\utility\queue.c.o
vQueueSetQueueNumber                              c:\Users\fx\Upwork\weather-node\output\libraries\FreeRTOS821\utility\queue.c.o
vTaskDelay                                        c:\Users\fx\Upwork\weather-node\output\libraries\FreeRTOS821\utility\tasks.c.o
                                                  c:\Users\fx\Upwork\weather-node\output\sketch\weatherSIM808.ino.cpp.o
vTaskDelayUntil                                   c:\Users\fx\Upwork\weather-node\output\libraries\FreeRTOS821\utility\tasks.c.o
vTaskDelete                                       c:\Users\fx\Upwork\weather-node\output\libraries\FreeRTOS821\utility\tasks.c.o
vTaskEndScheduler                                 c:\Users\fx\Upwork\weather-node\output\libraries\FreeRTOS821\utility\tasks.c.o
vTaskMissedYield                                  c:\Users\fx\Upwork\weather-node\output\libraries\FreeRTOS821\utility\tasks.c.o
                                                  c:\Users\fx\Upwork\weather-node\output\libraries\FreeRTOS821\utility\queue.c.o
vTaskNotifyGiveFromISR                            c:\Users\fx\Upwork\weather-node\output\libraries\FreeRTOS821\utility\tasks.c.o
vTaskPlaceOnEventList                             c:\Users\fx\Upwork\weather-node\output\libraries\FreeRTOS821\utility\tasks.c.o
                                                  c:\Users\fx\Upwork\weather-node\output\libraries\FreeRTOS821\utility\queue.c.o
vTaskPlaceOnUnorderedEventList                    c:\Users\fx\Upwork\weather-node\output\libraries\FreeRTOS821\utility\tasks.c.o
                                                  c:\Users\fx\Upwork\weather-node\output\libraries\FreeRTOS821\utility\event_groups.c.o
vTaskPriorityInherit                              c:\Users\fx\Upwork\weather-node\output\libraries\FreeRTOS821\utility\tasks.c.o
                                                  c:\Users\fx\Upwork\weather-node\output\libraries\FreeRTOS821\utility\queue.c.o
vTaskPrioritySet                                  c:\Users\fx\Upwork\weather-node\output\libraries\FreeRTOS821\utility\tasks.c.o
vTaskResume                                       c:\Users\fx\Upwork\weather-node\output\libraries\FreeRTOS821\utility\tasks.c.o
vTaskSetTaskNumber                                c:\Users\fx\Upwork\weather-node\output\libraries\FreeRTOS821\utility\tasks.c.o
vTaskSetTimeOutState                              c:\Users\fx\Upwork\weather-node\output\libraries\FreeRTOS821\utility\tasks.c.o
                                                  c:\Users\fx\Upwork\weather-node\output\libraries\FreeRTOS821\utility\queue.c.o
vTaskStartScheduler                               c:\Users\fx\Upwork\weather-node\output\libraries\FreeRTOS821\utility\tasks.c.o
                                                  c:\Users\fx\Upwork\weather-node\output\sketch\weatherSIM808.ino.cpp.o
vTaskSuspend                                      c:\Users\fx\Upwork\weather-node\output\libraries\FreeRTOS821\utility\tasks.c.o
vTaskSuspendAll                                   c:\Users\fx\Upwork\weather-node\output\libraries\FreeRTOS821\utility\tasks.c.o
                                                  c:\Users\fx\Upwork\weather-node\output\libraries\FreeRTOS821\utility\queue.c.o
                                                  c:\Users\fx\Upwork\weather-node\output\libraries\FreeRTOS821\utility\heap_1.c.o
                                                  c:\Users\fx\Upwork\weather-node\output\libraries\FreeRTOS821\utility\event_groups.c.o
vTaskSwitchContext                                c:\Users\fx\Upwork\weather-node\output\libraries\FreeRTOS821\utility\tasks.c.o
                                                  c:\Users\fx\Upwork\weather-node\output\libraries\FreeRTOS821\utility\port.c.o
vtable for Adafruit_Sensor                        c:\Users\fx\Upwork\weather-node\output\libraries\DHT_sensor_library\DHT_U.cpp.o
vtable for DHT_Unified::Humidity                  c:\Users\fx\Upwork\weather-node\output\libraries\DHT_sensor_library\DHT_U.cpp.o
vtable for DHT_Unified::Temperature               c:\Users\fx\Upwork\weather-node\output\libraries\DHT_sensor_library\DHT_U.cpp.o
vtable for HardwareSerial                         c:\Users\fx\Upwork\weather-node\output\core\core.a(HardwareSerial.cpp.o)
vtable for Print                                  c:\Users\fx\Upwork\weather-node\output\core\core.a(Print.cpp.o)
vtable for Stream                                 c:\Users\fx\Upwork\weather-node\output\core\core.a(HardwareSerial.cpp.o)
                                                  c:\Users\fx\Upwork\weather-node\output\core\core.a(usb_serial.cpp.o)
vtable for USBSerial                              c:\Users\fx\Upwork\weather-node\output\core\core.a(usb_serial.cpp.o)
wInterrupt_Mask                                   c:\Users\fx\Upwork\weather-node\output\core\core.a(usb_init.c.o)
waitOk(int)                                       c:\Users\fx\Upwork\weather-node\output\sketch\weatherSIM808.ino.cpp.o
wait_for_state_change                             c:\Users\fx\Upwork\weather-node\output\core\core.a(i2c.c.o)
wirish::priv::board_reset_pll()                   c:\Users\fx\Upwork\weather-node\output\core\wirish\boards_setup.cpp.o
                                                  c:\Users\fx\Upwork\weather-node\output\core\wirish\boards.cpp.o
wirish::priv::board_setup_clock_prescalers()      c:\Users\fx\Upwork\weather-node\output\core\wirish\boards_setup.cpp.o
                                                  c:\Users\fx\Upwork\weather-node\output\core\wirish\boards.cpp.o
wirish::priv::board_setup_gpio()                  c:\Users\fx\Upwork\weather-node\output\core\wirish\boards_setup.cpp.o
                                                  c:\Users\fx\Upwork\weather-node\output\core\wirish\boards.cpp.o
wirish::priv::board_setup_usb()                   c:\Users\fx\Upwork\weather-node\output\core\wirish\boards_setup.cpp.o
                                                  c:\Users\fx\Upwork\weather-node\output\core\wirish\boards.cpp.o
wirish::priv::series_init()                       c:\Users\fx\Upwork\weather-node\output\core\wirish\boards_setup.cpp.o
                                                  c:\Users\fx\Upwork\weather-node\output\core\wirish\boards.cpp.o
wirish::priv::w_adc_pre                           c:\Users\fx\Upwork\weather-node\output\core\wirish\boards_setup.cpp.o
                                                  c:\Users\fx\Upwork\weather-node\output\core\wirish\boards.cpp.o
wirish::priv::w_adc_smp                           c:\Users\fx\Upwork\weather-node\output\core\wirish\boards_setup.cpp.o
                                                  c:\Users\fx\Upwork\weather-node\output\core\wirish\boards.cpp.o
wirish::priv::w_board_pll_cfg                     c:\Users\fx\Upwork\weather-node\output\core\wirish\boards_setup.cpp.o
                                                  c:\Users\fx\Upwork\weather-node\output\core\wirish\boards.cpp.o
xEventGroupClearBits                              c:\Users\fx\Upwork\weather-node\output\libraries\FreeRTOS821\utility\event_groups.c.o
xEventGroupCreate                                 c:\Users\fx\Upwork\weather-node\output\libraries\FreeRTOS821\utility\event_groups.c.o
xEventGroupGetBitsFromISR                         c:\Users\fx\Upwork\weather-node\output\libraries\FreeRTOS821\utility\event_groups.c.o
xEventGroupSetBits                                c:\Users\fx\Upwork\weather-node\output\libraries\FreeRTOS821\utility\event_groups.c.o
xEventGroupSync                                   c:\Users\fx\Upwork\weather-node\output\libraries\FreeRTOS821\utility\event_groups.c.o
xEventGroupWaitBits                               c:\Users\fx\Upwork\weather-node\output\libraries\FreeRTOS821\utility\event_groups.c.o
xPortGetFreeHeapSize                              c:\Users\fx\Upwork\weather-node\output\libraries\FreeRTOS821\utility\heap_1.c.o
xPortStartScheduler                               c:\Users\fx\Upwork\weather-node\output\libraries\FreeRTOS821\utility\port.c.o
                                                  c:\Users\fx\Upwork\weather-node\output\libraries\FreeRTOS821\utility\tasks.c.o
xPortSysTickHandler                               c:\Users\fx\Upwork\weather-node\output\libraries\FreeRTOS821\utility\port.c.o
xQueueCreateCountingSemaphore                     c:\Users\fx\Upwork\weather-node\output\libraries\FreeRTOS821\utility\queue.c.o
xQueueCreateMutex                                 c:\Users\fx\Upwork\weather-node\output\libraries\FreeRTOS821\utility\queue.c.o
xQueueGenericCreate                               c:\Users\fx\Upwork\weather-node\output\libraries\FreeRTOS821\utility\queue.c.o
xQueueGenericReceive                              c:\Users\fx\Upwork\weather-node\output\libraries\FreeRTOS821\utility\queue.c.o
xQueueGenericReset                                c:\Users\fx\Upwork\weather-node\output\libraries\FreeRTOS821\utility\queue.c.o
xQueueGenericSend                                 c:\Users\fx\Upwork\weather-node\output\libraries\FreeRTOS821\utility\queue.c.o
xQueueGenericSendFromISR                          c:\Users\fx\Upwork\weather-node\output\libraries\FreeRTOS821\utility\queue.c.o
xQueueGiveFromISR                                 c:\Users\fx\Upwork\weather-node\output\libraries\FreeRTOS821\utility\queue.c.o
xQueueGiveMutexRecursive                          c:\Users\fx\Upwork\weather-node\output\libraries\FreeRTOS821\utility\queue.c.o
xQueueIsQueueEmptyFromISR                         c:\Users\fx\Upwork\weather-node\output\libraries\FreeRTOS821\utility\queue.c.o
xQueueIsQueueFullFromISR                          c:\Users\fx\Upwork\weather-node\output\libraries\FreeRTOS821\utility\queue.c.o
xQueuePeekFromISR                                 c:\Users\fx\Upwork\weather-node\output\libraries\FreeRTOS821\utility\queue.c.o
xQueueReceiveFromISR                              c:\Users\fx\Upwork\weather-node\output\libraries\FreeRTOS821\utility\queue.c.o
xQueueTakeMutexRecursive                          c:\Users\fx\Upwork\weather-node\output\libraries\FreeRTOS821\utility\queue.c.o
xTaskCheckForTimeOut                              c:\Users\fx\Upwork\weather-node\output\libraries\FreeRTOS821\utility\tasks.c.o
                                                  c:\Users\fx\Upwork\weather-node\output\libraries\FreeRTOS821\utility\queue.c.o
xTaskGenericCreate                                c:\Users\fx\Upwork\weather-node\output\libraries\FreeRTOS821\utility\tasks.c.o
                                                  c:\Users\fx\Upwork\weather-node\output\sketch\weatherSIM808.ino.cpp.o
xTaskGenericNotify                                c:\Users\fx\Upwork\weather-node\output\libraries\FreeRTOS821\utility\tasks.c.o
xTaskGetCurrentTaskHandle                         c:\Users\fx\Upwork\weather-node\output\libraries\FreeRTOS821\utility\tasks.c.o
                                                  c:\Users\fx\Upwork\weather-node\output\libraries\FreeRTOS821\utility\queue.c.o
xTaskGetTickCount                                 c:\Users\fx\Upwork\weather-node\output\libraries\FreeRTOS821\utility\tasks.c.o
xTaskGetTickCountFromISR                          c:\Users\fx\Upwork\weather-node\output\libraries\FreeRTOS821\utility\tasks.c.o
xTaskIncrementTick                                c:\Users\fx\Upwork\weather-node\output\libraries\FreeRTOS821\utility\tasks.c.o
                                                  c:\Users\fx\Upwork\weather-node\output\libraries\FreeRTOS821\utility\port.c.o
xTaskNotifyFromISR                                c:\Users\fx\Upwork\weather-node\output\libraries\FreeRTOS821\utility\tasks.c.o
xTaskNotifyWait                                   c:\Users\fx\Upwork\weather-node\output\libraries\FreeRTOS821\utility\tasks.c.o
xTaskPriorityDisinherit                           c:\Users\fx\Upwork\weather-node\output\libraries\FreeRTOS821\utility\tasks.c.o
                                                  c:\Users\fx\Upwork\weather-node\output\libraries\FreeRTOS821\utility\queue.c.o
xTaskRemoveFromEventList                          c:\Users\fx\Upwork\weather-node\output\libraries\FreeRTOS821\utility\tasks.c.o
                                                  c:\Users\fx\Upwork\weather-node\output\libraries\FreeRTOS821\utility\queue.c.o
xTaskRemoveFromUnorderedEventList                 c:\Users\fx\Upwork\weather-node\output\libraries\FreeRTOS821\utility\tasks.c.o
                                                  c:\Users\fx\Upwork\weather-node\output\libraries\FreeRTOS821\utility\event_groups.c.o
xTaskResumeAll                                    c:\Users\fx\Upwork\weather-node\output\libraries\FreeRTOS821\utility\tasks.c.o
                                                  c:\Users\fx\Upwork\weather-node\output\libraries\FreeRTOS821\utility\queue.c.o
                                                  c:\Users\fx\Upwork\weather-node\output\libraries\FreeRTOS821\utility\heap_1.c.o
                                                  c:\Users\fx\Upwork\weather-node\output\libraries\FreeRTOS821\utility\event_groups.c.o
xTaskResumeFromISR                                c:\Users\fx\Upwork\weather-node\output\libraries\FreeRTOS821\utility\tasks.c.o
yield                                             c:\Users\fx\Upwork\weather-node\output\core\core.a(hooks.c.o)
                                                  c:\Users\fx\Upwork\weather-node\output\core\core.a(wirish_time.cpp.o)
